 oracledb

 Timestamp is 5b02daf6 (Mon May 21 16:43:02 2018)

 Preferred load address is 0000000180000000

 Start         Length     Name                   Class
 0001:00000000 000000a0H .text$di                CODE
 0001:000000a0 000450c0H .text$mn                CODE
 0001:00045160 00000020H .text$mn$00             CODE
 0001:00045180 00000f50H .text$x                 CODE
 0001:000460d0 00000091H .text$yd                CODE
 0002:00000000 000002c8H .idata$5                DATA
 0002:000002c8 00000010H .00cfg                  DATA
 0002:000002d8 00000008H .CRT$XCA                DATA
 0002:000002e0 00000038H .CRT$XCU                DATA
 0002:00000318 00000008H .CRT$XCZ                DATA
 0002:00000320 00000008H .CRT$XIA                DATA
 0002:00000328 00000018H .CRT$XIC                DATA
 0002:00000340 00000008H .CRT$XIZ                DATA
 0002:00000348 00000008H .CRT$XPA                DATA
 0002:00000350 00000010H .CRT$XPX                DATA
 0002:00000360 00000008H .CRT$XPXA               DATA
 0002:00000368 00000008H .CRT$XPZ                DATA
 0002:00000370 00000008H .CRT$XTA                DATA
 0002:00000378 00000008H .CRT$XTZ                DATA
 0002:00000380 0000ec40H .rdata                  DATA
 0002:0000efc0 00000404H .rdata$r                DATA
 0002:0000f3c4 0000041cH .rdata$zzzdbg           DATA
 0002:0000f7e0 00000008H .rtc$IAA                DATA
 0002:0000f7e8 00000008H .rtc$IZZ                DATA
 0002:0000f7f0 00000008H .rtc$TAA                DATA
 0002:0000f7f8 00000008H .rtc$TZZ                DATA
 0002:0000f800 00004e90H .xdata                  DATA
 0002:00014690 00000244H .xdata$x                DATA
 0002:000148d4 00000020H .didat$2                DATA
 0002:000148f4 00000024H .didat$3                DATA
 0002:00014918 000002d0H .didat$4                DATA
 0002:00014be8 000016e0H .didat$6                DATA
 0002:000162c8 000002d8H .didat$7                DATA
 0002:000165a0 00000054H .edata                  DATA
 0002:000165f4 00000014H .idata$2                DATA
 0002:00016608 00000018H .idata$3                DATA
 0002:00016620 000002c8H .idata$4                DATA
 0002:000168e8 0000067cH .idata$6                DATA
 0003:00000000 00000ac0H .data                   DATA
 0003:00000ac0 00000140H .data$r                 DATA
 0003:00000c00 000002d0H .didat$5                DATA
 0003:00000ed0 0000231cH .bss                    DATA
 0004:00000000 00003a8cH .pdata                  DATA
 0005:00000000 00000084H .gfids$x                DATA
 0005:00000084 00000058H .gfids$y                DATA
 0006:00000000 00000060H .rsrc$01                DATA
 0006:00000060 00000180H .rsrc$02                DATA

  Address         Publics by Value              Rva+Base               Lib:Object

 0000:00000000       __guard_longjmp_table      0000000000000000     <absolute>
 0000:00000000       __guard_longjmp_count      0000000000000000     <absolute>
 0000:00000000       __guard_iat_table          0000000000000000     <absolute>
 0000:00000000       __guard_iat_count          0000000000000000     <absolute>
 0000:00000000       __dynamic_value_reloc_table 0000000000000000     <absolute>
 0000:00000000       __guard_fids_count         0000000000000000     <absolute>
 0000:00000000       ___safe_se_handler_table   0000000000000000     <absolute>
 0000:00000000       ___safe_se_handler_count   0000000000000000     <absolute>
 0000:00000000       __guard_fids_table         0000000000000000     <absolute>
 0000:00000100       __guard_flags              0000000000000100     <absolute>
 0000:00000000       __ImageBase                0000000180000000     <linker-defined>
 0001:000000a0       ?Set@Nan@@YA?AV?$Maybe@_N@v8@@V?$Local@VObject@v8@@@3@V?$Local@VValue@v8@@@3@1@Z 00000001800010a0 f i njsCommon.obj
 0001:00000130       ?Get@Nan@@YA?AV?$MaybeLocal@VValue@v8@@@v8@@V?$Local@VObject@v8@@@3@V?$Local@VValue@v8@@@3@@Z 0000000180001130 f i njsCommon.obj
 0001:000001c0       ?convert@?$ToFactory@I@imp@Nan@@SA?AV?$Maybe@I@v8@@V?$Local@VValue@v8@@@5@@Z 00000001800011c0 f i njsCommon.obj
 0001:00000240       ?convert@?$ToFactory@H@imp@Nan@@SA?AV?$Maybe@H@v8@@V?$Local@VValue@v8@@@5@@Z 0000000180001240 f i njsCommon.obj
 0001:000002c0       ??1HandleScope@Nan@@QEAA@XZ 00000001800012c0 f i njsCommon.obj
 0001:000002c0       ??1EscapableHandleScope@Nan@@QEAA@XZ 00000001800012c0 f i njsCommon.obj
 0001:000002d0       ?ThrowError@Nan@@YAXPEBD@Z 00000001800012d0 f i njsCommon.obj
 0001:00000370       ??1?$Persistent@VObject@v8@@V?$NonCopyablePersistentTraits@VObject@v8@@@2@@Nan@@QEAA@XZ 0000000180001370 f i njsCommon.obj
 0001:00000370       ??1?$Persistent@VFunction@v8@@V?$NonCopyablePersistentTraits@VFunction@v8@@@2@@Nan@@QEAA@XZ 0000000180001370 f i njsCommon.obj
 0001:00000370       ??1?$Persistent@VArray@v8@@V?$NonCopyablePersistentTraits@VArray@v8@@@2@@Nan@@QEAA@XZ 0000000180001370 f i njsOracle.obj
 0001:00000390       ??0njsBaton@@QEAA@V?$Local@VFunction@v8@@@v8@@V?$Local@VObject@v8@@@2@@Z 0000000180001390 f i njsCommon.obj
 0001:00000610       ??1njsProtoILob@@QEAA@XZ   0000000180001610 f i njsCommon.obj
 0001:00000650       ??1njsVariableBuffer@@QEAA@XZ 0000000180001650 f   njsCommon.obj
 0001:000006c0       ??1njsVariable@@QEAA@XZ    00000001800016c0 f   njsCommon.obj
 0001:000007d0       ?DBType@njsVariable@@QEAA?AW4njsDBType@@XZ 00000001800017d0 f   njsCommon.obj
 0001:000008d0       ??1njsBaton@@QEAA@XZ       00000001800018d0 f   njsCommon.obj
 0001:000009c0       ?CheckJSException@njsBaton@@QEAAXPEAVTryCatch@Nan@@@Z 00000001800019c0 f   njsCommon.obj
 0001:00000b00       ?ClearAsyncData@njsBaton@@QEAAXXZ 0000000180001b00 f   njsCommon.obj
 0001:00000d30       ??1njsFetchInfo@@QEAA@XZ   0000000180001d30 f i njsCommon.obj
 0001:00000d40       ?GetOracledb@njsBaton@@QEAAPEAVnjsOracledb@@XZ 0000000180001d40 f   njsCommon.obj
 0001:00000db0       ?AsyncWorkCallback@njsBaton@@CAXPEAUuv_work_s@@@Z 0000000180001db0 f   njsCommon.obj
 0001:00000dd0       ?AsyncAfterWorkCallback@njsBaton@@CAXPEAUuv_work_s@@H@Z 0000000180001dd0 f   njsCommon.obj
 0001:00001130       ??1TryCatch@Nan@@QEAA@XZ   0000000180002130 f i njsCommon.obj
 0001:00001140       ?GetDPIError@njsBaton@@QEAAXXZ 0000000180002140 f   njsCommon.obj
 0001:00001310       ?SetDPIConnHandle@njsBaton@@QEAAXPEAUdpiConn@@@Z 0000000180002310 f   njsCommon.obj
 0001:00001360       ?SetDPILobHandle@njsBaton@@QEAAXPEAUdpiLob@@@Z 0000000180002360 f   njsCommon.obj
 0001:000013b0       ?GetBoolFromJSON@njsBaton@@QEAA_NV?$Local@VObject@v8@@@v8@@PEBDHPEA_N@Z 00000001800023b0 f   njsCommon.obj
 0001:00001520       ?GetIntFromJSON@njsBaton@@QEAA_NV?$Local@VObject@v8@@@v8@@PEBDHPEAH@Z 0000000180002520 f   njsCommon.obj
 0001:00001700       ?GetPositiveIntFromJSON@njsBaton@@QEAA_NV?$Local@VObject@v8@@@v8@@PEBDHPEAI@Z 0000000180002700 f   njsCommon.obj
 0001:00001810       ?GetStringFromJSON@njsBaton@@QEAA_NV?$Local@VObject@v8@@@v8@@PEBDHAEAV?$basic_string@DU?$char_traits@D@std@@V?$allocator@D@2@@std@@@Z 0000000180002810 f   njsCommon.obj
 0001:00001a60       ?GetUnsignedIntFromJSON@njsBaton@@QEAA_NV?$Local@VObject@v8@@@v8@@PEBDHPEAI@Z 0000000180002a60 f   njsCommon.obj
 0001:00001c30       ?GetNumOutBinds@njsBaton@@QEAAIXZ 0000000180002c30 f   njsCommon.obj
 0001:00001e10       ?QueueWork@njsBaton@@QEAAXPEBDP6AXPEAV1@@ZP6AX1QEAV?$Local@VValue@v8@@@v8@@@ZI@Z 0000000180002e10 f   njsCommon.obj
 0001:00001f50       ?CreateBaton@njsCommon@@IEAAPEAVnjsBaton@@AEBV?$FunctionCallbackInfo@VValue@v8@@@Nan@@@Z 0000000180002f50 f   njsCommon.obj
 0001:00002170       ?GetObjectArg@njsCommon@@IEAA_NAEBV?$FunctionCallbackInfo@VValue@v8@@@Nan@@HAEAV?$Local@VObject@v8@@@v8@@@Z 0000000180003170 f   njsCommon.obj
 0001:000022d0       ?GetStringArg@njsCommon@@IEAA_NAEBV?$FunctionCallbackInfo@VValue@v8@@@Nan@@HAEAV?$basic_string@DU?$char_traits@D@std@@V?$allocator@D@2@@std@@@Z 00000001800032d0 f   njsCommon.obj
 0001:00002500       ?GetUnsignedIntArg@njsCommon@@IEAA_NAEBV?$FunctionCallbackInfo@VValue@v8@@@Nan@@HPEAI@Z 0000000180003500 f   njsCommon.obj
 0001:00002630       ?SetPropBool@njsCommon@@IEAA_NV?$Local@VValue@v8@@@v8@@PEA_NPEBD@Z 0000000180003630 f   njsCommon.obj
 0001:00002730       ?SetPropInt@njsCommon@@IEAA_NV?$Local@VValue@v8@@@v8@@PEAHPEBD@Z 0000000180003730 f   njsCommon.obj
 0001:00002830       ?SetPropPositiveInt@njsCommon@@IEAA_NV?$Local@VValue@v8@@@v8@@PEAIPEBD@Z 0000000180003830 f   njsCommon.obj
 0001:00002920       ?SetPropString@njsCommon@@IEAA_NV?$Local@VValue@v8@@@v8@@PEAV?$basic_string@DU?$char_traits@D@std@@V?$allocator@D@2@@std@@PEBD@Z 0000000180003920 f   njsCommon.obj
 0001:00002ad0       ?SetPropUnsignedInt@njsCommon@@IEAA_NV?$Local@VValue@v8@@@v8@@PEAIPEBD@Z 0000000180003ad0 f   njsCommon.obj
 0001:00002bd0       ?Validate@njsCommon@@KA_NPEAV1@_N@Z 0000000180003bd0 f   njsCommon.obj
 0001:00002e30       ?ValidateArgs@njsCommon@@KAPEAV1@AEBV?$FunctionCallbackInfo@VValue@v8@@@Nan@@HH@Z 0000000180003e30 f   njsCommon.obj
 0001:00003120       ?PropertyIsReadOnly@njsCommon@@KAXPEBD@Z 0000000180004120 f   njsCommon.obj
 0001:000031d0       ??1?$basic_string@DU?$char_traits@D@std@@V?$allocator@D@2@@std@@QEAA@XZ 00000001800041d0 f i njsCommon.obj
 0001:00003260       ??4?$basic_string@DU?$char_traits@D@std@@V?$allocator@D@2@@std@@QEAAAEAV01@$$QEAV01@@Z 0000000180004260 f i njsCommon.obj
 0001:00003310       ?_Tidy@?$basic_string@DU?$char_traits@D@std@@V?$allocator@D@2@@std@@QEAAX_N_K@Z 0000000180004310 f i njsCommon.obj
 0001:000033c0       ?assign@?$basic_string@DU?$char_traits@D@std@@V?$allocator@D@2@@std@@QEAAAEAV12@PEBD_K@Z 00000001800043c0 f i njsCommon.obj
 0001:000034f0       ?assign@?$basic_string@DU?$char_traits@D@std@@V?$allocator@D@2@@std@@QEAAAEAV12@AEBV12@_K1@Z 00000001800044f0 f i njsCommon.obj
 0001:00003620       ?_Assign_rv@?$basic_string@DU?$char_traits@D@std@@V?$allocator@D@2@@std@@QEAAX$$QEAV12@@Z 0000000180004620 f i njsCommon.obj
 0001:000036a0       ?erase@?$basic_string@DU?$char_traits@D@std@@V?$allocator@D@2@@std@@QEAAAEAV12@_K0@Z 00000001800046a0 f i njsCommon.obj
 0001:00003770       ?_Copy@?$basic_string@DU?$char_traits@D@std@@V?$allocator@D@2@@std@@QEAAX_K0@Z 0000000180004770 f i njsCommon.obj
 0001:000038f0       ??$New@VString@v8@@V?$basic_string@DU?$char_traits@D@std@@V?$allocator@D@2@@std@@@Nan@@YA?AV?$MaybeLocal@VString@v8@@@v8@@V?$basic_string@DU?$char_traits@D@std@@V?$allocator@D@2@@std@@@Z 00000001800048f0 f i njsCommon.obj
 0001:000039a0       ??$Unwrap@VnjsConnection@@@ObjectWrap@Nan@@SAPEAVnjsConnection@@V?$Local@VObject@v8@@@v8@@@Z 00000001800049a0 f i njsConnection.obj
 0001:000039a0       ??$Unwrap@VnjsPool@@@ObjectWrap@Nan@@SAPEAVnjsPool@@V?$Local@VObject@v8@@@v8@@@Z 00000001800049a0 f i njsPool.obj
 0001:000039a0       ??$Unwrap@VnjsOracledb@@@ObjectWrap@Nan@@SAPEAVnjsOracledb@@V?$Local@VObject@v8@@@v8@@@Z 00000001800049a0 f i njsCommon.obj
 0001:000039a0       ??$Unwrap@VnjsResultSet@@@ObjectWrap@Nan@@SAPEAVnjsResultSet@@V?$Local@VObject@v8@@@v8@@@Z 00000001800049a0 f i njsResultSet.obj
 0001:000039a0       ??$Unwrap@VnjsILob@@@ObjectWrap@Nan@@SAPEAVnjsILob@@V?$Local@VObject@v8@@@v8@@@Z 00000001800049a0 f i njsIntLob.obj
 0001:000039a0       ??$Unwrap@VnjsCommon@@@ObjectWrap@Nan@@SAPEAVnjsCommon@@V?$Local@VObject@v8@@@v8@@@Z 00000001800049a0 f i njsCommon.obj
 0001:00003a30       __local_stdio_printf_options 0000000180004a30 f i njsOracle.obj
 0001:00003a40       sprintf                    0000000180004a40 f i njsOracle.obj
 0001:00003d30       ?NewInstance@Nan@@YA?AV?$MaybeLocal@VObject@v8@@@v8@@V?$Local@VObjectTemplate@v8@@@3@@Z 0000000180004d30 f i njsOracle.obj
 0001:00003db0       ?Get@Nan@@YA?AV?$MaybeLocal@VValue@v8@@@v8@@V?$Local@VObject@v8@@@3@I@Z 0000000180004db0 f i njsOracle.obj
 0001:00003e50       ?New@?$Factory@VFunctionTemplate@v8@@@imp@Nan@@SA?AV?$Local@VFunctionTemplate@v8@@@v8@@P6AXAEBV?$FunctionCallbackInfo@VValue@v8@@@3@@ZV?$Local@VValue@v8@@@5@V?$Local@VSignature@v8@@@5@@Z 0000000180004e50 f i njsOracle.obj
 0001:00003fe0       ?Error@Nan@@YA?AV?$Local@VValue@v8@@@v8@@PEBD@Z 0000000180004fe0 f i njsOracle.obj
 0001:00004080       ?SetPrototypeMethod@Nan@@YAXV?$Local@VFunctionTemplate@v8@@@v8@@PEBDP6AXAEBV?$FunctionCallbackInfo@VValue@v8@@@1@@Z@Z 0000000180005080 f i njsOracle.obj
 0001:00004190       ?SetAccessor@Nan@@YAXV?$Local@VObjectTemplate@v8@@@v8@@V?$Local@VString@v8@@@3@P6AX1AEBV?$PropertyCallbackInfo@VValue@v8@@@1@@ZP6AX1V?$Local@VValue@v8@@@3@AEBV?$PropertyCallbackInfo@X@1@@Z4W4AccessControl@3@W4PropertyAttribute@3@V?$Local@VAccessorSignature@v8@@@3@@Z 0000000180005190 f i njsOracle.obj
 0001:00004300       ??1ObjectWrap@Nan@@UEAA@XZ 0000000180005300 f i njsOracle.obj
 0001:00004380       ?Wrap@ObjectWrap@Nan@@IEAAXV?$Local@VObject@v8@@@v8@@@Z 0000000180005380 f i njsOracle.obj
 0001:00004450       ?Ref@ObjectWrap@Nan@@MEAAXXZ 0000000180005450 f i njsOracle.obj
 0001:00004490       ?Unref@ObjectWrap@Nan@@MEAAXXZ 0000000180005490 f i njsOracle.obj
 0001:00004540       ?WeakCallback@ObjectWrap@Nan@@CAXAEBV?$WeakCallbackInfo@VObjectWrap@Nan@@@v8@@@Z 0000000180005540 f i njsOracle.obj
 0001:000045d0       ??_GObjectWrap@Nan@@UEAAPEAXI@Z 00000001800055d0 f i njsOracle.obj
 0001:000045d0       ??_EObjectWrap@Nan@@UEAAPEAXI@Z 00000001800055d0 f i * CIL library *:* CIL module *
 0001:00004610       __acrt_uninitialize_command_line 0000000180005610 f i libucrt:argv_data.obj
 0001:00004610       ?IsValid@njsOracledb@@UEBA_NXZ 0000000180005610 f i njsOracle.obj
 0001:00004620       ?GetInvalidErrorType@njsOracledb@@UEBA?AW4njsErrorType@@XZ 0000000180005620 f i njsOracle.obj
 0001:00004630       ??1njsOracledb@@EEAA@XZ    0000000180005630 f i njsOracle.obj
 0001:000046b0       ??_EnjsOracledb@@EEAAPEAXI@Z 00000001800056b0 f i * CIL library *:* CIL module *
 0001:000046b0       ??_GnjsOracledb@@EEAAPEAXI@Z 00000001800056b0 f i njsOracle.obj
 0001:000046f0       ??1njsCommon@@UEAA@XZ      00000001800056f0 f i njsOracle.obj
 0001:00004700       ??0njsOracledb@@AEAA@XZ    0000000180005700 f   njsOracle.obj
 0001:000047f0       ?Init@njsOracledb@@SAXV?$Local@VObject@v8@@@v8@@@Z 00000001800057f0 f   njsOracle.obj
 0001:00005350       ?New@njsOracledb@@CAXAEBV?$FunctionCallbackInfo@VValue@v8@@@Nan@@@Z 0000000180006350 f   njsOracle.obj
 0001:000053e0       ?GetPoolMin@njsOracledb@@CAXV?$Local@VString@v8@@@v8@@AEBV?$PropertyCallbackInfo@VValue@v8@@@Nan@@@Z 00000001800063e0 f   njsOracle.obj
 0001:000053e0       ?GetPoolMax@njsPool@@CAXV?$Local@VString@v8@@@v8@@AEBV?$PropertyCallbackInfo@VValue@v8@@@Nan@@@Z 00000001800063e0 f   njsPool.obj
 0001:00005480       ?SetPoolMin@njsOracledb@@CAXV?$Local@VString@v8@@@v8@@V?$Local@VValue@v8@@@3@AEBV?$PropertyCallbackInfo@X@Nan@@@Z 0000000180006480 f   njsOracle.obj
 0001:000054d0       ?GetPoolMax@njsOracledb@@CAXV?$Local@VString@v8@@@v8@@AEBV?$PropertyCallbackInfo@VValue@v8@@@Nan@@@Z 00000001800064d0 f   njsOracle.obj
 0001:000054d0       ?GetPoolIncrement@njsPool@@CAXV?$Local@VString@v8@@@v8@@AEBV?$PropertyCallbackInfo@VValue@v8@@@Nan@@@Z 00000001800064d0 f   njsPool.obj
 0001:00005570       ?SetPoolMax@njsOracledb@@CAXV?$Local@VString@v8@@@v8@@V?$Local@VValue@v8@@@3@AEBV?$PropertyCallbackInfo@X@Nan@@@Z 0000000180006570 f   njsOracle.obj
 0001:000055c0       ?GetPoolIncrement@njsOracledb@@CAXV?$Local@VString@v8@@@v8@@AEBV?$PropertyCallbackInfo@VValue@v8@@@Nan@@@Z 00000001800065c0 f   njsOracle.obj
 0001:000055c0       ?GetPoolTimeout@njsPool@@CAXV?$Local@VString@v8@@@v8@@AEBV?$PropertyCallbackInfo@VValue@v8@@@Nan@@@Z 00000001800065c0 f   njsPool.obj
 0001:000055c0       ?GetPieceSize@njsILob@@CAXV?$Local@VString@v8@@@v8@@AEBV?$PropertyCallbackInfo@VValue@v8@@@Nan@@@Z 00000001800065c0 f   njsIntLob.obj
 0001:00005660       ?SetPoolIncrement@njsOracledb@@CAXV?$Local@VString@v8@@@v8@@V?$Local@VValue@v8@@@3@AEBV?$PropertyCallbackInfo@X@Nan@@@Z 0000000180006660 f   njsOracle.obj
 0001:000056b0       ?GetPoolPingInterval@njsOracledb@@CAXV?$Local@VString@v8@@@v8@@AEBV?$PropertyCallbackInfo@VValue@v8@@@Nan@@@Z 00000001800066b0 f   njsOracle.obj
 0001:00005710       ?SetPoolPingInterval@njsOracledb@@CAXV?$Local@VString@v8@@@v8@@V?$Local@VValue@v8@@@3@AEBV?$PropertyCallbackInfo@X@Nan@@@Z 0000000180006710 f   njsOracle.obj
 0001:00005760       ?GetPoolTimeout@njsOracledb@@CAXV?$Local@VString@v8@@@v8@@AEBV?$PropertyCallbackInfo@VValue@v8@@@Nan@@@Z 0000000180006760 f   njsOracle.obj
 0001:00005760       ?GetChunkSize@njsILob@@CAXV?$Local@VString@v8@@@v8@@AEBV?$PropertyCallbackInfo@VValue@v8@@@Nan@@@Z 0000000180006760 f   njsIntLob.obj
 0001:00005760       ?GetStmtCacheSize@njsPool@@CAXV?$Local@VString@v8@@@v8@@AEBV?$PropertyCallbackInfo@VValue@v8@@@Nan@@@Z 0000000180006760 f   njsPool.obj
 0001:00005800       ?SetPoolTimeout@njsOracledb@@CAXV?$Local@VString@v8@@@v8@@V?$Local@VValue@v8@@@3@AEBV?$PropertyCallbackInfo@X@Nan@@@Z 0000000180006800 f   njsOracle.obj
 0001:00005850       ?GetMaxRows@njsOracledb@@CAXV?$Local@VString@v8@@@v8@@AEBV?$PropertyCallbackInfo@VValue@v8@@@Nan@@@Z 0000000180006850 f   njsOracle.obj
 0001:000058f0       ?SetMaxRows@njsOracledb@@CAXV?$Local@VString@v8@@@v8@@V?$Local@VValue@v8@@@3@AEBV?$PropertyCallbackInfo@X@Nan@@@Z 00000001800068f0 f   njsOracle.obj
 0001:00005940       ?GetOutFormat@njsOracledb@@CAXV?$Local@VString@v8@@@v8@@AEBV?$PropertyCallbackInfo@VValue@v8@@@Nan@@@Z 0000000180006940 f   njsOracle.obj
 0001:000059e0       ?SetOutFormat@njsOracledb@@CAXV?$Local@VString@v8@@@v8@@V?$Local@VValue@v8@@@3@AEBV?$PropertyCallbackInfo@X@Nan@@@Z 00000001800069e0 f   njsOracle.obj
 0001:00005a30       ?GetStmtCacheSize@njsOracledb@@CAXV?$Local@VString@v8@@@v8@@AEBV?$PropertyCallbackInfo@VValue@v8@@@Nan@@@Z 0000000180006a30 f   njsOracle.obj
 0001:00005ad0       ?SetStmtCacheSize@njsOracledb@@CAXV?$Local@VString@v8@@@v8@@V?$Local@VValue@v8@@@3@AEBV?$PropertyCallbackInfo@X@Nan@@@Z 0000000180006ad0 f   njsOracle.obj
 0001:00005b20       ?GetPoolMin@njsPool@@CAXV?$Local@VString@v8@@@v8@@AEBV?$PropertyCallbackInfo@VValue@v8@@@Nan@@@Z 0000000180006b20 f   njsPool.obj
 0001:00005b20       ?GetFetchArraySize@njsOracledb@@CAXV?$Local@VString@v8@@@v8@@AEBV?$PropertyCallbackInfo@VValue@v8@@@Nan@@@Z 0000000180006b20 f   njsOracle.obj
 0001:00005bc0       ?SetFetchArraySize@njsOracledb@@CAXV?$Local@VString@v8@@@v8@@V?$Local@VValue@v8@@@3@AEBV?$PropertyCallbackInfo@X@Nan@@@Z 0000000180006bc0 f   njsOracle.obj
 0001:00005c10       ?GetAutoCommit@njsOracledb@@CAXV?$Local@VString@v8@@@v8@@AEBV?$PropertyCallbackInfo@VValue@v8@@@Nan@@@Z 0000000180006c10 f   njsOracle.obj
 0001:00005c70       ?SetAutoCommit@njsOracledb@@CAXV?$Local@VString@v8@@@v8@@V?$Local@VValue@v8@@@3@AEBV?$PropertyCallbackInfo@X@Nan@@@Z 0000000180006c70 f   njsOracle.obj
 0001:00005cc0       ?GetExtendedMetaData@njsOracledb@@CAXV?$Local@VString@v8@@@v8@@AEBV?$PropertyCallbackInfo@VValue@v8@@@Nan@@@Z 0000000180006cc0 f   njsOracle.obj
 0001:00005d20       ?SetExtendedMetaData@njsOracledb@@CAXV?$Local@VString@v8@@@v8@@V?$Local@VValue@v8@@@3@AEBV?$PropertyCallbackInfo@X@Nan@@@Z 0000000180006d20 f   njsOracle.obj
 0001:00005d70       ?GetVersion@njsOracledb@@CAXV?$Local@VString@v8@@@v8@@AEBV?$PropertyCallbackInfo@VValue@v8@@@Nan@@@Z 0000000180006d70 f   njsOracle.obj
 0001:00005d90       ?SetVersion@njsOracledb@@CAXV?$Local@VString@v8@@@v8@@V?$Local@VValue@v8@@@3@AEBV?$PropertyCallbackInfo@X@Nan@@@Z 0000000180006d90 f   njsOracle.obj
 0001:00005db0       ?GetVersionString@njsOracledb@@CAXV?$Local@VString@v8@@@v8@@AEBV?$PropertyCallbackInfo@VValue@v8@@@Nan@@@Z 0000000180006db0 f   njsOracle.obj
 0001:00005e20       ?SetVersionString@njsOracledb@@CAXV?$Local@VString@v8@@@v8@@V?$Local@VValue@v8@@@3@AEBV?$PropertyCallbackInfo@X@Nan@@@Z 0000000180006e20 f   njsOracle.obj
 0001:00005e40       ?GetVersionSuffix@njsOracledb@@CAXV?$Local@VString@v8@@@v8@@AEBV?$PropertyCallbackInfo@VValue@v8@@@Nan@@@Z 0000000180006e40 f   njsOracle.obj
 0001:00005ea0       ?SetVersionSuffix@njsOracledb@@CAXV?$Local@VString@v8@@@v8@@V?$Local@VValue@v8@@@3@AEBV?$PropertyCallbackInfo@X@Nan@@@Z 0000000180006ea0 f   njsOracle.obj
 0001:00005ec0       ?GetConnectionClass@njsOracledb@@CAXV?$Local@VString@v8@@@v8@@AEBV?$PropertyCallbackInfo@VValue@v8@@@Nan@@@Z 0000000180006ec0 f   njsOracle.obj
 0001:00005f70       ?SetConnectionClass@njsOracledb@@CAXV?$Local@VString@v8@@@v8@@V?$Local@VValue@v8@@@3@AEBV?$PropertyCallbackInfo@X@Nan@@@Z 0000000180006f70 f   njsOracle.obj
 0001:00005fc0       ?GetEdition@njsOracledb@@CAXV?$Local@VString@v8@@@v8@@AEBV?$PropertyCallbackInfo@VValue@v8@@@Nan@@@Z 0000000180006fc0 f   njsOracle.obj
 0001:00006070       ?SetEdition@njsOracledb@@CAXV?$Local@VString@v8@@@v8@@V?$Local@VValue@v8@@@3@AEBV?$PropertyCallbackInfo@X@Nan@@@Z 0000000180007070 f   njsOracle.obj
 0001:000060c0       ?GetExternalAuth@njsOracledb@@CAXV?$Local@VString@v8@@@v8@@AEBV?$PropertyCallbackInfo@VValue@v8@@@Nan@@@Z 00000001800070c0 f   njsOracle.obj
 0001:00006130       ?SetExternalAuth@njsOracledb@@CAXV?$Local@VString@v8@@@v8@@V?$Local@VValue@v8@@@3@AEBV?$PropertyCallbackInfo@X@Nan@@@Z 0000000180007130 f   njsOracle.obj
 0001:00006180       ?GetLobPrefetchSize@njsOracledb@@CAXV?$Local@VString@v8@@@v8@@AEBV?$PropertyCallbackInfo@VValue@v8@@@Nan@@@Z 0000000180007180 f   njsOracle.obj
 0001:00006220       ?SetLobPrefetchSize@njsOracledb@@CAXV?$Local@VString@v8@@@v8@@V?$Local@VValue@v8@@@3@AEBV?$PropertyCallbackInfo@X@Nan@@@Z 0000000180007220 f   njsOracle.obj
 0001:00006270       ?GetFetchAsString@njsOracledb@@CAXV?$Local@VString@v8@@@v8@@AEBV?$PropertyCallbackInfo@VValue@v8@@@Nan@@@Z 0000000180007270 f   njsOracle.obj
 0001:00006320       ?SetFetchAsString@njsOracledb@@CAXV?$Local@VString@v8@@@v8@@V?$Local@VValue@v8@@@3@AEBV?$PropertyCallbackInfo@X@Nan@@@Z 0000000180007320 f   njsOracle.obj
 0001:00006660       ?GetFetchAsBuffer@njsOracledb@@CAXV?$Local@VString@v8@@@v8@@AEBV?$PropertyCallbackInfo@VValue@v8@@@Nan@@@Z 0000000180007660 f   njsOracle.obj
 0001:00006710       ?SetFetchAsBuffer@njsOracledb@@CAXV?$Local@VString@v8@@@v8@@V?$Local@VValue@v8@@@3@AEBV?$PropertyCallbackInfo@X@Nan@@@Z 0000000180007710 f   njsOracle.obj
 0001:00006a40       ?GetOracleClientVersion@njsOracledb@@CAXV?$Local@VString@v8@@@v8@@AEBV?$PropertyCallbackInfo@VValue@v8@@@Nan@@@Z 0000000180007a40 f   njsOracle.obj
 0001:00006b20       ?SetOracleClientVersion@njsOracledb@@CAXV?$Local@VString@v8@@@v8@@V?$Local@VValue@v8@@@3@AEBV?$PropertyCallbackInfo@X@Nan@@@Z 0000000180007b20 f   njsOracle.obj
 0001:00006b40       ?GetOracleClientVersionString@njsOracledb@@CAXV?$Local@VString@v8@@@v8@@AEBV?$PropertyCallbackInfo@VValue@v8@@@Nan@@@Z 0000000180007b40 f   njsOracle.obj
 0001:00006c50       ?SetOracleClientVersionString@njsOracledb@@CAXV?$Local@VString@v8@@@v8@@V?$Local@VValue@v8@@@3@AEBV?$PropertyCallbackInfo@X@Nan@@@Z 0000000180007c50 f   njsOracle.obj
 0001:00006c70       ?GetEvents@njsOracledb@@CAXV?$Local@VString@v8@@@v8@@AEBV?$PropertyCallbackInfo@VValue@v8@@@Nan@@@Z 0000000180007c70 f   njsOracle.obj
 0001:00006cd0       ?SetEvents@njsOracledb@@CAXV?$Local@VString@v8@@@v8@@V?$Local@VValue@v8@@@3@AEBV?$PropertyCallbackInfo@X@Nan@@@Z 0000000180007cd0 f   njsOracle.obj
 0001:00006d20       ?GetConnection@njsOracledb@@CAXAEBV?$FunctionCallbackInfo@VValue@v8@@@Nan@@@Z 0000000180007d20 f   njsOracle.obj
 0001:00006f80       ?Async_GetConnection@njsOracledb@@CAXPEAVnjsBaton@@@Z 0000000180007f80 f   njsOracle.obj
 0001:00007170       ?Async_AfterGetConnection@njsPool@@CAXPEAVnjsBaton@@QEAV?$Local@VValue@v8@@@v8@@@Z 0000000180008170 f   njsPool.obj
 0001:00007170       ?Async_AfterGetConnection@njsOracledb@@CAXPEAVnjsBaton@@QEAV?$Local@VValue@v8@@@v8@@@Z 0000000180008170 f   njsOracle.obj
 0001:000071a0       ?CreatePool@njsOracledb@@CAXAEBV?$FunctionCallbackInfo@VValue@v8@@@Nan@@@Z 00000001800081a0 f   njsOracle.obj
 0001:00007490       ?Async_CreatePool@njsOracledb@@CAXPEAVnjsBaton@@@Z 0000000180008490 f   njsOracle.obj
 0001:00007660       ?Async_AfterCreatePool@njsOracledb@@CAXPEAVnjsBaton@@QEAV?$Local@VValue@v8@@@v8@@@Z 0000000180008660 f   njsOracle.obj
 0001:00007690       ?SetFetchAsStringTypesOnBaton@njsOracledb@@QEBAXPEAVnjsBaton@@@Z 0000000180008690 f   njsOracle.obj
 0001:000077a0       ?SetFetchAsBufferTypesOnBaton@njsOracledb@@QEBAXPEAVnjsBaton@@@Z 00000001800087a0 f   njsOracle.obj
 0001:000078b0       ?ThrowDPIError@njsOracledb@@SAXXZ 00000001800088b0 f   njsOracle.obj
 0001:00007c30       ?NewInstance@Nan@@YA?AV?$MaybeLocal@VObject@v8@@@v8@@V?$Local@VFunction@v8@@@3@@Z 0000000180008c30 f i njsPool.obj
 0001:00007cb0       ?GetFunction@Nan@@YA?AV?$MaybeLocal@VFunction@v8@@@v8@@V?$Local@VFunctionTemplate@v8@@@3@@Z 0000000180008cb0 f i njsPool.obj
 0001:00007d30       ?IsValid@njsPool@@UEBA_NXZ 0000000180008d30 f i njsPool.obj
 0001:00007d30       ?IsValid@njsILob@@UEBA_NXZ 0000000180008d30 f i njsIntLob.obj
 0001:00007d30       ?IsValid@njsConnection@@UEBA_NXZ 0000000180008d30 f i njsConnection.obj
 0001:00007d40       ?GetInvalidErrorType@njsPool@@UEBA?AW4njsErrorType@@XZ 0000000180008d40 f i njsPool.obj
 0001:00007d50       ??_GnjsPool@@EEAAPEAXI@Z   0000000180008d50 f i njsPool.obj
 0001:00007d50       ??_EnjsPool@@EEAAPEAXI@Z   0000000180008d50 f i * CIL library *:* CIL module *
 0001:00007de0       ?Init@njsPool@@SAXV?$Local@VObject@v8@@@v8@@@Z 0000000180008de0 f   njsPool.obj
 0001:000082a0       ?CreateFromBaton@njsPool@@SA?AV?$Local@VObject@v8@@@v8@@PEAVnjsBaton@@@Z 00000001800092a0 f   njsPool.obj
 0001:00008410       ?New@njsPool@@CAXAEBV?$FunctionCallbackInfo@VValue@v8@@@Nan@@@Z 0000000180009410 f   njsPool.obj
 0001:00008490       ?GetConnectionsOpen@njsPool@@CAXV?$Local@VString@v8@@@v8@@AEBV?$PropertyCallbackInfo@VValue@v8@@@Nan@@@Z 0000000180009490 f   njsPool.obj
 0001:000085b0       ?GetConnectionsInUse@njsPool@@CAXV?$Local@VString@v8@@@v8@@AEBV?$PropertyCallbackInfo@VValue@v8@@@Nan@@@Z 00000001800095b0 f   njsPool.obj
 0001:000086d0       ?GetPoolPingInterval@njsPool@@CAXV?$Local@VString@v8@@@v8@@AEBV?$PropertyCallbackInfo@VValue@v8@@@Nan@@@Z 00000001800096d0 f   njsPool.obj
 0001:00008730       ?SetPoolMin@njsPool@@CAXV?$Local@VString@v8@@@v8@@V?$Local@VValue@v8@@@3@AEBV?$PropertyCallbackInfo@X@Nan@@@Z 0000000180009730 f   njsPool.obj
 0001:00008750       ?SetPoolMax@njsPool@@CAXV?$Local@VString@v8@@@v8@@V?$Local@VValue@v8@@@3@AEBV?$PropertyCallbackInfo@X@Nan@@@Z 0000000180009750 f   njsPool.obj
 0001:00008770       ?SetPoolIncrement@njsPool@@CAXV?$Local@VString@v8@@@v8@@V?$Local@VValue@v8@@@3@AEBV?$PropertyCallbackInfo@X@Nan@@@Z 0000000180009770 f   njsPool.obj
 0001:00008790       ?SetPoolTimeout@njsPool@@CAXV?$Local@VString@v8@@@v8@@V?$Local@VValue@v8@@@3@AEBV?$PropertyCallbackInfo@X@Nan@@@Z 0000000180009790 f   njsPool.obj
 0001:000087b0       ?SetConnectionsOpen@njsPool@@CAXV?$Local@VString@v8@@@v8@@V?$Local@VValue@v8@@@3@AEBV?$PropertyCallbackInfo@X@Nan@@@Z 00000001800097b0 f   njsPool.obj
 0001:000087d0       ?SetConnectionsInUse@njsPool@@CAXV?$Local@VString@v8@@@v8@@V?$Local@VValue@v8@@@3@AEBV?$PropertyCallbackInfo@X@Nan@@@Z 00000001800097d0 f   njsPool.obj
 0001:000087f0       ?SetPoolPingInterval@njsPool@@CAXV?$Local@VString@v8@@@v8@@V?$Local@VValue@v8@@@3@AEBV?$PropertyCallbackInfo@X@Nan@@@Z 00000001800097f0 f   njsPool.obj
 0001:00008810       ?SetStmtCacheSize@njsConnection@@CAXV?$Local@VString@v8@@@v8@@V?$Local@VValue@v8@@@3@AEBV?$PropertyCallbackInfo@X@Nan@@@Z 0000000180009810 f   njsConnection.obj
 0001:00008810       ?SetStmtCacheSize@njsPool@@CAXV?$Local@VString@v8@@@v8@@V?$Local@VValue@v8@@@3@AEBV?$PropertyCallbackInfo@X@Nan@@@Z 0000000180009810 f   njsPool.obj
 0001:00008830       ?GetConnection@njsPool@@CAXAEBV?$FunctionCallbackInfo@VValue@v8@@@Nan@@@Z 0000000180009830 f   njsPool.obj
 0001:00008920       ?Async_GetConnection@njsPool@@CAXPEAVnjsBaton@@@Z 0000000180009920 f   njsPool.obj
 0001:000089b0       ?Close@njsPool@@CAXAEBV?$FunctionCallbackInfo@VValue@v8@@@Nan@@@Z 00000001800099b0 f   njsPool.obj
 0001:00008a30       ?Async_Close@njsPool@@CAXPEAVnjsBaton@@@Z 0000000180009a30 f   njsPool.obj
 0001:00008a80       ??$Reset@VObject@v8@@@?$Persistent@VObject@v8@@V?$NonCopyablePersistentTraits@VObject@v8@@@2@@Nan@@QEAAXAEBV?$PersistentBase@VObject@v8@@@v8@@@Z 0000000180009a80 f i njsPool.obj
 0001:00008ae0       ?Set@Nan@@YA?AV?$Maybe@_N@v8@@V?$Local@VObject@v8@@@3@IV?$Local@VValue@v8@@@3@@Z 0000000180009ae0 f i njsConnection.obj
 0001:00008b70       ?DefineOwnProperty@Nan@@YA?AV?$Maybe@_N@v8@@V?$Local@VObject@v8@@@3@V?$Local@VString@v8@@@3@V?$Local@VValue@v8@@@3@W4PropertyAttribute@3@@Z 0000000180009b70 f i njsConnection.obj
 0001:00008c10       ?convert@?$ToFactory@VInteger@v8@@@imp@Nan@@SA?AV?$MaybeLocal@VInteger@v8@@@v8@@V?$Local@VValue@v8@@@5@@Z 0000000180009c10 f i njsConnection.obj
 0001:00008ca0       ?convert@?$ToFactory@VInt32@v8@@@imp@Nan@@SA?AV?$MaybeLocal@VInt32@v8@@@v8@@V?$Local@VValue@v8@@@5@@Z 0000000180009ca0 f i njsConnection.obj
 0001:00008d30       ?New@?$Factory@VDate@v8@@@imp@Nan@@SA?AV?$MaybeLocal@VDate@v8@@@v8@@N@Z 0000000180009d30 f i njsConnection.obj
 0001:00008dc0       ??0njsVariableBuffer@@QEAA@XZ 0000000180009dc0 f i njsConnection.obj
 0001:00008dd0       ??0njsVariable@@QEAA@XZ    0000000180009dd0 f i njsConnection.obj
 0001:00008e30       ??0njsFetchInfo@@QEAA@XZ   0000000180009e30 f i njsConnection.obj
 0001:00008e50       ?GetInvalidErrorType@njsConnection@@UEBA?AW4njsErrorType@@XZ 0000000180009e50 f i njsConnection.obj
 0001:00008e60       ??_EnjsConnection@@EEAAPEAXI@Z 0000000180009e60 f i * CIL library *:* CIL module *
 0001:00008e60       ??_GnjsConnection@@EEAAPEAXI@Z 0000000180009e60 f i njsConnection.obj
 0001:00008ef0       ??0njsProtoILob@@QEAA@XZ   0000000180009ef0 f i njsConnection.obj
 0001:00008f10       ?Init@njsConnection@@SAXV?$Local@VObject@v8@@@v8@@@Z 0000000180009f10 f   njsConnection.obj
 0001:000093c0       ?CreateFromBaton@njsConnection@@SA?AV?$Local@VObject@v8@@@v8@@PEAVnjsBaton@@@Z 000000018000a3c0 f   njsConnection.obj
 0001:000094f0       ?ProcessQueryVars@njsConnection@@SA_NPEAVnjsBaton@@PEAUdpiStmt@@PEAVnjsVariable@@I@Z 000000018000a4f0 f   njsConnection.obj
 0001:00009820       ?ProcessVars@njsConnection@@SA_NPEAVnjsBaton@@PEAVnjsVariable@@II@Z 000000018000a820 f   njsConnection.obj
 0001:00009a10       ?ProcessVarBuffer@njsConnection@@CA_NPEAVnjsBaton@@PEAVnjsVariable@@PEAVnjsVariableBuffer@@@Z 000000018000aa10 f   njsConnection.obj
 0001:00009c40       ?MapByName@njsConnection@@CA_NPEAVnjsBaton@@PEAUdpiQueryInfo@@AEAW4dpiOracleTypeNum@@@Z 000000018000ac40 f   njsConnection.obj
 0001:00009e40       ?MapByType@njsConnection@@CA_NPEAVnjsBaton@@PEAUdpiQueryInfo@@AEAW4dpiOracleTypeNum@@@Z 000000018000ae40 f   njsConnection.obj
 0001:00009f70       ?PrepareAndBind@njsConnection@@CA_NPEAVnjsBaton@@@Z 000000018000af70 f   njsConnection.obj
 0001:0000a0d0       ?GetMetaData@njsConnection@@SA?AV?$Local@VValue@v8@@@v8@@PEAVnjsVariable@@I_N@Z 000000018000b0d0 f   njsConnection.obj
 0001:0000a660       ?CreateVarBuffer@njsConnection@@CA_NPEAVnjsVariable@@PEAVnjsBaton@@@Z 000000018000b660 f   njsConnection.obj
 0001:0000a990       ?ProcessExecuteBinds@njsConnection@@CA_NV?$Local@VObject@v8@@@v8@@PEAVnjsBaton@@@Z 000000018000b990 f   njsConnection.obj
 0001:0000aa40       ?ScanExecuteBinds@njsConnection@@CA_NV?$Local@VObject@v8@@@v8@@V?$Local@VArray@v8@@@3@PEAVnjsBaton@@@Z 000000018000ba40 f   njsConnection.obj
 0001:0000ae00       ?ScanExecuteBindUnit@njsConnection@@CA_NV?$Local@VObject@v8@@@v8@@PEAVnjsVariable@@_NPEAVnjsBaton@@@Z 000000018000be00 f   njsConnection.obj
 0001:0000b3c0       ?ProcessExecuteManyBinds@njsConnection@@CA_NV?$Local@VArray@v8@@@v8@@V?$Local@VObject@v8@@@3@PEAVnjsBaton@@@Z 000000018000c3c0 f   njsConnection.obj
 0001:0000b690       ?ScanExecuteManyBinds@njsConnection@@CA_NV?$Local@VArray@v8@@@v8@@0PEAVnjsBaton@@@Z 000000018000c690 f   njsConnection.obj
 0001:0000b960       ?TransferExecuteManyBinds@njsConnection@@CA_NV?$Local@VArray@v8@@@v8@@0PEAVnjsBaton@@@Z 000000018000c960 f   njsConnection.obj
 0001:0000bbc0       ?InitBindVars@njsConnection@@CA_NV?$Local@VObject@v8@@@v8@@V?$Local@VArray@v8@@@3@PEAVnjsBaton@@@Z 000000018000cbc0 f   njsConnection.obj
 0001:0000be50       ?ProcessBindValue@njsConnection@@CA_NV?$Local@VValue@v8@@@v8@@PEAVnjsVariable@@PEAVnjsBaton@@@Z 000000018000ce50 f   njsConnection.obj
 0001:0000c040       ?ProcessScalarBindValue@njsConnection@@CA_NV?$Local@VValue@v8@@@v8@@PEAVnjsVariable@@I_NPEAVnjsBaton@@@Z 000000018000d040 f   njsConnection.obj
 0001:0000c650       ?GetBindTypeAndSizeFromValue@njsConnection@@CA_NPEAVnjsVariable@@V?$Local@VValue@v8@@@v8@@PEAW4njsDataType@@PEAIPEAVnjsBaton@@_N@Z 000000018000d650 f   njsConnection.obj
 0001:0000c970       ?ProcessExecuteOptions@njsConnection@@CA_NV?$Local@VObject@v8@@@v8@@PEAVnjsBaton@@@Z 000000018000d970 f   njsConnection.obj
 0001:0000cdf0       ?ProcessExecuteManyOptions@njsConnection@@CA_NV?$Local@VObject@v8@@@v8@@PEAVnjsBaton@@@Z 000000018000ddf0 f   njsConnection.obj
 0001:0000ce90       ?GetScalarValueFromVar@njsConnection@@SA_NPEAVnjsBaton@@PEAVnjsVariable@@PEAVnjsVariableBuffer@@IAEAV?$Local@VValue@v8@@@v8@@@Z 000000018000de90 f   njsConnection.obj
 0001:0000d220       ?GetArrayValueFromVar@njsConnection@@CA_NPEAVnjsBaton@@PEAVnjsVariable@@IAEAV?$Local@VValue@v8@@@v8@@@Z 000000018000e220 f   njsConnection.obj
 0001:0000d330       ?GetExecuteManyOutBinds@njsConnection@@CA_NAEAV?$Local@VValue@v8@@@v8@@IPEAVnjsBaton@@@Z 000000018000e330 f   njsConnection.obj
 0001:0000d420       ?GetOutBinds@njsConnection@@CA_NAEAV?$Local@VValue@v8@@@v8@@IIPEAVnjsBaton@@@Z 000000018000e420 f   njsConnection.obj
 0001:0000d610       ?SetTextAttribute@njsConnection@@CAXAEBV?$PropertyCallbackInfo@X@Nan@@PEBDV?$Local@VValue@v8@@@v8@@P6AHPEAUdpiConn@@1I@Z@Z 000000018000e610 f   njsConnection.obj
 0001:0000d770       ?New@njsConnection@@CAXAEBV?$FunctionCallbackInfo@VValue@v8@@@Nan@@@Z 000000018000e770 f   njsConnection.obj
 0001:0000d7e0       ?Execute@njsConnection@@CAXAEBV?$FunctionCallbackInfo@VValue@v8@@@Nan@@@Z 000000018000e7e0 f   njsConnection.obj
 0001:0000da30       ?Async_Execute@njsConnection@@CAXPEAVnjsBaton@@@Z 000000018000ea30 f   njsConnection.obj
 0001:0000db70       ?Async_AfterExecute@njsConnection@@CAXPEAVnjsBaton@@QEAV?$Local@VValue@v8@@@v8@@@Z 000000018000eb70 f   njsConnection.obj
 0001:0000df50       ?ExecuteMany@njsConnection@@CAXAEBV?$FunctionCallbackInfo@VValue@v8@@@Nan@@@Z 000000018000ef50 f   njsConnection.obj
 0001:0000e180       ?Async_ExecuteMany@njsConnection@@CAXPEAVnjsBaton@@@Z 000000018000f180 f   njsConnection.obj
 0001:0000e2e0       ?Async_AfterExecuteMany@njsConnection@@CAXPEAVnjsBaton@@QEAV?$Local@VValue@v8@@@v8@@@Z 000000018000f2e0 f   njsConnection.obj
 0001:0000e830       ?GetStatementInfo@njsConnection@@CAXAEBV?$FunctionCallbackInfo@VValue@v8@@@Nan@@@Z 000000018000f830 f   njsConnection.obj
 0001:0000e990       ?Async_GetStatementInfo@njsConnection@@CAXPEAVnjsBaton@@@Z 000000018000f990 f   njsConnection.obj
 0001:0000ead0       ?Async_AfterGetStatementInfo@njsConnection@@CAXPEAVnjsBaton@@QEAV?$Local@VValue@v8@@@v8@@@Z 000000018000fad0 f   njsConnection.obj
 0001:0000edb0       ?Close@njsConnection@@CAXAEBV?$FunctionCallbackInfo@VValue@v8@@@Nan@@@Z 000000018000fdb0 f   njsConnection.obj
 0001:0000ee30       ?Async_Close@njsConnection@@CAXPEAVnjsBaton@@@Z 000000018000fe30 f   njsConnection.obj
 0001:0000ee80       ?Commit@njsConnection@@CAXAEBV?$FunctionCallbackInfo@VValue@v8@@@Nan@@@Z 000000018000fe80 f   njsConnection.obj
 0001:0000ef00       ?Async_Commit@njsConnection@@CAXPEAVnjsBaton@@@Z 000000018000ff00 f   njsConnection.obj
 0001:0000ef30       ?Rollback@njsConnection@@CAXAEBV?$FunctionCallbackInfo@VValue@v8@@@Nan@@@Z 000000018000ff30 f   njsConnection.obj
 0001:0000efb0       ?Async_Rollback@njsConnection@@CAXPEAVnjsBaton@@@Z 000000018000ffb0 f   njsConnection.obj
 0001:0000efe0       ?Break@njsConnection@@CAXAEBV?$FunctionCallbackInfo@VValue@v8@@@Nan@@@Z 000000018000ffe0 f   njsConnection.obj
 0001:0000f060       ?Async_Break@njsConnection@@CAXPEAVnjsBaton@@@Z 0000000180010060 f   njsConnection.obj
 0001:0000f090       ?CreateLob@njsConnection@@CAXAEBV?$FunctionCallbackInfo@VValue@v8@@@Nan@@@Z 0000000180010090 f   njsConnection.obj
 0001:0000f1e0       ?Async_CreateLob@njsConnection@@CAXPEAVnjsBaton@@@Z 00000001800101e0 f   njsConnection.obj
 0001:0000f280       ?Async_AfterCreateLob@njsConnection@@CAXPEAVnjsBaton@@QEAV?$Local@VValue@v8@@@v8@@@Z 0000000180010280 f   njsConnection.obj
 0001:0000f3c0       ?ChangePassword@njsConnection@@CAXAEBV?$FunctionCallbackInfo@VValue@v8@@@Nan@@@Z 00000001800103c0 f   njsConnection.obj
 0001:0000f680       ?Async_ChangePassword@njsConnection@@CAXPEAVnjsBaton@@@Z 0000000180010680 f   njsConnection.obj
 0001:0000f700       ?Ping@njsConnection@@CAXAEBV?$FunctionCallbackInfo@VValue@v8@@@Nan@@@Z 0000000180010700 f   njsConnection.obj
 0001:0000f780       ?Async_Ping@njsConnection@@CAXPEAVnjsBaton@@@Z 0000000180010780 f   njsConnection.obj
 0001:0000f7b0       ?GetStmtCacheSize@njsConnection@@CAXV?$Local@VString@v8@@@v8@@AEBV?$PropertyCallbackInfo@VValue@v8@@@Nan@@@Z 00000001800107b0 f   njsConnection.obj
 0001:0000f8c0       ?GetClientId@njsConnection@@CAXV?$Local@VString@v8@@@v8@@AEBV?$PropertyCallbackInfo@VValue@v8@@@Nan@@@Z 00000001800108c0 f   njsConnection.obj
 0001:0000f8c0       ?GetAction@njsConnection@@CAXV?$Local@VString@v8@@@v8@@AEBV?$PropertyCallbackInfo@VValue@v8@@@Nan@@@Z 00000001800108c0 f   njsConnection.obj
 0001:0000f8c0       ?GetModule@njsConnection@@CAXV?$Local@VString@v8@@@v8@@AEBV?$PropertyCallbackInfo@VValue@v8@@@Nan@@@Z 00000001800108c0 f   njsConnection.obj
 0001:0000f8e0       ?SetClientId@njsConnection@@CAXV?$Local@VString@v8@@@v8@@V?$Local@VValue@v8@@@3@AEBV?$PropertyCallbackInfo@X@Nan@@@Z 00000001800108e0 f   njsConnection.obj
 0001:0000f910       ?SetModule@njsConnection@@CAXV?$Local@VString@v8@@@v8@@V?$Local@VValue@v8@@@3@AEBV?$PropertyCallbackInfo@X@Nan@@@Z 0000000180010910 f   njsConnection.obj
 0001:0000f940       ?SetAction@njsConnection@@CAXV?$Local@VString@v8@@@v8@@V?$Local@VValue@v8@@@3@AEBV?$PropertyCallbackInfo@X@Nan@@@Z 0000000180010940 f   njsConnection.obj
 0001:0000f970       ?GetOracleServerVersion@njsConnection@@CAXV?$Local@VString@v8@@@v8@@AEBV?$PropertyCallbackInfo@VValue@v8@@@Nan@@@Z 0000000180010970 f   njsConnection.obj
 0001:0000fab0       ?SetOracleServerVersion@njsConnection@@CAXV?$Local@VString@v8@@@v8@@V?$Local@VValue@v8@@@3@AEBV?$PropertyCallbackInfo@X@Nan@@@Z 0000000180010ab0 f   njsConnection.obj
 0001:0000fad0       ?GetOracleServerVersionString@njsConnection@@CAXV?$Local@VString@v8@@@v8@@AEBV?$PropertyCallbackInfo@VValue@v8@@@Nan@@@Z 0000000180010ad0 f   njsConnection.obj
 0001:0000fc30       ?SetOracleServerVersionString@njsConnection@@CAXV?$Local@VString@v8@@@v8@@V?$Local@VValue@v8@@@3@AEBV?$PropertyCallbackInfo@X@Nan@@@Z 0000000180010c30 f   njsConnection.obj
 0001:0000fc50       ?append@?$basic_string@DU?$char_traits@D@std@@V?$allocator@D@2@@std@@QEAAAEAV12@PEBD_K@Z 0000000180010c50 f i njsConnection.obj
 0001:0000fe60       ??$?HDU?$char_traits@D@std@@V?$allocator@D@1@@std@@YA?AV?$basic_string@DU?$char_traits@D@std@@V?$allocator@D@2@@0@PEBDAEBV10@@Z 0000000180010e60 f i njsConnection.obj
 0001:00010020       ?GetInvalidErrorType@njsResultSet@@UEBA?AW4njsErrorType@@XZ 0000000180011020 f i njsResultSet.obj
 0001:00010030       ??_GnjsResultSet@@EEAAPEAXI@Z 0000000180011030 f i njsResultSet.obj
 0001:00010030       ??_EnjsResultSet@@EEAAPEAXI@Z 0000000180011030 f i * CIL library *:* CIL module *
 0001:00010070       ??1njsResultSet@@EEAA@XZ   0000000180011070 f   njsResultSet.obj
 0001:00010130       ?Init@njsResultSet@@SAXV?$Local@VObject@v8@@@v8@@@Z 0000000180011130 f   njsResultSet.obj
 0001:00010310       ?CreateFromBaton@njsResultSet@@SA?AV?$Local@VObject@v8@@@v8@@PEAVnjsBaton@@@Z 0000000180011310 f   njsResultSet.obj
 0001:000104c0       ?CreateFromRefCursor@njsResultSet@@SA_NPEAVnjsBaton@@PEAUdpiStmt@@PEAVnjsVariable@@IAEAV?$Local@VValue@v8@@@v8@@@Z 00000001800114c0 f   njsResultSet.obj
 0001:00010680       ?IsValid@njsResultSet@@UEBA_NXZ 0000000180011680 f   njsResultSet.obj
 0001:00010710       ?New@njsResultSet@@CAXAEBV?$FunctionCallbackInfo@VValue@v8@@@Nan@@@Z 0000000180011710 f   njsResultSet.obj
 0001:00010790       ?GetMetaData@njsResultSet@@CAXV?$Local@VString@v8@@@v8@@AEBV?$PropertyCallbackInfo@VValue@v8@@@Nan@@@Z 0000000180011790 f   njsResultSet.obj
 0001:00010860       ?SetMetaData@njsResultSet@@CAXV?$Local@VString@v8@@@v8@@V?$Local@VValue@v8@@@3@AEBV?$PropertyCallbackInfo@X@Nan@@@Z 0000000180011860 f   njsResultSet.obj
 0001:00010880       ?GetRows@njsResultSet@@CAXAEBV?$FunctionCallbackInfo@VValue@v8@@@Nan@@@Z 0000000180011880 f   njsResultSet.obj
 0001:00010a20       ?GetRowsHelper@njsResultSet@@AEAA_NPEAVnjsBaton@@PEAH@Z 0000000180011a20 f   njsResultSet.obj
 0001:00010ba0       ?Async_GetRows@njsResultSet@@CAXPEAVnjsBaton@@@Z 0000000180011ba0 f   njsResultSet.obj
 0001:00010c00       ?Async_AfterGetRows@njsResultSet@@CAXPEAVnjsBaton@@QEAV?$Local@VValue@v8@@@v8@@@Z 0000000180011c00 f   njsResultSet.obj
 0001:00010e60       ?Close@njsResultSet@@CAXAEBV?$FunctionCallbackInfo@VValue@v8@@@Nan@@@Z 0000000180011e60 f   njsResultSet.obj
 0001:00010f90       ?Async_Close@njsResultSet@@CAXPEAVnjsBaton@@@Z 0000000180011f90 f   njsResultSet.obj
 0001:00010fe0       ?Async_AfterClose@njsResultSet@@CAXPEAVnjsBaton@@QEAV?$Local@VValue@v8@@@v8@@@Z 0000000180011fe0 f   njsResultSet.obj
 0001:00011050       ?Get@njsMessages@@SA?AV?$basic_string@DU?$char_traits@D@std@@V?$allocator@D@2@@std@@HZZ 0000000180012050 f   njsMessages.obj
 0001:00011150       ?GetInvalidErrorType@njsILob@@UEBA?AW4njsErrorType@@XZ 0000000180012150 f i njsIntLob.obj
 0001:00011160       ??_EnjsILob@@EEAAPEAXI@Z   0000000180012160 f i * CIL library *:* CIL module *
 0001:00011160       ??_GnjsILob@@EEAAPEAXI@Z   0000000180012160 f i njsIntLob.obj
 0001:000111f0       ?Init@njsILob@@SAXV?$Local@VObject@v8@@@v8@@@Z 00000001800121f0 f   njsIntLob.obj
 0001:00011660       ?CreateFromProtoLob@njsILob@@SA?AV?$Local@VObject@v8@@@v8@@PEAVnjsProtoILob@@@Z 0000000180012660 f   njsIntLob.obj
 0001:00011770       ?GetInstance@njsILob@@SAPEAV1@V?$Local@VValue@v8@@@v8@@@Z 0000000180012770 f   njsIntLob.obj
 0001:00011890       ?New@njsILob@@CAXAEBV?$FunctionCallbackInfo@VValue@v8@@@Nan@@@Z 0000000180012890 f   njsIntLob.obj
 0001:00011910       ?SetChunkSize@njsILob@@CAXV?$Local@VString@v8@@@v8@@V?$Local@VValue@v8@@@3@AEBV?$PropertyCallbackInfo@X@Nan@@@Z 0000000180012910 f   njsIntLob.obj
 0001:00011930       ?GetLength@njsILob@@CAXV?$Local@VString@v8@@@v8@@AEBV?$PropertyCallbackInfo@VValue@v8@@@Nan@@@Z 0000000180012930 f   njsIntLob.obj
 0001:000119c0       ?SetLength@njsILob@@CAXV?$Local@VString@v8@@@v8@@V?$Local@VValue@v8@@@3@AEBV?$PropertyCallbackInfo@X@Nan@@@Z 00000001800129c0 f   njsIntLob.obj
 0001:000119e0       ?SetPieceSize@njsILob@@CAXV?$Local@VString@v8@@@v8@@V?$Local@VValue@v8@@@3@AEBV?$PropertyCallbackInfo@X@Nan@@@Z 00000001800129e0 f   njsIntLob.obj
 0001:00011a40       ?GetOffset@njsILob@@CAXV?$Local@VString@v8@@@v8@@AEBV?$PropertyCallbackInfo@VValue@v8@@@Nan@@@Z 0000000180012a40 f   njsIntLob.obj
 0001:00011ae0       ?SetOffset@njsILob@@CAXV?$Local@VString@v8@@@v8@@V?$Local@VValue@v8@@@3@AEBV?$PropertyCallbackInfo@X@Nan@@@Z 0000000180012ae0 f   njsIntLob.obj
 0001:00011b40       ?GetType@njsILob@@CAXV?$Local@VString@v8@@@v8@@AEBV?$PropertyCallbackInfo@VValue@v8@@@Nan@@@Z 0000000180012b40 f   njsIntLob.obj
 0001:00011ba0       ?SetType@njsILob@@CAXV?$Local@VString@v8@@@v8@@V?$Local@VValue@v8@@@3@AEBV?$PropertyCallbackInfo@X@Nan@@@Z 0000000180012ba0 f   njsIntLob.obj
 0001:00011bc0       ?GetIsAutoClose@njsILob@@CAXV?$Local@VString@v8@@@v8@@AEBV?$PropertyCallbackInfo@VValue@v8@@@Nan@@@Z 0000000180012bc0 f   njsIntLob.obj
 0001:00011c20       ?SetIsAutoClose@njsILob@@CAXV?$Local@VString@v8@@@v8@@V?$Local@VValue@v8@@@3@AEBV?$PropertyCallbackInfo@X@Nan@@@Z 0000000180012c20 f   njsIntLob.obj
 0001:00011c40       ?GetIsValid@njsILob@@CAXV?$Local@VString@v8@@@v8@@AEBV?$PropertyCallbackInfo@VValue@v8@@@Nan@@@Z 0000000180012c40 f   njsIntLob.obj
 0001:00011d40       ?SetIsValid@njsILob@@CAXV?$Local@VString@v8@@@v8@@V?$Local@VValue@v8@@@3@AEBV?$PropertyCallbackInfo@X@Nan@@@Z 0000000180012d40 f   njsIntLob.obj
 0001:00011d60       ?Read@njsILob@@CAXAEBV?$FunctionCallbackInfo@VValue@v8@@@Nan@@@Z 0000000180012d60 f   njsIntLob.obj
 0001:00011f10       ?Async_Read@njsILob@@CAXPEAVnjsBaton@@@Z 0000000180012f10 f   njsIntLob.obj
 0001:00011fb0       ?Close@njsILob@@CAXAEBV?$FunctionCallbackInfo@VValue@v8@@@Nan@@@Z 0000000180012fb0 f   njsIntLob.obj
 0001:000120d0       ?Async_Close@njsILob@@CAXPEAVnjsBaton@@@Z 00000001800130d0 f   njsIntLob.obj
 0001:00012120       ?Async_AfterRead@njsILob@@CAXPEAVnjsBaton@@QEAV?$Local@VValue@v8@@@v8@@@Z 0000000180013120 f   njsIntLob.obj
 0001:00012290       ?Write@njsILob@@CAXAEBV?$FunctionCallbackInfo@VValue@v8@@@Nan@@@Z 0000000180013290 f   njsIntLob.obj
 0001:00012450       ?Async_Write@njsILob@@CAXPEAVnjsBaton@@@Z 0000000180013450 f   njsIntLob.obj
 0001:000124c0       ?Async_AfterWrite@njsILob@@CAXPEAVnjsBaton@@QEAV?$Local@VValue@v8@@@v8@@@Z 00000001800134c0 f   njsIntLob.obj
 0001:00012950       dpiConn__create            0000000180013950 f   dpiConn.obj
 0001:00012e30       dpiConn__free              0000000180013e30 f   dpiConn.obj
 0001:00014320       dpiConn_breakExecution     0000000180015320 f   dpiConn.obj
 0001:000144b0       dpiConn_changePassword     00000001800154b0 f   dpiConn.obj
 0001:000146e0       dpiConn_close              00000001800156e0 f   dpiConn.obj
 0001:000148c0       dpiConn_commit             00000001800158c0 f   dpiConn.obj
 0001:00014ac0       dpiConn_create             0000000180015ac0 f   dpiConn.obj
 0001:00015040       dpiConn_getServerVersion   0000000180016040 f   dpiConn.obj
 0001:00015260       dpiConn_getStmtCacheSize   0000000180016260 f   dpiConn.obj
 0001:000154b0       dpiConn_newTempLob         00000001800164b0 f   dpiConn.obj
 0001:00015750       dpiConn_newVar             0000000180016750 f   dpiConn.obj
 0001:00015990       dpiConn_ping               0000000180016990 f   dpiConn.obj
 0001:00015b20       dpiConn_prepareStmt        0000000180016b20 f   dpiConn.obj
 0001:00015d60       dpiConn_rollback           0000000180016d60 f   dpiConn.obj
 0001:00015ef0       dpiConn_setAction          0000000180016ef0 f   dpiConn.obj
 0001:00015f20       dpiConn_setClientIdentifier 0000000180016f20 f   dpiConn.obj
 0001:00015f50       dpiConn_setModule          0000000180016f50 f   dpiConn.obj
 0001:00015f80       dpiConn_setStmtCacheSize   0000000180016f80 f   dpiConn.obj
 0001:00016230       dpiContext_getClientVersion 0000000180017230 f   dpiContext.obj
 0001:00016470       dpiContext_initCommonCreateParams 0000000180017470 f   dpiContext.obj
 0001:000166b0       dpiContext_initConnCreateParams 00000001800176b0 f   dpiContext.obj
 0001:000168f0       dpiContext_initPoolCreateParams 00000001800178f0 f   dpiContext.obj
 0001:00016b60       dpiDataBuffer__fromOracleNumberAsText 0000000180017b60 f   dpiData.obj
 0001:00016ed0       dpiDataBuffer__fromOracleTimestamp 0000000180017ed0 f   dpiData.obj
 0001:00016f90       dpiDataBuffer__fromOracleTimestampAsDouble 0000000180017f90 f   dpiData.obj
 0001:00017200       dpiDataBuffer__toOracleNumberFromDouble 0000000180018200 f   dpiData.obj
 0001:00017270       dpiDataBuffer__toOracleNumberFromText 0000000180018270 f   dpiData.obj
 0001:00017450       dpiDataBuffer__toOracleTimestamp 0000000180018450 f   dpiData.obj
 0001:00017540       dpiDataBuffer__toOracleTimestampFromDouble 0000000180018540 f   dpiData.obj
 0001:000178d0       dpiDebug__initialize       00000001800188d0 f   dpiDebug.obj
 0001:00017990       dpiDebug__print            0000000180018990 f   dpiDebug.obj
 0001:00017a10       dpiDeqOptions__free        0000000180018a10 f   dpiDeqOptions.obj
 0001:00017a90       dpiEnqOptions__free        0000000180018a90 f   dpiEnqOptions.obj
 0001:00017b10       dpiEnv__free               0000000180018b10 f   dpiEnv.obj
 0001:00017c20       dpiEnv__init               0000000180018c20 f   dpiEnv.obj
 0001:00017f20       dpiEnv__initError          0000000180018f20 f   dpiEnv.obj
 0001:00017fa0       dpiError__check            0000000180018fa0 f   dpiError.obj
 0001:00018250       dpiError__getInfo          0000000180019250 f   dpiError.obj
 0001:00018390       dpiError__set              0000000180019390 f   dpiError.obj
 0001:000184b0       dpiGen__addRef             00000001800194b0 f   dpiGen.obj
 0001:000186d0       dpiGen__allocate           00000001800196d0 f   dpiGen.obj
 0001:00018830       dpiGen__endPublicFn        0000000180019830 f   dpiGen.obj
 0001:000188d0       dpiGen__release            00000001800198d0 f   dpiGen.obj
 0001:00018b00       dpiGen__setRefCount        0000000180019b00 f   dpiGen.obj
 0001:00018bb0       dpiGen__startPublicFn      0000000180019bb0 f   dpiGen.obj
 0001:00018ec0       dpiGlobal__initError       0000000180019ec0 f   dpiGlobal.obj
 0001:00019100       dpiGlobal__lookupCharSet   000000018001a100 f   dpiGlobal.obj
 0001:00019280       dpiGlobal__lookupEncoding  000000018001a280 f   dpiGlobal.obj
 0001:00019390       dpiHandleList__addHandle   000000018001a390 f   dpiHandleList.obj
 0001:00019510       dpiHandleList__create      000000018001a510 f   dpiHandleList.obj
 0001:00019640       dpiHandleList__free        000000018001a640 f   dpiHandleList.obj
 0001:00019640       dpiHandlePool__free        000000018001a640 f   dpiHandlePool.obj
 0001:000196b0       dpiHandlePool__acquire     000000018001a6b0 f   dpiHandlePool.obj
 0001:000197f0       dpiHandlePool__create      000000018001a7f0 f   dpiHandlePool.obj
 0001:00019920       dpiLob__allocate           000000018001a920 f   dpiLob.obj
 0001:00019a10       dpiLob__close              000000018001aa10 f   dpiLob.obj
 0001:00019b90       dpiLob__free               000000018001ab90 f   dpiLob.obj
 0001:00019c00       dpiLob__readBytes          000000018001ac00 f   dpiLob.obj
 0001:00019d10       dpiLob_close               000000018001ad10 f   dpiLob.obj
 0001:00019ec0       dpiLob_copy                000000018001aec0 f   dpiLob.obj
 0001:0001a1e0       dpiLob_getBufferSize       000000018001b1e0 f   dpiLob.obj
 0001:0001a440       dpiLob_getChunkSize        000000018001b440 f   dpiLob.obj
 0001:0001a680       dpiLob_getSize             000000018001b680 f   dpiLob.obj
 0001:0001a8c0       dpiLob_readBytes           000000018001b8c0 f   dpiLob.obj
 0001:0001aae0       dpiLob_writeBytes          000000018001bae0 f   dpiLob.obj
 0001:0001ad20       dpiMsgProps__free          000000018001bd20 f   dpiMsgProps.obj
 0001:0001add0       dpiObjectAttr__free        000000018001bdd0 f   dpiObjectAttr.obj
 0001:0001ae80       dpiObject__allocate        000000018001be80 f   dpiObject.obj
 0001:0001af50       dpiObject__free            000000018001bf50 f   dpiObject.obj
 0001:0001aff0       dpiObjectType__allocate    000000018001bff0 f   dpiObjectType.obj
 0001:0001b240       dpiObjectType__free        000000018001c240 f   dpiObjectType.obj
 0001:0001b4f0       snprintf                   000000018001c4f0 f i dpiOci.obj
 0001:0001b590       dpiOci__arrayDescriptorAlloc 000000018001c590 f   dpiOci.obj
 0001:0001b670       dpiOci__arrayDescriptorFree 000000018001c670 f   dpiOci.obj
 0001:0001b730       dpiOci__bindByName         000000018001c730 f   dpiOci.obj
 0001:0001b900       dpiOci__bindByName2        000000018001c900 f   dpiOci.obj
 0001:0001bad0       dpiOci__bindByPos          000000018001cad0 f   dpiOci.obj
 0001:0001bc80       dpiOci__bindByPos2         000000018001cc80 f   dpiOci.obj
 0001:0001be30       dpiOci__bindDynamic        000000018001ce30 f   dpiOci.obj
 0001:0001bf10       dpiOci__bindObject         000000018001cf10 f   dpiOci.obj
 0001:0001c000       dpiOci__contextGetValue    000000018001d000 f   dpiOci.obj
 0001:0001c100       dpiOci__contextSetValue    000000018001d100 f   dpiOci.obj
 0001:0001c200       dpiOci__dateTimeConstruct  000000018001d200 f   dpiOci.obj
 0001:0001c340       dpiOci__dateTimeGetDate    000000018001d340 f   dpiOci.obj
 0001:0001c430       dpiOci__dateTimeGetTime    000000018001d430 f   dpiOci.obj
 0001:0001c530       dpiOci__dateTimeGetTimeZoneOffset 000000018001d530 f   dpiOci.obj
 0001:0001c610       dpiOci__dateTimeIntervalAdd 000000018001d610 f   dpiOci.obj
 0001:0001c6f0       dpiOci__dateTimeSubtract   000000018001d6f0 f   dpiOci.obj
 0001:0001c7d0       dpiOci__defineByPos        000000018001d7d0 f   dpiOci.obj
 0001:0001c940       dpiOci__defineByPos2       000000018001d940 f   dpiOci.obj
 0001:0001cab0       dpiOci__defineObject       000000018001dab0 f   dpiOci.obj
 0001:0001cba0       dpiOci__describeAny        000000018001dba0 f   dpiOci.obj
 0001:0001cc90       dpiOci__descriptorAlloc    000000018001dc90 f   dpiOci.obj
 0001:0001cd70       dpiOci__descriptorFree     000000018001dd70 f   dpiOci.obj
 0001:0001ce30       dpiOci__envNlsCreate       000000018001de30 f   dpiOci.obj
 0001:0001cfa0       dpiOci__errorGet           000000018001dfa0 f   dpiOci.obj
 0001:0001d1d0       dpiOci__handleAlloc        000000018001e1d0 f   dpiOci.obj
 0001:0001d2d0       dpiOci__handleFree         000000018001e2d0 f   dpiOci.obj
 0001:0001d390       dpiOci__intervalGetDaySecond 000000018001e390 f   dpiOci.obj
 0001:0001d4a0       dpiOci__intervalGetYearMonth 000000018001e4a0 f   dpiOci.obj
 0001:0001d580       dpiOci__intervalSetDaySecond 000000018001e580 f   dpiOci.obj
 0001:0001d680       dpiOci__intervalSetYearMonth 000000018001e680 f   dpiOci.obj
 0001:0001df70       dpiOci__lobClose           000000018001ef70 f   dpiOci.obj
 0001:0001e030       dpiOci__lobCreateTemporary 000000018001f030 f   dpiOci.obj
 0001:0001e120       dpiOci__lobFreeTemporary   000000018001f120 f   dpiOci.obj
 0001:0001e210       dpiOci__lobGetChunkSize    000000018001f210 f   dpiOci.obj
 0001:0001e2e0       dpiOci__lobGetLength2      000000018001f2e0 f   dpiOci.obj
 0001:0001e3b0       dpiOci__lobIsOpen          000000018001f3b0 f   dpiOci.obj
 0001:0001e480       dpiOci__lobIsTemporary     000000018001f480 f   dpiOci.obj
 0001:0001e560       dpiOci__lobOpen            000000018001f560 f   dpiOci.obj
 0001:0001e630       dpiOci__lobRead2           000000018001f630 f   dpiOci.obj
 0001:0001e780       dpiOci__lobTrim2           000000018001f780 f   dpiOci.obj
 0001:0001e860       dpiOci__lobWrite2          000000018001f860 f   dpiOci.obj
 0001:0001e9c0       dpiOci__memoryAlloc        000000018001f9c0 f   dpiOci.obj
 0001:0001eab0       dpiOci__memoryFree         000000018001fab0 f   dpiOci.obj
 0001:0001eb70       dpiOci__nlsCharSetConvert  000000018001fb70 f   dpiOci.obj
 0001:0001ec80       dpiOci__nlsCharSetIdToName 000000018001fc80 f   dpiOci.obj
 0001:0001ed50       dpiOci__nlsCharSetNameToId 000000018001fd50 f   dpiOci.obj
 0001:0001ee10       dpiOci__nlsEnvironmentVariableGet 000000018001fe10 f   dpiOci.obj
 0001:0001ef00       dpiOci__nlsNameMap         000000018001ff00 f   dpiOci.obj
 0001:0001efd0       dpiOci__nlsNumericInfoGet  000000018001ffd0 f   dpiOci.obj
 0001:0001f0a0       dpiOci__numberFromInt      00000001800200a0 f   dpiOci.obj
 0001:0001f180       dpiOci__numberFromReal     0000000180020180 f   dpiOci.obj
 0001:0001f250       dpiOci__numberToInt        0000000180020250 f   dpiOci.obj
 0001:0001f330       dpiOci__numberToReal       0000000180020330 f   dpiOci.obj
 0001:0001f400       dpiOci__objectFree         0000000180020400 f   dpiOci.obj
 0001:0001f4d0       dpiOci__objectGetInd       00000001800204d0 f   dpiOci.obj
 0001:0001f5a0       dpiOci__objectNew          00000001800205a0 f   dpiOci.obj
 0001:0001f6a0       dpiOci__objectPin          00000001800206a0 f   dpiOci.obj
 0001:0001f790       dpiOci__passwordChange     0000000180020790 f   dpiOci.obj
 0001:0001f8b0       dpiOci__ping               00000001800208b0 f   dpiOci.obj
 0001:0001fa00       dpiOci__serverAttach       0000000180020a00 f   dpiOci.obj
 0001:0001fae0       dpiOci__serverDetach       0000000180020ae0 f   dpiOci.obj
 0001:0001fbc0       dpiOci__sessionBegin       0000000180020bc0 f   dpiOci.obj
 0001:0001fc90       dpiOci__sessionEnd         0000000180020c90 f   dpiOci.obj
 0001:0001fd70       dpiOci__sessionGet         0000000180020d70 f   dpiOci.obj
 0001:0001feb0       dpiOci__sessionPoolCreate  0000000180020eb0 f   dpiOci.obj
 0001:00020010       dpiOci__sessionRelease     0000000180021010 f   dpiOci.obj
 0001:00020100       dpiOci__shardingKeyColumnAdd 0000000180021100 f   dpiOci.obj
 0001:000201f0       dpiOci__stmtExecute        00000001800211f0 f   dpiOci.obj
 0001:000202e0       dpiOci__stmtFetch2         00000001800212e0 f   dpiOci.obj
 0001:000203f0       dpiOci__stmtPrepare2       00000001800213f0 f   dpiOci.obj
 0001:00020510       dpiOci__stmtRelease        0000000180021510 f   dpiOci.obj
 0001:00020610       dpiOci__subscriptionUnRegister 0000000180021610 f   dpiOci.obj
 0001:000206d0       dpiOci__threadKeyDestroy   00000001800216d0 f   dpiOci.obj
 0001:00020790       dpiOci__threadKeyInit      0000000180021790 f   dpiOci.obj
 0001:00020860       dpiOci__threadKeySet       0000000180021860 f   dpiOci.obj
 0001:00020950       dpiOci__transCommit        0000000180021950 f   dpiOci.obj
 0001:00020a20       dpiOci__transRollback      0000000180021a20 f   dpiOci.obj
 0001:00020d30       dpiOracleType__getFromNum  0000000180021d30 f   dpiOracleType.obj
 0001:00020d80       dpiOracleType__populateTypeInfo 0000000180021d80 f   dpiOracleType.obj
 0001:00021100       dpiPool__acquireConnection 0000000180022100 f   dpiPool.obj
 0001:00021520       dpiPool__free              0000000180022520 f   dpiPool.obj
 0001:00021a60       dpiPool_acquireConnection  0000000180022a60 f   dpiPool.obj
 0001:00021c30       dpiPool_close              0000000180022c30 f   dpiPool.obj
 0001:00021eb0       dpiPool_create             0000000180022eb0 f   dpiPool.obj
 0001:00022270       dpiRowid__allocate         0000000180023270 f   dpiRowid.obj
 0001:00022360       dpiRowid__free             0000000180023360 f   dpiRowid.obj
 0001:000223f0       dpiRowid_getStringValue    00000001800233f0 f   dpiRowid.obj
 0001:00022f30       dpiStmt__close             0000000180023f30 f   dpiStmt.obj
 0001:000238e0       dpiStmt__free              00000001800248e0 f   dpiStmt.obj
 0001:00023f30       dpiStmt__init              0000000180024f30 f   dpiStmt.obj
 0001:00024230       dpiStmt__prepare           0000000180025230 f   dpiStmt.obj
 0001:000244a0       dpiStmt_bindByName         00000001800254a0 f   dpiStmt.obj
 0001:000246f0       dpiStmt_bindByPos          00000001800256f0 f   dpiStmt.obj
 0001:00024970       dpiStmt_close              0000000180025970 f   dpiStmt.obj
 0001:00024b40       dpiStmt_define             0000000180025b40 f   dpiStmt.obj
 0001:00024d30       dpiStmt_execute            0000000180025d30 f   dpiStmt.obj
 0001:00024f70       dpiStmt_executeMany        0000000180025f70 f   dpiStmt.obj
 0001:000252b0       dpiStmt_fetchRows          00000001800262b0 f   dpiStmt.obj
 0001:00025560       dpiStmt_getBatchErrorCount 0000000180026560 f   dpiStmt.obj
 0001:000257a0       dpiStmt_getBatchErrors     00000001800267a0 f   dpiStmt.obj
 0001:00025a50       dpiStmt_getBindCount       0000000180026a50 f   dpiStmt.obj
 0001:00025cd0       dpiStmt_getBindNames       0000000180026cd0 f   dpiStmt.obj
 0001:00026110       dpiStmt_getInfo            0000000180027110 f   dpiStmt.obj
 0001:000263b0       dpiStmt_getNumQueryColumns 00000001800273b0 f   dpiStmt.obj
 0001:00026630       dpiStmt_getQueryInfo       0000000180027630 f   dpiStmt.obj
 0001:00026890       dpiStmt_getRowCount        0000000180027890 f   dpiStmt.obj
 0001:00026b90       dpiStmt_getRowCounts       0000000180027b90 f   dpiStmt.obj
 0001:00026e30       dpiStmt_setFetchArraySize  0000000180027e30 f   dpiStmt.obj
 0001:000270a0       dpiSubscr__free            00000001800280a0 f   dpiSubscr.obj
 0001:00027110       dpiUtils__freeMemory       0000000180028110 f   dpiUtils.obj
 0001:00027140       dpiUtils__getAttrStringWithDup 0000000180028140 f   dpiUtils.obj
 0001:00027240       dpiUtils__parseNumberString 0000000180028240 f   dpiUtils.obj
 0001:00027620       dpiUtils__setAttributesFromCommonCreateParams 0000000180028620 f   dpiUtils.obj
 0001:00027700       dpiVar__allocate           0000000180028700 f   dpiVar.obj
 0001:00027c30       dpiVar__convertToLob       0000000180028c30 f   dpiVar.obj
 0001:00027d50       dpiVar__defineCallback     0000000180028d50 f   dpiVar.obj
 0001:00027e70       dpiVar__extendedPreFetch   0000000180028e70 f   dpiVar.obj
 0001:00028580       dpiVar__free               0000000180029580 f   dpiVar.obj
 0001:00028680       dpiVar__getValue           0000000180029680 f   dpiVar.obj
 0001:00028c20       dpiVar__inBindCallback     0000000180029c20 f   dpiVar.obj
 0001:00029450       dpiVar__outBindCallback    000000018002a450 f   dpiVar.obj
 0001:00029d80       dpiVar__setValue           000000018002ad80 f   dpiVar.obj
 0001:0002a1e0       dpiVar_getNumElementsInArray 000000018002b1e0 f   dpiVar.obj
 0001:0002a420       dpiVar_getReturnedData     000000018002b420 f   dpiVar.obj
 0001:0002a630       dpiVar_setFromBytes        000000018002b630 f   dpiVar.obj
 0001:0002a870       dpiVar_setFromLob          000000018002b870 f   dpiVar.obj
 0001:0002aa90       dpiVar_setNumElementsInArray 000000018002ba90 f   dpiVar.obj
 0001:0002acfc       __imp_load_uv_queue_work   000000018002bcfc f   node:node.exe
 0001:0002ad08       __tailMerge_node_exe       000000018002bd08 f i node:node.exe
 0001:0002ad81       __imp_load_?Global@Context@v8@@QEAA?AV?$Local@VObject@v8@@@2@XZ 000000018002bd81 f   node:node.exe
 0001:0002ad8d       __imp_load_?ThrowException@Isolate@v8@@QEAA?AV?$Local@VValue@v8@@@2@V32@@Z 000000018002bd8d f   node:node.exe
 0001:0002ad99       __imp_load_?GetCurrentContext@Isolate@v8@@QEAA?AV?$Local@VContext@v8@@@2@XZ 000000018002bd99 f   node:node.exe
 0001:0002ada5       __imp_load_?GetCurrent@Isolate@v8@@SAPEAV12@XZ 000000018002bda5 f   node:node.exe
 0001:0002adb1       __imp_load_?CreateHandle@HandleScope@v8@@KAPEAPEAVObject@internal@2@PEAVIsolate@42@PEAV342@@Z 000000018002bdb1 f   node:node.exe
 0001:0002adbd       __imp_load_??1HandleScope@v8@@QEAA@XZ 000000018002bdbd f   node:node.exe
 0001:0002adc9       __imp_load_??0HandleScope@v8@@QEAA@PEAVIsolate@1@@Z 000000018002bdc9 f   node:node.exe
 0001:0002add5       __imp_load_?Error@Exception@v8@@SA?AV?$Local@VValue@v8@@@2@V?$Local@VString@v8@@@2@@Z 000000018002bdd5 f   node:node.exe
 0001:0002ade1       __imp_load_?Value@Boolean@v8@@QEBA_NXZ 000000018002bde1 f   node:node.exe
 0001:0002aded       __imp_load_?ToLocalEmpty@V8@v8@@CAXXZ 000000018002bded f   node:node.exe
 0001:0002adf9       __imp_load_?FromJustIsNothing@V8@v8@@CAXXZ 000000018002bdf9 f   node:node.exe
 0001:0002ae05       __imp_load_?DisposeGlobal@V8@v8@@CAXPEAPEAVObject@internal@2@@Z 000000018002be05 f   node:node.exe
 0001:0002ae11       __imp_load_?GlobalizeReference@V8@v8@@CAPEAPEAVObject@internal@2@PEAVIsolate@42@PEAPEAV342@@Z 000000018002be11 f   node:node.exe
 0001:0002ae1d       __imp_load_?Int32Value@Value@v8@@QEBA?AV?$Maybe@H@2@V?$Local@VContext@v8@@@2@@Z 000000018002be1d f   node:node.exe
 0001:0002ae29       __imp_load_?Uint32Value@Value@v8@@QEBA?AV?$Maybe@I@2@V?$Local@VContext@v8@@@2@@Z 000000018002be29 f   node:node.exe
 0001:0002ae35       __imp_load_?IsUint32@Value@v8@@QEBA_NXZ 000000018002be35 f   node:node.exe
 0001:0002ae41       __imp_load_?IsInt32@Value@v8@@QEBA_NXZ 000000018002be41 f   node:node.exe
 0001:0002ae4d       __imp_load_?IsNumber@Value@v8@@QEBA_NXZ 000000018002be4d f   node:node.exe
 0001:0002ae59       __imp_load_?IsBoolean@Value@v8@@QEBA_NXZ 000000018002be59 f   node:node.exe
 0001:0002ae65       __imp_load_?IsObject@Value@v8@@QEBA_NXZ 000000018002be65 f   node:node.exe
 0001:0002ae71       __imp_load_?IsFunction@Value@v8@@QEBA_NXZ 000000018002be71 f   node:node.exe
 0001:0002ae7d       __imp_load_?Get@Message@v8@@QEBA?AV?$Local@VString@v8@@@2@XZ 000000018002be7d f   node:node.exe
 0001:0002ae89       __imp_load_?Reset@TryCatch@v8@@QEAAXXZ 000000018002be89 f   node:node.exe
 0001:0002ae95       __imp_load_?Message@TryCatch@v8@@QEBA?AV?$Local@VMessage@v8@@@2@XZ 000000018002be95 f   node:node.exe
 0001:0002aea1       __imp_load_?HasCaught@TryCatch@v8@@QEBA_NXZ 000000018002bea1 f   node:node.exe
 0001:0002aead       __imp_load_??1TryCatch@v8@@QEAA@XZ 000000018002bead f   node:node.exe
 0001:0002aeb9       __imp_load_??0TryCatch@v8@@QEAA@PEAVIsolate@1@@Z 000000018002beb9 f   node:node.exe
 0001:0002aec5       __imp_load_?Escape@EscapableHandleScope@v8@@AEAAPEAPEAVObject@internal@2@PEAPEAV342@@Z 000000018002bec5 f   node:node.exe
 0001:0002aed1       __imp_load_??0EscapableHandleScope@v8@@QEAA@PEAVIsolate@1@@Z 000000018002bed1 f   node:node.exe
 0001:0002aedd       __imp_load_??1Utf8Value@String@v8@@QEAA@XZ 000000018002bedd f   node:node.exe
 0001:0002aee9       __imp_load_??0Utf8Value@String@v8@@QEAA@V?$Local@VValue@v8@@@2@@Z 000000018002bee9 f   node:node.exe
 0001:0002aef5       __imp_load_?NewFromUtf8@String@v8@@SA?AV?$MaybeLocal@VString@v8@@@2@PEAVIsolate@2@PEBDW4NewStringType@2@H@Z 000000018002bef5 f   node:node.exe
 0001:0002af01       __imp_load_?New@Number@v8@@SA?AV?$Local@VNumber@v8@@@2@PEAVIsolate@2@N@Z 000000018002bf01 f   node:node.exe
 0001:0002af0d       __imp_load_?SlowGetAlignedPointerFromInternalField@Object@v8@@AEAAPEAXH@Z 000000018002bf0d f   node:node.exe
 0001:0002af19       __imp_load_?InternalFieldCount@Object@v8@@QEAAHXZ 000000018002bf19 f   node:node.exe
 0001:0002af25       __imp_load_?Get@Object@v8@@QEAA?AV?$MaybeLocal@VValue@v8@@@2@V?$Local@VContext@v8@@@2@V?$Local@VValue@v8@@@2@@Z 000000018002bf25 f   node:node.exe
 0001:0002af31       __imp_load_?Set@Object@v8@@QEAA?AV?$Maybe@_N@2@V?$Local@VContext@v8@@@2@V?$Local@VValue@v8@@@2@1@Z 000000018002bf31 f   node:node.exe
 0001:0002af3d       __imp_load_?FatalException@node@@YAXPEAVIsolate@v8@@AEBVTryCatch@3@@Z 000000018002bf3d f   node:node.exe
 0001:0002af49       __imp_load_?MakeCallback@node@@YA?AV?$Local@VValue@v8@@@v8@@PEAVIsolate@3@V?$Local@VObject@v8@@@3@V?$Local@VFunction@v8@@@3@HPEAV23@@Z 000000018002bf49 f   node:node.exe
 0001:0002af55       __imp_load_uv_default_loop 000000018002bf55 f   node:node.exe
 0001:0002af61       __imp_load_?ToObject@Value@v8@@QEBA?AV?$Local@VObject@v8@@@2@XZ 000000018002bf61 f   node:node.exe
 0001:0002af6d       __imp_load_?ToString@Value@v8@@QEBA?AV?$Local@VString@v8@@@2@XZ 000000018002bf6d f   node:node.exe
 0001:0002af79       __imp_load_?ToBoolean@Value@v8@@QEBA?AV?$Local@VBoolean@v8@@@2@XZ 000000018002bf79 f   node:node.exe
 0001:0002af85       __imp_load_??1EscapableHandleScope@v8@@QEAA@XZ 000000018002bf85 f   node:node.exe
 0001:0002af91       __imp_load_?Value@External@v8@@QEBAPEAXXZ 000000018002bf91 f   node:node.exe
 0001:0002af9d       __imp_load_?New@External@v8@@SA?AV?$Local@VExternal@v8@@@2@PEAVIsolate@2@PEAX@Z 000000018002bf9d f   node:node.exe
 0001:0002afa9       __imp_load_?NewFromUnsigned@Integer@v8@@SA?AV?$Local@VInteger@v8@@@2@PEAVIsolate@2@I@Z 000000018002bfa9 f   node:node.exe
 0001:0002afb5       __imp_load_?New@Integer@v8@@SA?AV?$Local@VInteger@v8@@@2@PEAVIsolate@2@H@Z 000000018002bfb5 f   node:node.exe
 0001:0002afc1       __imp_load_?New@Signature@v8@@SA?AV?$Local@VSignature@v8@@@2@PEAVIsolate@2@V?$Local@VFunctionTemplate@v8@@@2@@Z 000000018002bfc1 f   node:node.exe
 0001:0002afcd       __imp_load_?CreateHandle@HandleScope@v8@@CAPEAPEAVObject@internal@2@PEAVHeapObject@42@PEAV342@@Z 000000018002bfcd f   node:node.exe
 0001:0002afd9       __imp_load_?Set@Template@v8@@QEAAXV?$Local@VName@v8@@@2@V?$Local@VData@v8@@@2@W4PropertyAttribute@2@@Z 000000018002bfd9 f   node:node.exe
 0001:0002afe5       __imp_load_?New@Array@v8@@SA?AV?$Local@VArray@v8@@@2@PEAVIsolate@2@H@Z 000000018002bfe5 f   node:node.exe
 0001:0002aff1       __imp_load_?Length@Array@v8@@QEBAIXZ 000000018002bff1 f   node:node.exe
 0001:0002affd       __imp_load_?SetClassName@FunctionTemplate@v8@@QEAAXV?$Local@VString@v8@@@2@@Z 000000018002bffd f   node:node.exe
 0001:0002b009       __imp_load_?PrototypeTemplate@FunctionTemplate@v8@@QEAA?AV?$Local@VObjectTemplate@v8@@@2@XZ 000000018002c009 f   node:node.exe
 0001:0002b015       __imp_load_?InstanceTemplate@FunctionTemplate@v8@@QEAA?AV?$Local@VObjectTemplate@v8@@@2@XZ 000000018002c015 f   node:node.exe
 0001:0002b021       __imp_load_?GetFunction@FunctionTemplate@v8@@QEAA?AV?$Local@VFunction@v8@@@2@XZ 000000018002c021 f   node:node.exe
 0001:0002b02d       __imp_load_?New@FunctionTemplate@v8@@SA?AV?$Local@VFunctionTemplate@v8@@@2@PEAVIsolate@2@P6AXAEBV?$FunctionCallbackInfo@VValue@v8@@@2@@ZV?$Local@VValue@v8@@@2@V?$Local@VSignature@v8@@@2@HW4ConstructorBehavior@2@W4SideEffectType@2@@Z 000000018002c02d f   node:node.exe
 0001:0002b039       __imp_load_?ClearWeak@V8@v8@@CAPEAXPEAPEAVObject@internal@2@@Z 000000018002c039 f   node:node.exe
 0001:0002b045       __imp_load_?MakeWeak@V8@v8@@CAXPEAPEAVObject@internal@2@PEAXP6AXAEBV?$WeakCallbackInfo@X@2@@ZW4WeakCallbackType@2@@Z 000000018002c045 f   node:node.exe
 0001:0002b051       __imp_load_?IsArray@Value@v8@@QEBA_NXZ 000000018002c051 f   node:node.exe
 0001:0002b05d       __imp_load_?SlowGetInternalField@Object@v8@@AEAA?AV?$Local@VValue@v8@@@2@H@Z 000000018002c05d f   node:node.exe
 0001:0002b069       __imp_load_?SetAlignedPointerInInternalField@Object@v8@@QEAAXHPEAX@Z 000000018002c069 f   node:node.exe
 0001:0002b075       __imp_load_?SetInternalField@Object@v8@@QEAAXHV?$Local@VValue@v8@@@2@@Z 000000018002c075 f   node:node.exe
 0001:0002b081       __imp_load_?Get@Object@v8@@QEAA?AV?$MaybeLocal@VValue@v8@@@2@V?$Local@VContext@v8@@@2@I@Z 000000018002c081 f   node:node.exe
 0001:0002b08d       __imp_load_?SetInternalFieldCount@ObjectTemplate@v8@@QEAAXH@Z 000000018002c08d f   node:node.exe
 0001:0002b099       __imp_load_?SetAccessor@ObjectTemplate@v8@@QEAAXV?$Local@VName@v8@@@2@P6AX0AEBV?$PropertyCallbackInfo@VValue@v8@@@2@@ZP6AX0V?$Local@VValue@v8@@@2@AEBV?$PropertyCallbackInfo@X@2@@Z3W4AccessControl@2@W4PropertyAttribute@2@V?$Local@VAccessorSignature@v8@@@2@@Z 000000018002c099 f   node:node.exe
 0001:0002b0a5       __imp_load_?NewInstance@ObjectTemplate@v8@@QEAA?AV?$MaybeLocal@VObject@v8@@@2@V?$Local@VContext@v8@@@2@@Z 000000018002c0a5 f   node:node.exe
 0001:0002b0b1       __imp_load_?New@ObjectTemplate@v8@@SA?AV?$Local@VObjectTemplate@v8@@@2@PEAVIsolate@2@V?$Local@VFunctionTemplate@v8@@@2@@Z 000000018002c0b1 f   node:node.exe
 0001:0002b0bd       __imp_load_node_module_register 000000018002c0bd f   node:node.exe
 0001:0002b0c9       __imp_load_?GetFunction@FunctionTemplate@v8@@QEAA?AV?$MaybeLocal@VFunction@v8@@@2@V?$Local@VContext@v8@@@2@@Z 000000018002c0c9 f   node:node.exe
 0001:0002b0d5       __imp_load_?NewInstance@Function@v8@@QEBA?AV?$MaybeLocal@VObject@v8@@@2@V?$Local@VContext@v8@@@2@@Z 000000018002c0d5 f   node:node.exe
 0001:0002b0e1       __imp_load_?New@Date@v8@@SA?AV?$MaybeLocal@VValue@v8@@@2@V?$Local@VContext@v8@@@2@N@Z 000000018002c0e1 f   node:node.exe
 0001:0002b0ed       __imp_load_?NumberValue@Value@v8@@QEBANXZ 000000018002c0ed f   node:node.exe
 0001:0002b0f9       __imp_load_?ToInt32@Value@v8@@QEBA?AV?$MaybeLocal@VInt32@v8@@@2@V?$Local@VContext@v8@@@2@@Z 000000018002c0f9 f   node:node.exe
 0001:0002b105       __imp_load_?ToInteger@Value@v8@@QEBA?AV?$MaybeLocal@VInteger@v8@@@2@V?$Local@VContext@v8@@@2@@Z 000000018002c105 f   node:node.exe
 0001:0002b111       __imp_load_?IsDate@Value@v8@@QEBA_NXZ 000000018002c111 f   node:node.exe
 0001:0002b11d       __imp_load_?New@Object@v8@@SA?AV?$Local@VObject@v8@@@2@PEAVIsolate@2@@Z 000000018002c11d f   node:node.exe
 0001:0002b129       __imp_load_?GetOwnPropertyNames@Object@v8@@QEAA?AV?$Local@VArray@v8@@@2@XZ 000000018002c129 f   node:node.exe
 0001:0002b135       __imp_load_?DefineOwnProperty@Object@v8@@QEAA?AV?$Maybe@_N@2@V?$Local@VContext@v8@@@2@V?$Local@VName@v8@@@2@V?$Local@VValue@v8@@@2@W4PropertyAttribute@2@@Z 000000018002c135 f   node:node.exe
 0001:0002b141       __imp_load_?Set@Object@v8@@QEAA?AV?$Maybe@_N@2@V?$Local@VContext@v8@@@2@IV?$Local@VValue@v8@@@2@@Z 000000018002c141 f   node:node.exe
 0001:0002b14d       __imp_load_?Call@Function@v8@@QEAA?AV?$Local@VValue@v8@@@2@V32@HQEAV32@@Z 000000018002c14d f   node:node.exe
 0001:0002b159       __imp_load_?HasInstance@Buffer@node@@YA_NV?$Local@VValue@v8@@@v8@@@Z 000000018002c159 f   node:node.exe
 0001:0002b165       __imp_load_?Data@Buffer@node@@YAPEADV?$Local@VObject@v8@@@v8@@@Z 000000018002c165 f   node:node.exe
 0001:0002b171       __imp_load_?Copy@Buffer@node@@YA?AV?$MaybeLocal@VObject@v8@@@v8@@PEAVIsolate@4@PEBD_K@Z 000000018002c171 f   node:node.exe
 0001:0002b17d       __imp_load_?Length@Buffer@node@@YA_KV?$Local@VObject@v8@@@v8@@@Z 000000018002c17d f   node:node.exe
 0001:0002b189       __imp_load_?HasInstance@FunctionTemplate@v8@@QEAA_NV?$Local@VValue@v8@@@2@@Z 000000018002c189 f   node:node.exe
 0001:0002b195       __imp_load_?Length@String@v8@@QEBAHXZ 000000018002c195 f   node:node.exe
 0001:0002b1a4       ??0bad_alloc@std@@QEAA@AEBV01@@Z 000000018002c1a4 f i libcpmt:xthrow.obj
 0001:0002b1e4       ??0bad_alloc@std@@QEAA@XZ  000000018002c1e4 f i libcpmt:xthrow.obj
 0001:0002b204       ??0exception@std@@QEAA@AEBV01@@Z 000000018002c204 f i libcpmt:xthrow.obj
 0001:0002b23c       ??0length_error@std@@QEAA@AEBV01@@Z 000000018002c23c f i libcpmt:xthrow.obj
 0001:0002b27c       ??0length_error@std@@QEAA@PEBD@Z 000000018002c27c f i libcpmt:xthrow.obj
 0001:0002b2c8       ??0logic_error@std@@QEAA@AEBV01@@Z 000000018002c2c8 f i libcpmt:xthrow.obj
 0001:0002b308       ??0out_of_range@std@@QEAA@AEBV01@@Z 000000018002c308 f i libcpmt:xthrow.obj
 0001:0002b348       ??0out_of_range@std@@QEAA@PEBD@Z 000000018002c348 f i libcpmt:xthrow.obj
 0001:0002b394       ??1length_error@std@@UEAA@XZ 000000018002c394 f i libcpmt:xthrow.obj
 0001:0002b394       ??1bad_exception@std@@UEAA@XZ 000000018002c394 f i libvcruntime:frame.obj
 0001:0002b394       ??1bad_alloc@std@@UEAA@XZ  000000018002c394 f i libcpmt:xthrow.obj
 0001:0002b394       ??1out_of_range@std@@UEAA@XZ 000000018002c394 f i libcpmt:xthrow.obj
 0001:0002b394       ??1bad_array_new_length@std@@UEAA@XZ 000000018002c394 f i LIBCMT:throw_bad_alloc.obj
 0001:0002b3a8       ??_Gexception@std@@UEAAPEAXI@Z 000000018002c3a8 f i libcpmt:xthrow.obj
 0001:0002b3a8       ??_Gbad_alloc@std@@UEAAPEAXI@Z 000000018002c3a8 f i libcpmt:xthrow.obj
 0001:0002b3a8       ??_Eout_of_range@std@@UEAAPEAXI@Z 000000018002c3a8 f i libcpmt:xthrow.obj
 0001:0002b3a8       ??_Glength_error@std@@UEAAPEAXI@Z 000000018002c3a8 f i libcpmt:xthrow.obj
 0001:0002b3a8       ??_Elogic_error@std@@UEAAPEAXI@Z 000000018002c3a8 f i libcpmt:xthrow.obj
 0001:0002b3a8       ??_Ebad_alloc@std@@UEAAPEAXI@Z 000000018002c3a8 f i libcpmt:xthrow.obj
 0001:0002b3a8       ??_Ebad_exception@std@@UEAAPEAXI@Z 000000018002c3a8 f i libvcruntime:frame.obj
 0001:0002b3a8       ??_Gbad_exception@std@@UEAAPEAXI@Z 000000018002c3a8 f i libvcruntime:frame.obj
 0001:0002b3a8       ??_Elength_error@std@@UEAAPEAXI@Z 000000018002c3a8 f i libcpmt:xthrow.obj
 0001:0002b3a8       ??_Glogic_error@std@@UEAAPEAXI@Z 000000018002c3a8 f i libcpmt:xthrow.obj
 0001:0002b3a8       ??_Eexception@std@@UEAAPEAXI@Z 000000018002c3a8 f i libcpmt:xthrow.obj
 0001:0002b3a8       ??_Ebad_array_new_length@std@@UEAAPEAXI@Z 000000018002c3a8 f i LIBCMT:throw_bad_alloc.obj
 0001:0002b3a8       ??_Gout_of_range@std@@UEAAPEAXI@Z 000000018002c3a8 f i libcpmt:xthrow.obj
 0001:0002b3a8       ??_Gbad_array_new_length@std@@UEAAPEAXI@Z 000000018002c3a8 f i LIBCMT:throw_bad_alloc.obj
 0001:0002b3ec       ?_Xlength_error@std@@YAXPEBD@Z 000000018002c3ec f   libcpmt:xthrow.obj
 0001:0002b410       ?_Xout_of_range@std@@YAXPEBD@Z 000000018002c410 f   libcpmt:xthrow.obj
 0001:0002b434       ?what@exception@std@@UEBAPEBDXZ 000000018002c434 f i libcpmt:xthrow.obj
 0001:0002b460       __security_check_cookie    000000018002c460 f   LIBCMT:_amdsecgs_.obj
 0001:0002b484       ??3@YAXPEAX_K@Z            000000018002c484 f   LIBCMT:delete_scalar_size.obj
 0001:0002b484       ??_V@YAXPEAX@Z             000000018002c484 f   LIBCMT:delete_array.obj
 0001:0002b48c       ??_V@YAXPEAX_K@Z           000000018002c48c f   LIBCMT:delete_array_size.obj
 0001:0002b494       ??2@YAPEAX_K@Z             000000018002c494 f   LIBCMT:new_scalar.obj
 0001:0002b4d0       ??_M@YAXPEAX_K1P6AX0@Z@Z   000000018002c4d0 f   LIBCMT:ehvecdtr.obj
 0001:0002b53c       ?__ArrayUnwind@@YAXPEAX_K1P6AX0@Z@Z 000000018002c53c f   LIBCMT:ehvecdtr.obj
 0001:0002b5a0       ??3@YAXPEAX@Z              000000018002c5a0 f   LIBCMT:delete_scalar.obj
 0001:0002b5a8       ??_U@YAPEAX_K@Z            000000018002c5a8 f   LIBCMT:new_array.obj
 0001:0002b5b0       __scrt_acquire_startup_lock 000000018002c5b0 f   LIBCMT:utility.obj
 0001:0002b5ec       __scrt_dllmain_after_initialize_c 000000018002c5ec f   LIBCMT:utility.obj
 0001:0002b620       __scrt_dllmain_before_initialize_c 000000018002c620 f   LIBCMT:utility.obj
 0001:0002b638       __scrt_dllmain_crt_thread_attach 000000018002c638 f   LIBCMT:utility.obj
 0001:0002b660       __scrt_dllmain_crt_thread_detach 000000018002c660 f   LIBCMT:utility.obj
 0001:0002b678       __scrt_dllmain_exception_filter 000000018002c678 f   LIBCMT:utility.obj
 0001:0002b6dc       __scrt_dllmain_uninitialize_c 000000018002c6dc f   LIBCMT:utility.obj
 0001:0002b70c       __scrt_dllmain_uninitialize_critical 000000018002c70c f   LIBCMT:utility.obj
 0001:0002b720       __scrt_initialize_crt      000000018002c720 f   LIBCMT:utility.obj
 0001:0002b76c       __scrt_initialize_onexit_tables 000000018002c76c f   LIBCMT:utility.obj
 0001:0002b838       __scrt_is_nonwritable_in_current_image 000000018002c838 f   LIBCMT:utility.obj
 0001:0002b8d4       __scrt_release_startup_lock 000000018002c8d4 f   LIBCMT:utility.obj
 0001:0002b8f8       __scrt_uninitialize_crt    000000018002c8f8 f   LIBCMT:utility.obj
 0001:0002b924       _onexit                    000000018002c924 f   LIBCMT:utility.obj
 0001:0002b974       atexit                     000000018002c974 f   LIBCMT:utility.obj
 0001:0002b98c       ??_L@YAXPEAX_K1P6AX0@Z2@Z  000000018002c98c f   LIBCMT:ehvecctr.obj
 0001:0002b9fc       __raise_securityfailure    000000018002c9fc f   LIBCMT:gs_report.obj
 0001:0002ba30       __report_gsfailure         000000018002ca30 f   LIBCMT:gs_report.obj
 0001:0002bb04       __report_rangecheckfailure 000000018002cb04 f   LIBCMT:gs_report.obj
 0001:0002bb18       __report_securityfailure   000000018002cb18 f   LIBCMT:gs_report.obj
 0001:0002bfe4       _DllMainCRTStartup         000000018002cfe4 f   LIBCMT:dll_dllmain.obj
 0001:0002c024       ??_Etype_info@@UEAAPEAXI@Z 000000018002d024 f i LIBCMT:std_type_info_static.obj
 0001:0002c024       ??_Gtype_info@@UEAAPEAXI@Z 000000018002d024 f i LIBCMT:std_type_info_static.obj
 0001:0002c050       ??0bad_array_new_length@std@@QEAA@AEBV01@@Z 000000018002d050 f i LIBCMT:throw_bad_alloc.obj
 0001:0002c090       ??0bad_array_new_length@std@@QEAA@XZ 000000018002d090 f i LIBCMT:throw_bad_alloc.obj
 0001:0002c0b0       ?_Xbad_alloc@std@@YAXXZ    000000018002d0b0 f   libcpmt:xthrow.obj
 0001:0002c0b0       ?__scrt_throw_std_bad_alloc@@YAXXZ 000000018002d0b0 f   LIBCMT:throw_bad_alloc.obj
 0001:0002c0d0       ?__scrt_throw_std_bad_array_new_length@@YAXXZ 000000018002d0d0 f   LIBCMT:throw_bad_alloc.obj
 0001:0002c0f0       _guard_check_icall         000000018002d0f0 f i LIBCMT:checkcfg.obj
 0001:0002c0f8       __isa_available_init       000000018002d0f8 f   LIBCMT:_cpu_disp_.obj
 0001:0002c2c0       _get_startup_argv_mode     000000018002d2c0 f   LIBCMT:argv_mode.obj
 0001:0002c2c0       DllMain                    000000018002d2c0 f   LIBCMT:dll_dllmain_stub.obj
 0001:0002c2c8       __scrt_is_ucrt_dll_in_use  000000018002d2c8 f   LIBCMT:ucrt_detection.obj
 0001:0002c2d4       __crt_debugger_hook        000000018002d2d4 f   LIBCMT:utility_desktop.obj
 0001:0002c2dc       __scrt_fastfail            000000018002d2dc f   LIBCMT:utility_desktop.obj
 0001:0002c424       __security_init_cookie     000000018002d424 f   LIBCMT:gs_support.obj
 0001:0002c4d0       ?__scrt_initialize_type_info@@YAXXZ 000000018002d4d0 f   LIBCMT:tncleanup.obj
 0001:0002c4e0       ?__scrt_uninitialize_type_info@@YAXXZ 000000018002d4e0 f   LIBCMT:tncleanup.obj
 0001:0002c4ec       __local_stdio_scanf_options 000000018002d4ec f i LIBCMT:default_local_stdio_options.obj
 0001:0002c4f4       __scrt_initialize_default_local_stdio_options 000000018002d4f4 f   LIBCMT:default_local_stdio_options.obj
 0001:0002c510       __scrt_get_dyn_tls_init_callback 000000018002d510 f   LIBCMT:dyn_tls_init.obj
 0001:0002c518       _RTC_Initialize            000000018002d518 f   LIBCMT:_initsect_.obj
 0001:0002c564       _RTC_Terminate             000000018002d564 f   LIBCMT:_initsect_.obj
 0001:0002c5b0       _guard_check_icall_nop     000000018002d5b0 f i LIBCMT:guard_support.obj
 0001:0002c5b0       __except_validate_context_record 000000018002d5b0 f i libvcruntime:jbcxrval.obj
 0001:0002c5d0       memmove                    000000018002d5d0 f   libvcruntime:memcpy.obj
 0001:0002c5d0       memcpy                     000000018002d5d0 f   libvcruntime:memcpy.obj
 0001:0002ca08       __DestructExceptionObject  000000018002da08 f   libvcruntime:frame.obj
 0001:0002ca90       ??0bad_exception@std@@QEAA@AEBV01@@Z 000000018002da90 f i libvcruntime:frame.obj
 0001:0002cad0       ??0bad_exception@std@@QEAA@XZ 000000018002dad0 f i libvcruntime:frame.obj
 0001:0002d44c       ?_CallMemberFunction0@@YAXPEAXP6AX0@Z@Z 000000018002e44c f i libvcruntime:frame.obj
 0001:0002d450       ?_CallMemberFunction1@@YAXPEAXP6AX0@Z0@Z 000000018002e450 f i libvcruntime:frame.obj
 0001:0002d45c       ?_CallMemberFunction2@@YAXPEAXP6AX0@Z0H@Z 000000018002e45c f i libvcruntime:frame.obj
 0001:0002d46c       __AdjustPointer            000000018002e46c f   libvcruntime:frame.obj
 0001:0002d490       __BuildCatchObject         000000018002e490 f   libvcruntime:frame.obj
 0001:0002d554       __BuildCatchObjectHelper   000000018002e554 f   libvcruntime:frame.obj
 0001:0002d734       __CxxCallCatchBlock        000000018002e734 f   libvcruntime:frame.obj
 0001:0002d920       __FrameUnwindFilter        000000018002e920 f   libvcruntime:frame.obj
 0001:0002d96c       __FrameUnwindToState       000000018002e96c f   libvcruntime:frame.obj
 0001:0002db00       __InternalCxxFrameHandler  000000018002eb00 f   libvcruntime:frame.obj
 0001:0002dd58       __TypeMatch                000000018002ed58 f   libvcruntime:frame.obj
 0001:0002de98       __std_terminate            000000018002ee98 f   libvcruntime:frame.obj
 0001:0002dea4       strchr                     000000018002eea4 f   libvcruntime:strchr.obj
 0001:0002df30       strrchr                    000000018002ef30 f   libvcruntime:strrchr.obj
 0001:0002e070       __std_exception_copy       000000018002f070 f   libvcruntime:std_exception.obj
 0001:0002e100       __std_exception_destroy    000000018002f100 f   libvcruntime:std_exception.obj
 0001:0002e128       _CxxThrowException         000000018002f128 f   libvcruntime:throw.obj
 0001:0002e200       __C_specific_handler       000000018002f200 f   libvcruntime:_chandler_.obj
 0001:0002e3fc       __vcrt_initialize          000000018002f3fc f   libvcruntime:initialization.obj
 0001:0002e430       __vcrt_thread_attach       000000018002f430 f   libvcruntime:initialization.obj
 0001:0002e444       __vcrt_thread_detach       000000018002f444 f   libvcruntime:initialization.obj
 0001:0002e458       __vcrt_uninitialize        000000018002f458 f   libvcruntime:initialization.obj
 0001:0002e478       __vcrt_uninitialize_critical 000000018002f478 f   libvcruntime:initialization.obj
 0001:0002e4a0       memset                     000000018002f4a0 f   libvcruntime:memset.obj
 0001:0002e640       __std_type_info_compare    000000018002f640 f   libvcruntime:std_type_info.obj
 0001:0002e668       __std_type_info_destroy_list 000000018002f668 f   libvcruntime:std_type_info.obj
 0001:0002e694       __vcrt_freefls             000000018002f694 f   libvcruntime:per_thread_data.obj
 0001:0002e6b4       __vcrt_freeptd             000000018002f6b4 f   libvcruntime:per_thread_data.obj
 0001:0002e704       __vcrt_getptd              000000018002f704 f   libvcruntime:per_thread_data.obj
 0001:0002e720       __vcrt_getptd_noexit       000000018002f720 f   libvcruntime:per_thread_data.obj
 0001:0002e7d8       __vcrt_initialize_ptd      000000018002f7d8 f   libvcruntime:per_thread_data.obj
 0001:0002e818       __vcrt_uninitialize_ptd    000000018002f818 f   libvcruntime:per_thread_data.obj
 0001:0002e83c       ?__GetCurrentState@@YAHPEA_KPEAU_xDISPATCHER_CONTEXT@@PEBU_s_FuncInfo@@@Z 000000018002f83c f   libvcruntime:ehstate.obj
 0001:0002e864       ?__GetUnwindTryBlock@@YAHPEA_KPEAU_xDISPATCHER_CONTEXT@@PEBU_s_FuncInfo@@@Z 000000018002f864 f   libvcruntime:ehstate.obj
 0001:0002e890       ?__SetState@@YAXPEA_KPEAU_xDISPATCHER_CONTEXT@@PEBU_s_FuncInfo@@H@Z 000000018002f890 f   libvcruntime:ehstate.obj
 0001:0002e89c       ?__SetUnwindTryBlock@@YAXPEA_KPEAU_xDISPATCHER_CONTEXT@@PEBU_s_FuncInfo@@H@Z 000000018002f89c f   libvcruntime:ehstate.obj
 0001:0002e8d8       ?__StateFromControlPc@@YAHPEBU_s_FuncInfo@@PEAU_xDISPATCHER_CONTEXT@@@Z 000000018002f8d8 f   libvcruntime:ehstate.obj
 0001:0002e8e0       ?__StateFromIp@@YAHPEBU_s_FuncInfo@@PEAU_xDISPATCHER_CONTEXT@@_J@Z 000000018002f8e0 f   libvcruntime:ehstate.obj
 0001:0002e960       _CallSettingFrame          000000018002f960 f   libvcruntime:handlers.obj
 0001:0002e9a0       ?_ExecutionInCatch@@YAHPEAU_xDISPATCHER_CONTEXT@@PEBU_s_FuncInfo@@@Z 000000018002f9a0 f   libvcruntime:trnsctrl.obj
 0001:0002ea14       ?_GetEstablisherFrame@@YAPEA_KPEA_KPEAU_xDISPATCHER_CONTEXT@@PEBU_s_FuncInfo@@0@Z 000000018002fa14 f   libvcruntime:trnsctrl.obj
 0001:0002eae0       ?_GetRangeOfTrysToCheck@@YAPEBU_s_TryBlockMapEntry@@PEA_KPEBU_s_FuncInfo@@HHPEAI2PEAU_xDISPATCHER_CONTEXT@@@Z 000000018002fae0 f   libvcruntime:trnsctrl.obj
 0001:0002ec0c       ?__FrameUnwindToEmptyState@@YAXPEA_KPEAU_xDISPATCHER_CONTEXT@@PEBU_s_FuncInfo@@@Z 000000018002fc0c f   libvcruntime:trnsctrl.obj
 0001:0002eca0       ?__SehTransFilter@@YAHPEAU_EXCEPTION_POINTERS@@PEAUEHExceptionRecord@@PEA_KPEAU_CONTEXT@@PEAU_xDISPATCHER_CONTEXT@@PEBU_s_FuncInfo@@PEAH@Z 000000018002fca0 f   libvcruntime:trnsctrl.obj
 0001:0002ed38       _CallSETranslator          000000018002fd38 f   libvcruntime:trnsctrl.obj
 0001:0002ed90       _CreateFrameInfo           000000018002fd90 f   libvcruntime:trnsctrl.obj
 0001:0002edcc       _FindAndUnlinkFrame        000000018002fdcc f   libvcruntime:trnsctrl.obj
 0001:0002ee24       _GetImageBase              000000018002fe24 f   libvcruntime:trnsctrl.obj
 0001:0002ee38       _GetThrowImageBase         000000018002fe38 f   libvcruntime:trnsctrl.obj
 0001:0002ee4c       _IsExceptionObjectToBeDestroyed 000000018002fe4c f   libvcruntime:trnsctrl.obj
 0001:0002ee7c       _SetImageBase              000000018002fe7c f   libvcruntime:trnsctrl.obj
 0001:0002ee94       _SetThrowImageBase         000000018002fe94 f   libvcruntime:trnsctrl.obj
 0001:0002eeac       _UnwindNestedFrames        000000018002feac f   libvcruntime:trnsctrl.obj
 0001:0002efd0       __CxxFrameHandler3         000000018002ffd0 f   libvcruntime:trnsctrl.obj
 0001:0002f060       _local_unwind              0000000180030060 f   libvcruntime:_jmpuwind_.obj
 0001:0002f090       _NLG_Notify                0000000180030090 f   libvcruntime:_jmpuwind_.obj
 0001:0002f0b0       __NLG_Dispatch2            00000001800300b0 f   libvcruntime:_jmpuwind_.obj
 0001:0002f0c0       __NLG_Return2              00000001800300c0 f   libvcruntime:_jmpuwind_.obj
 0001:0002f0c4       __vcrt_initialize_pure_virtual_call_handler 00000001800300c4 f   libvcruntime:purevirt_data.obj
 0001:0002f0e8       __vcrt_initialize_locks    00000001800300e8 f   libvcruntime:locks.obj
 0001:0002f130       __vcrt_uninitialize_locks  0000000180030130 f   libvcruntime:locks.obj
 0001:0002f330       __vcrt_FlsAlloc            0000000180030330 f   libvcruntime:winapi_downlevel.obj
 0001:0002f384       __vcrt_FlsFree             0000000180030384 f   libvcruntime:winapi_downlevel.obj
 0001:0002f3d8       __vcrt_FlsGetValue         00000001800303d8 f   libvcruntime:winapi_downlevel.obj
 0001:0002f42c       __vcrt_FlsSetValue         000000018003042c f   libvcruntime:winapi_downlevel.obj
 0001:0002f494       __vcrt_InitializeCriticalSectionEx 0000000180030494 f   libvcruntime:winapi_downlevel.obj
 0001:0002f50c       __vcrt_initialize_winapi_thunks 000000018003050c f   libvcruntime:winapi_downlevel.obj
 0001:0002f558       __vcrt_uninitialize_winapi_thunks 0000000180030558 f   libvcruntime:winapi_downlevel.obj
 0001:0002ff80       ??$ftprintf@PEAU_iobuf@@PEB_WAEBQEB_WAEBQEB_WAEBI@?$__crt_char_traits@_W@@SAH$$QEAPEAU_iobuf@@$$QEAPEB_WAEBQEB_W2AEBI@Z 0000000180030f80 f i libucrt:assert.obj
 0001:0002ffa8       _wassert                   0000000180030fa8 f   libucrt:assert.obj
 0001:0003002c       fwprintf                   000000018003102c f i libucrt:assert.obj
 0001:00030070       swprintf                   0000000180031070 f i libucrt:assert.obj
 0001:000300c4       __acrt_call_reportfault    00000001800310c4 f   libucrt:invalid_parameter.obj
 0001:00030220       __acrt_initialize_invalid_parameter_handler 0000000180031220 f   libucrt:invalid_parameter.obj
 0001:00030228       _invalid_parameter         0000000180031228 f   libucrt:invalid_parameter.obj
 0001:000302d0       _invalid_parameter_noinfo  00000001800312d0 f   libucrt:invalid_parameter.obj
 0001:000302f0       _invalid_parameter_noinfo_noreturn 00000001800312f0 f   libucrt:invalid_parameter.obj
 0001:00030320       _invoke_watson             0000000180031320 f   libucrt:invalid_parameter.obj
 0001:00030368       ??$?RV<lambda_7b91131dde12e1c3dfc74ff76b3f2eac>@@AEAV<lambda_dd75445284c072d0bd3768540cc698fa>@@V<lambda_16bc4ecb55b4718497c16bceaea2ceaf>@@@?$__crt_seh_guarded_call@H@@QEAAH$$QEAV<lambda_7b91131dde12e1c3dfc74ff76b3f2eac>@@AEAV<lambda_dd75445284c072d0bd3768540cc698fa>@@$$QEAV<lambda_16bc4ecb55b4718497c16bceaea2ceaf>@@@Z 0000000180031368 f i libucrt:output.obj
 0001:000303a8       ??$?RV<lambda_aa279a7bcb127014629d5b1d62c7325d>@@AEAV<lambda_0a64b6a4deda75c01876f29c44fc5eb3>@@V<lambda_3323e69fbefe9d1a11713e670d47cdfa>@@@?$__crt_seh_guarded_call@H@@QEAAH$$QEAV<lambda_aa279a7bcb127014629d5b1d62c7325d>@@AEAV<lambda_0a64b6a4deda75c01876f29c44fc5eb3>@@$$QEAV<lambda_3323e69fbefe9d1a11713e670d47cdfa>@@@Z 00000001800313a8 f i libucrt:output.obj
 0001:000303e8       ??$ensure_buffer_is_big_enough@D@formatting_buffer@__crt_stdio_output@@QEAA_N_K@Z 00000001800313e8 f i libucrt:output.obj
 0001:00030494       ??$is_wide_character_specifier@D@__crt_stdio_output@@YA_N_KDW4length_modifier@0@@Z 0000000180031494 f i libucrt:output.obj
 0001:000304c4       ??$is_wide_character_specifier@_W@__crt_stdio_output@@YA_N_K_WW4length_modifier@0@@Z 00000001800314c4 f i libucrt:output.obj
 0001:00030508       ??$type_case_integer_parse_into_buffer@I@?$output_processor@_WV?$stream_output_adapter@_W@__crt_stdio_output@@V?$standard_base@_WV?$stream_output_adapter@_W@__crt_stdio_output@@@2@@__crt_stdio_output@@AEAAXII_N@Z 0000000180031508 f i libucrt:output.obj
 0001:00030508       ??$type_case_integer_parse_into_buffer@I@?$output_processor@DV?$string_output_adapter@D@__crt_stdio_output@@V?$standard_base@DV?$string_output_adapter@D@__crt_stdio_output@@@2@@__crt_stdio_output@@AEAAXII_N@Z 0000000180031508 f i libucrt:output.obj
 0001:00030508       ??$type_case_integer_parse_into_buffer@I@?$output_processor@DV?$stream_output_adapter@D@__crt_stdio_output@@V?$standard_base@DV?$stream_output_adapter@D@__crt_stdio_output@@@2@@__crt_stdio_output@@AEAAXII_N@Z 0000000180031508 f i libucrt:output.obj
 0001:00030508       ??$type_case_integer_parse_into_buffer@I@?$output_processor@_WV?$string_output_adapter@_W@__crt_stdio_output@@V?$standard_base@_WV?$string_output_adapter@_W@__crt_stdio_output@@@2@@__crt_stdio_output@@AEAAXII_N@Z 0000000180031508 f i libucrt:output.obj
 0001:000305a4       ??$type_case_integer_parse_into_buffer@_K@?$output_processor@DV?$string_output_adapter@D@__crt_stdio_output@@V?$standard_base@DV?$string_output_adapter@D@__crt_stdio_output@@@2@@__crt_stdio_output@@AEAAX_KI_N@Z 00000001800315a4 f i libucrt:output.obj
 0001:000305a4       ??$type_case_integer_parse_into_buffer@_K@?$output_processor@_WV?$stream_output_adapter@_W@__crt_stdio_output@@V?$standard_base@_WV?$stream_output_adapter@_W@__crt_stdio_output@@@2@@__crt_stdio_output@@AEAAX_KI_N@Z 00000001800315a4 f i libucrt:output.obj
 0001:000305a4       ??$type_case_integer_parse_into_buffer@_K@?$output_processor@DV?$stream_output_adapter@D@__crt_stdio_output@@V?$standard_base@DV?$stream_output_adapter@D@__crt_stdio_output@@@2@@__crt_stdio_output@@AEAAX_KI_N@Z 00000001800315a4 f i libucrt:output.obj
 0001:000305a4       ??$type_case_integer_parse_into_buffer@_K@?$output_processor@_WV?$string_output_adapter@_W@__crt_stdio_output@@V?$standard_base@_WV?$string_output_adapter@_W@__crt_stdio_output@@@2@@__crt_stdio_output@@AEAAX_KI_N@Z 00000001800315a4 f i libucrt:output.obj
 0001:00030640       ??$write_multiple_characters@V?$stream_output_adapter@D@__crt_stdio_output@@D@__crt_stdio_output@@YAXAEBV?$stream_output_adapter@D@0@DHQEAH@Z 0000000180031640 f i libucrt:output.obj
 0001:000306c4       ??$write_multiple_characters@V?$stream_output_adapter@_W@__crt_stdio_output@@D@__crt_stdio_output@@YAXAEBV?$stream_output_adapter@_W@0@DHQEAH@Z 00000001800316c4 f i libucrt:output.obj
 0001:00030754       ??$write_multiple_characters@V?$string_output_adapter@D@__crt_stdio_output@@D@__crt_stdio_output@@YAXAEBV?$string_output_adapter@D@0@DHQEAH@Z 0000000180031754 f i libucrt:output.obj
 0001:000307b0       ??$write_multiple_characters@V?$string_output_adapter@_W@__crt_stdio_output@@D@__crt_stdio_output@@YAXAEBV?$string_output_adapter@_W@0@DHQEAH@Z 00000001800317b0 f i libucrt:output.obj
 0001:00030820       ??0?$output_processor@DV?$stream_output_adapter@D@__crt_stdio_output@@V?$standard_base@DV?$stream_output_adapter@D@__crt_stdio_output@@@2@@__crt_stdio_output@@QEAA@AEBV?$stream_output_adapter@D@1@_KQEBDQEAU__crt_locale_pointers@@QEAD@Z 0000000180031820 f i libucrt:output.obj
 0001:00030820       ??0?$output_processor@DV?$string_output_adapter@D@__crt_stdio_output@@V?$standard_base@DV?$string_output_adapter@D@__crt_stdio_output@@@2@@__crt_stdio_output@@QEAA@AEBV?$string_output_adapter@D@1@_KQEBDQEAU__crt_locale_pointers@@QEAD@Z 0000000180031820 f i libucrt:output.obj
 0001:0003089c       ??0?$output_processor@_WV?$stream_output_adapter@_W@__crt_stdio_output@@V?$standard_base@_WV?$stream_output_adapter@_W@__crt_stdio_output@@@2@@__crt_stdio_output@@QEAA@AEBV?$stream_output_adapter@_W@1@_KQEB_WQEAU__crt_locale_pointers@@QEAD@Z 000000018003189c f i libucrt:output.obj
 0001:0003089c       ??0?$output_processor@_WV?$string_output_adapter@_W@__crt_stdio_output@@V?$standard_base@_WV?$string_output_adapter@_W@__crt_stdio_output@@@2@@__crt_stdio_output@@QEAA@AEBV?$string_output_adapter@_W@1@_KQEB_WQEAU__crt_locale_pointers@@QEAD@Z 000000018003189c f i libucrt:output.obj
 0001:0003091c       ??0_LocaleUpdate@@QEAA@QEAU__crt_locale_pointers@@@Z 000000018003191c f i libucrt:output.obj
 0001:00030b8c       ?force_decimal_point@__crt_stdio_output@@YAXPEADQEAU__crt_locale_pointers@@@Z 0000000180031b8c f i libucrt:output.obj
 0001:00030bfc       ?parse_int_from_format_string@?$output_processor@DV?$stream_output_adapter@D@__crt_stdio_output@@V?$standard_base@DV?$stream_output_adapter@D@__crt_stdio_output@@@2@@__crt_stdio_output@@AEAA_NQEAH@Z 0000000180031bfc f i libucrt:output.obj
 0001:00030bfc       ?parse_int_from_format_string@?$output_processor@DV?$string_output_adapter@D@__crt_stdio_output@@V?$standard_base@DV?$string_output_adapter@D@__crt_stdio_output@@@2@@__crt_stdio_output@@AEAA_NQEAH@Z 0000000180031bfc f i libucrt:output.obj
 0001:00030c80       ?parse_int_from_format_string@?$output_processor@_WV?$stream_output_adapter@_W@__crt_stdio_output@@V?$standard_base@_WV?$stream_output_adapter@_W@__crt_stdio_output@@@2@@__crt_stdio_output@@AEAA_NQEAH@Z 0000000180031c80 f i libucrt:output.obj
 0001:00030c80       ?parse_int_from_format_string@?$output_processor@_WV?$string_output_adapter@_W@__crt_stdio_output@@V?$standard_base@_WV?$string_output_adapter@_W@__crt_stdio_output@@@2@@__crt_stdio_output@@AEAA_NQEAH@Z 0000000180031c80 f i libucrt:output.obj
 0001:00030d00       ?process@?$output_processor@DV?$stream_output_adapter@D@__crt_stdio_output@@V?$standard_base@DV?$stream_output_adapter@D@__crt_stdio_output@@@2@@__crt_stdio_output@@QEAAHXZ 0000000180031d00 f i libucrt:output.obj
 0001:00030f10       ?process@?$output_processor@DV?$string_output_adapter@D@__crt_stdio_output@@V?$standard_base@DV?$string_output_adapter@D@__crt_stdio_output@@@2@@__crt_stdio_output@@QEAAHXZ 0000000180031f10 f i libucrt:output.obj
 0001:00031114       ?process@?$output_processor@_WV?$stream_output_adapter@_W@__crt_stdio_output@@V?$standard_base@_WV?$stream_output_adapter@_W@__crt_stdio_output@@@2@@__crt_stdio_output@@QEAAHXZ 0000000180032114 f i libucrt:output.obj
 0001:0003138c       ?process@?$output_processor@_WV?$string_output_adapter@_W@__crt_stdio_output@@V?$standard_base@_WV?$string_output_adapter@_W@__crt_stdio_output@@@2@@__crt_stdio_output@@QEAAHXZ 000000018003238c f i libucrt:output.obj
 0001:00031608       ?state_case_normal@?$output_processor@DV?$stream_output_adapter@D@__crt_stdio_output@@V?$standard_base@DV?$stream_output_adapter@D@__crt_stdio_output@@@2@@__crt_stdio_output@@AEAA_NXZ 0000000180032608 f i libucrt:output.obj
 0001:00031678       ?state_case_normal@?$output_processor@DV?$string_output_adapter@D@__crt_stdio_output@@V?$standard_base@DV?$string_output_adapter@D@__crt_stdio_output@@@2@@__crt_stdio_output@@AEAA_NXZ 0000000180032678 f i libucrt:output.obj
 0001:000316ec       ?state_case_normal_tchar@?$output_processor@DV?$stream_output_adapter@D@__crt_stdio_output@@V?$standard_base@DV?$stream_output_adapter@D@__crt_stdio_output@@@2@@__crt_stdio_output@@AEAA_ND@Z 00000001800326ec f i libucrt:output.obj
 0001:00031780       ?state_case_normal_tchar@?$output_processor@DV?$string_output_adapter@D@__crt_stdio_output@@V?$standard_base@DV?$string_output_adapter@D@__crt_stdio_output@@@2@@__crt_stdio_output@@AEAA_ND@Z 0000000180032780 f i libucrt:output.obj
 0001:00031818       ?state_case_size@?$output_processor@DV?$stream_output_adapter@D@__crt_stdio_output@@V?$standard_base@DV?$stream_output_adapter@D@__crt_stdio_output@@@2@@__crt_stdio_output@@AEAA_NXZ 0000000180032818 f i libucrt:output.obj
 0001:00031994       ?state_case_size@?$output_processor@DV?$string_output_adapter@D@__crt_stdio_output@@V?$standard_base@DV?$string_output_adapter@D@__crt_stdio_output@@@2@@__crt_stdio_output@@AEAA_NXZ 0000000180032994 f i libucrt:output.obj
 0001:00031b10       ?state_case_size@?$output_processor@_WV?$stream_output_adapter@_W@__crt_stdio_output@@V?$standard_base@_WV?$stream_output_adapter@_W@__crt_stdio_output@@@2@@__crt_stdio_output@@AEAA_NXZ 0000000180032b10 f i libucrt:output.obj
 0001:00031cb4       ?state_case_size@?$output_processor@_WV?$string_output_adapter@_W@__crt_stdio_output@@V?$standard_base@_WV?$string_output_adapter@_W@__crt_stdio_output@@@2@@__crt_stdio_output@@AEAA_NXZ 0000000180032cb4 f i libucrt:output.obj
 0001:00031e58       ?state_case_type@?$output_processor@DV?$stream_output_adapter@D@__crt_stdio_output@@V?$standard_base@DV?$stream_output_adapter@D@__crt_stdio_output@@@2@@__crt_stdio_output@@AEAA_NXZ 0000000180032e58 f i libucrt:output.obj
 0001:000320d4       ?state_case_type@?$output_processor@DV?$string_output_adapter@D@__crt_stdio_output@@V?$standard_base@DV?$string_output_adapter@D@__crt_stdio_output@@@2@@__crt_stdio_output@@AEAA_NXZ 00000001800330d4 f i libucrt:output.obj
 0001:00032350       ?state_case_type@?$output_processor@_WV?$stream_output_adapter@_W@__crt_stdio_output@@V?$standard_base@_WV?$stream_output_adapter@_W@__crt_stdio_output@@@2@@__crt_stdio_output@@AEAA_NXZ 0000000180033350 f i libucrt:output.obj
 0001:0003261c       ?state_case_type@?$output_processor@_WV?$string_output_adapter@_W@__crt_stdio_output@@V?$standard_base@_WV?$string_output_adapter@_W@__crt_stdio_output@@@2@@__crt_stdio_output@@AEAA_NXZ 000000018003361c f i libucrt:output.obj
 0001:000328e8       ?type_case_Z@?$output_processor@DV?$stream_output_adapter@D@__crt_stdio_output@@V?$standard_base@DV?$stream_output_adapter@D@__crt_stdio_output@@@2@@__crt_stdio_output@@AEAA_NXZ 00000001800338e8 f i libucrt:output.obj
 0001:000328e8       ?type_case_Z@?$output_processor@DV?$string_output_adapter@D@__crt_stdio_output@@V?$standard_base@DV?$string_output_adapter@D@__crt_stdio_output@@@2@@__crt_stdio_output@@AEAA_NXZ 00000001800338e8 f i libucrt:output.obj
 0001:00032968       ?type_case_Z@?$output_processor@_WV?$string_output_adapter@_W@__crt_stdio_output@@V?$standard_base@_WV?$string_output_adapter@_W@__crt_stdio_output@@@2@@__crt_stdio_output@@AEAA_NXZ 0000000180033968 f i libucrt:output.obj
 0001:00032968       ?type_case_Z@?$output_processor@_WV?$stream_output_adapter@_W@__crt_stdio_output@@V?$standard_base@_WV?$stream_output_adapter@_W@__crt_stdio_output@@@2@@__crt_stdio_output@@AEAA_NXZ 0000000180033968 f i libucrt:output.obj
 0001:000329e8       ?type_case_a@?$output_processor@DV?$string_output_adapter@D@__crt_stdio_output@@V?$standard_base@DV?$string_output_adapter@D@__crt_stdio_output@@@2@@__crt_stdio_output@@AEAA_NXZ 00000001800339e8 f i libucrt:output.obj
 0001:000329e8       ?type_case_a@?$output_processor@DV?$stream_output_adapter@D@__crt_stdio_output@@V?$standard_base@DV?$stream_output_adapter@D@__crt_stdio_output@@@2@@__crt_stdio_output@@AEAA_NXZ 00000001800339e8 f i libucrt:output.obj
 0001:00032c04       ?type_case_a@?$output_processor@_WV?$string_output_adapter@_W@__crt_stdio_output@@V?$standard_base@_WV?$string_output_adapter@_W@__crt_stdio_output@@@2@@__crt_stdio_output@@AEAA_NXZ 0000000180033c04 f i libucrt:output.obj
 0001:00032c04       ?type_case_a@?$output_processor@_WV?$stream_output_adapter@_W@__crt_stdio_output@@V?$standard_base@_WV?$stream_output_adapter@_W@__crt_stdio_output@@@2@@__crt_stdio_output@@AEAA_NXZ 0000000180033c04 f i libucrt:output.obj
 0001:00032e48       ?type_case_c_tchar@?$output_processor@DV?$stream_output_adapter@D@__crt_stdio_output@@V?$standard_base@DV?$stream_output_adapter@D@__crt_stdio_output@@@2@@__crt_stdio_output@@AEAA_ND@Z 0000000180033e48 f i libucrt:output.obj
 0001:00032e48       ?type_case_c_tchar@?$output_processor@DV?$string_output_adapter@D@__crt_stdio_output@@V?$standard_base@DV?$string_output_adapter@D@__crt_stdio_output@@@2@@__crt_stdio_output@@AEAA_ND@Z 0000000180033e48 f i libucrt:output.obj
 0001:00032efc       ?type_case_c_tchar@?$output_processor@_WV?$string_output_adapter@_W@__crt_stdio_output@@V?$standard_base@_WV?$string_output_adapter@_W@__crt_stdio_output@@@2@@__crt_stdio_output@@AEAA_N_W@Z 0000000180033efc f i libucrt:output.obj
 0001:00032efc       ?type_case_c_tchar@?$output_processor@_WV?$stream_output_adapter@_W@__crt_stdio_output@@V?$standard_base@_WV?$stream_output_adapter@_W@__crt_stdio_output@@@2@@__crt_stdio_output@@AEAA_N_W@Z 0000000180033efc f i libucrt:output.obj
 0001:00032fa4       ?type_case_integer@?$output_processor@DV?$string_output_adapter@D@__crt_stdio_output@@V?$standard_base@DV?$string_output_adapter@D@__crt_stdio_output@@@2@@__crt_stdio_output@@AEAA_NI_N@Z 0000000180033fa4 f i libucrt:output.obj
 0001:00032fa4       ?type_case_integer@?$output_processor@_WV?$stream_output_adapter@_W@__crt_stdio_output@@V?$standard_base@_WV?$stream_output_adapter@_W@__crt_stdio_output@@@2@@__crt_stdio_output@@AEAA_NI_N@Z 0000000180033fa4 f i libucrt:output.obj
 0001:00032fa4       ?type_case_integer@?$output_processor@_WV?$string_output_adapter@_W@__crt_stdio_output@@V?$standard_base@_WV?$string_output_adapter@_W@__crt_stdio_output@@@2@@__crt_stdio_output@@AEAA_NI_N@Z 0000000180033fa4 f i libucrt:output.obj
 0001:00032fa4       ?type_case_integer@?$output_processor@DV?$stream_output_adapter@D@__crt_stdio_output@@V?$standard_base@DV?$stream_output_adapter@D@__crt_stdio_output@@@2@@__crt_stdio_output@@AEAA_NI_N@Z 0000000180033fa4 f i libucrt:output.obj
 0001:00033144       ?type_case_n@?$output_processor@DV?$stream_output_adapter@D@__crt_stdio_output@@V?$standard_base@DV?$stream_output_adapter@D@__crt_stdio_output@@@2@@__crt_stdio_output@@AEAA_NXZ 0000000180034144 f i libucrt:output.obj
 0001:00033144       ?type_case_n@?$output_processor@_WV?$stream_output_adapter@_W@__crt_stdio_output@@V?$standard_base@_WV?$stream_output_adapter@_W@__crt_stdio_output@@@2@@__crt_stdio_output@@AEAA_NXZ 0000000180034144 f i libucrt:output.obj
 0001:00033144       ?type_case_n@?$output_processor@DV?$string_output_adapter@D@__crt_stdio_output@@V?$standard_base@DV?$string_output_adapter@D@__crt_stdio_output@@@2@@__crt_stdio_output@@AEAA_NXZ 0000000180034144 f i libucrt:output.obj
 0001:00033144       ?type_case_n@?$output_processor@_WV?$string_output_adapter@_W@__crt_stdio_output@@V?$standard_base@_WV?$string_output_adapter@_W@__crt_stdio_output@@@2@@__crt_stdio_output@@AEAA_NXZ 0000000180034144 f i libucrt:output.obj
 0001:00033220       ?type_case_s@?$output_processor@DV?$string_output_adapter@D@__crt_stdio_output@@V?$standard_base@DV?$string_output_adapter@D@__crt_stdio_output@@@2@@__crt_stdio_output@@AEAA_NXZ 0000000180034220 f i libucrt:output.obj
 0001:00033220       ?type_case_s@?$output_processor@DV?$stream_output_adapter@D@__crt_stdio_output@@V?$standard_base@DV?$stream_output_adapter@D@__crt_stdio_output@@@2@@__crt_stdio_output@@AEAA_NXZ 0000000180034220 f i libucrt:output.obj
 0001:000332b0       ?type_case_s@?$output_processor@_WV?$stream_output_adapter@_W@__crt_stdio_output@@V?$standard_base@_WV?$stream_output_adapter@_W@__crt_stdio_output@@@2@@__crt_stdio_output@@AEAA_NXZ 00000001800342b0 f i libucrt:output.obj
 0001:000332b0       ?type_case_s@?$output_processor@_WV?$string_output_adapter@_W@__crt_stdio_output@@V?$standard_base@_WV?$string_output_adapter@_W@__crt_stdio_output@@@2@@__crt_stdio_output@@AEAA_NXZ 00000001800342b0 f i libucrt:output.obj
 0001:00033378       ?validate_stream_is_ansi_if_required@?$__acrt_stdio_char_traits@D@@SA_NQEAU_iobuf@@@Z 0000000180034378 f i libucrt:output.obj
 0001:00033404       ?write_stored_string_tchar@?$output_processor@DV?$stream_output_adapter@D@__crt_stdio_output@@V?$standard_base@DV?$stream_output_adapter@D@__crt_stdio_output@@@2@@__crt_stdio_output@@AEAA_ND@Z 0000000180034404 f i libucrt:output.obj
 0001:000334dc       ?write_stored_string_tchar@?$output_processor@DV?$string_output_adapter@D@__crt_stdio_output@@V?$standard_base@DV?$string_output_adapter@D@__crt_stdio_output@@@2@@__crt_stdio_output@@AEAA_ND@Z 00000001800344dc f i libucrt:output.obj
 0001:000335b4       ?write_stored_string_tchar@?$output_processor@_WV?$stream_output_adapter@_W@__crt_stdio_output@@V?$standard_base@_WV?$stream_output_adapter@_W@__crt_stdio_output@@@2@@__crt_stdio_output@@AEAA_N_W@Z 00000001800345b4 f i libucrt:output.obj
 0001:000336a0       ?write_stored_string_tchar@?$output_processor@_WV?$string_output_adapter@_W@__crt_stdio_output@@V?$standard_base@_WV?$string_output_adapter@_W@__crt_stdio_output@@@2@@__crt_stdio_output@@AEAA_N_W@Z 00000001800346a0 f i libucrt:output.obj
 0001:00033790       ?write_string@?$stream_output_adapter@D@__crt_stdio_output@@QEBAXQEBDHQEAH1@Z 0000000180034790 f i libucrt:output.obj
 0001:00033888       ?write_string@?$stream_output_adapter@_W@__crt_stdio_output@@QEBAXQEB_WHQEAH1@Z 0000000180034888 f i libucrt:output.obj
 0001:00033994       ?write_string@?$string_output_adapter@D@__crt_stdio_output@@QEBAXQEBDHQEAH1@Z 0000000180034994 f i libucrt:output.obj
 0001:00033a50       ?write_string@?$string_output_adapter@_W@__crt_stdio_output@@QEBAXQEB_WHQEAH1@Z 0000000180034a50 f i libucrt:output.obj
 0001:00033b10       __stdio_common_vfprintf    0000000180034b10 f   libucrt:output.obj
 0001:00033b9c       __stdio_common_vfwprintf   0000000180034b9c f   libucrt:output.obj
 0001:00033c28       __stdio_common_vsprintf    0000000180034c28 f   libucrt:output.obj
 0001:00033e5c       __stdio_common_vswprintf   0000000180034e5c f   libucrt:output.obj
 0001:000340b0       strncpy                    00000001800350b0 f   libucrt:strncpy.obj
 0001:000342ac       _time64                    00000001800352ac f   libucrt:time.obj
 0001:000342ec       _dclass                    00000001800352ec f   libucrt:nan.obj
 0001:00034308       __acrt_initialize_stdio    0000000180035308 f   libucrt:_file.obj
 0001:00034428       __acrt_iob_func            0000000180035428 f   libucrt:_file.obj
 0001:0003443c       __acrt_uninitialize_stdio  000000018003543c f   libucrt:_file.obj
 0001:00034498       _lock_file                 0000000180035498 f   libucrt:_file.obj
 0001:000344a4       _unlock_file               00000001800354a4 f   libucrt:_file.obj
 0001:000344b0       ??$is_overflow_condition@K@__crt_strtox@@YA_NIK@Z 00000001800354b0 f i libucrt:strtox.obj
 0001:000344dc       ??$make_c_string_character_source@_WPEAPEA_W@__crt_strtox@@YA?AV?$c_string_character_source@_W@0@QEB_WQEAPEA_W@Z 00000001800354dc f i libucrt:strtox.obj
 0001:000344dc       ??$make_c_string_character_source@DPEAPEAD@__crt_strtox@@YA?AV?$c_string_character_source@D@0@QEBDQEAPEAD@Z 00000001800354dc f i libucrt:strtox.obj
 0001:000344f0       ??$parse_integer@KV?$c_string_character_source@D@__crt_strtox@@@__crt_strtox@@YAKQEAU__crt_locale_pointers@@V?$c_string_character_source@D@0@H_N@Z 00000001800354f0 f i libucrt:strtox.obj
 0001:00034804       ??$parse_integer@KV?$c_string_character_source@_W@__crt_strtox@@@__crt_strtox@@YAKQEAU__crt_locale_pointers@@V?$c_string_character_source@_W@0@H_N@Z 0000000180035804 f i libucrt:strtox.obj
 0001:00034ed8       strtol                     0000000180035ed8 f   libucrt:strtox.obj
 0001:00034f08       wcstol                     0000000180035f08 f   libucrt:strtox.obj
 0001:0003502c       getenv                     000000018003602c f   libucrt:getenv.obj
 0001:00035104       fopen                      0000000180036104 f   libucrt:fopen.obj
 0001:00035110       _fclose_nolock             0000000180036110 f   libucrt:fclose.obj
 0001:00035194       fclose                     0000000180036194 f   libucrt:fclose.obj
 0001:00035200       realloc                    0000000180036200 f   libucrt:realloc.obj
 0001:0003547c       fseek                      000000018003647c f   libucrt:fseek.obj
 0001:00035484       free                       0000000180036484 f   libucrt:free.obj
 0001:0003548c       isdigit                    000000018003648c f i libucrt:_ctype.obj
 0001:00035500       isspace                    0000000180036500 f i libucrt:_ctype.obj
 0001:00035590       strncat                    0000000180036590 f   libucrt:strncat.obj
 0001:00035728       _fread_nolock_s            0000000180036728 f   libucrt:fread.obj
 0001:000359a8       fread                      00000001800369a8 f   libucrt:fread.obj
 0001:000359c8       fread_s                    00000001800369c8 f   libucrt:fread.obj
 0001:00035a70       malloc                     0000000180036a70 f   libucrt:malloc.obj
 0001:00035a90       strncmp                    0000000180036a90 f   libucrt:strncmp.obj
 0001:00035b10       calloc                     0000000180036b10 f   libucrt:calloc.obj
 0001:00035b18       __ascii_stricmp            0000000180036b18 f   libucrt:stricmp.obj
 0001:00035b54       _stricmp                   0000000180036b54 f   libucrt:stricmp.obj
 0001:00035b9c       _stricmp_l                 0000000180036b9c f   libucrt:stricmp.obj
 0001:00035c50       __acrt_initialize_new_handler 0000000180036c50 f   libucrt:new_handler.obj
 0001:00035c58       _callnewh                  0000000180036c58 f   libucrt:new_handler.obj
 0001:00035c98       _query_new_handler         0000000180036c98 f   libucrt:new_handler.obj
 0001:00035ccc       terminate                  0000000180036ccc f   libucrt:terminate.obj
 0001:00035cf4       _seh_filter_dll            0000000180036cf4 f   libucrt:exception_filter.obj
 0001:00035d08       _seh_filter_exe            0000000180036d08 f   libucrt:exception_filter.obj
 0001:000360c8       __acrt_initialize_thread_local_exit_callback 00000001800370c8 f   libucrt:exit.obj
 0001:000360d0       _cexit                     00000001800370d0 f   libucrt:exit.obj
 0001:000360e0       _exit                      00000001800370e0 f   libucrt:exit.obj
 0001:000360ec       _is_c_termination_complete 00000001800370ec f   libucrt:exit.obj
 0001:000362b0       __acrt_allocate_buffer_for_argv 00000001800372b0 f   libucrt:argv_parsing.obj
 0001:00036314       _configure_narrow_argv     0000000180037314 f   libucrt:argv_parsing.obj
 0001:0003678c       __dcrt_get_or_create_narrow_environment_nolock 000000018003778c f   libucrt:environment_initialization.obj
 0001:00036794       __dcrt_uninitialize_environments_nolock 0000000180037794 f   libucrt:environment_initialization.obj
 0001:000367cc       _initialize_narrow_environment 00000001800377cc f   libucrt:environment_initialization.obj
 0001:000367d4       ??$?RV<lambda_b8c45f8f788dd370798f47cfe8ac3a86>@@AEAV<lambda_4e60a939b0d047cfe11ddc22648dfba9>@@V<lambda_332c3edc96d0294ec56c57d38c1cdfd5>@@@?$__crt_seh_guarded_call@H@@QEAAH$$QEAV<lambda_b8c45f8f788dd370798f47cfe8ac3a86>@@AEAV<lambda_4e60a939b0d047cfe11ddc22648dfba9>@@$$QEAV<lambda_332c3edc96d0294ec56c57d38c1cdfd5>@@@Z 00000001800377d4 f i libucrt:onexit.obj
 0001:00036810       ??$?RV<lambda_e24bbb7b643b32fcea6fa61b31d4c984>@@AEAV<lambda_275893d493268fdec8709772e3fcec0e>@@V<lambda_9d71df4d7cf3f480f8d633942495c3b0>@@@?$__crt_seh_guarded_call@H@@QEAAH$$QEAV<lambda_e24bbb7b643b32fcea6fa61b31d4c984>@@AEAV<lambda_275893d493268fdec8709772e3fcec0e>@@$$QEAV<lambda_9d71df4d7cf3f480f8d633942495c3b0>@@@Z 0000000180037810 f i libucrt:onexit.obj
 0001:00036b8c       _crt_atexit                0000000180037b8c f   libucrt:onexit.obj
 0001:00036b9c       _execute_onexit_table      0000000180037b9c f   libucrt:onexit.obj
 0001:00036bd8       _initialize_onexit_table   0000000180037bd8 f   libucrt:onexit.obj
 0001:00036c18       _register_onexit_function  0000000180037c18 f   libucrt:onexit.obj
 0001:00036d94       __acrt_initialize          0000000180037d94 f   libucrt:initialization.obj
 0001:00036da8       __acrt_thread_attach       0000000180037da8 f   libucrt:initialization.obj
 0001:00036dbc       __acrt_thread_detach       0000000180037dbc f   libucrt:initialization.obj
 0001:00036dcc       __acrt_uninitialize        0000000180037dcc f   libucrt:initialization.obj
 0001:00036de0       __acrt_uninitialize_critical 0000000180037de0 f   libucrt:initialization.obj
 0001:00036df0       _initterm                  0000000180037df0 f   libucrt:initterm.obj
 0001:00036e68       _initterm_e                0000000180037e68 f   libucrt:initterm.obj
 0001:00036eb4       abort                      0000000180037eb4 f   libucrt:abort.obj
 0001:00036f0c       strcpy_s                   0000000180037f0c f   libucrt:strcpy_s.obj
 0001:00036f6c       _free_base                 0000000180037f6c f   libucrt:free_base.obj
 0001:00036fac       _malloc_base               0000000180037fac f   libucrt:malloc_base.obj
 0001:0003700c       _calloc_base               000000018003800c f   libucrt:calloc_base.obj
 0001:00037084       _query_app_type            0000000180038084 f   libucrt:report_runtime_error.obj
 0001:0003708c       __acrt_errno_from_os_error 000000018003808c f   libucrt:errno.obj
 0001:000370d4       __acrt_errno_map_os_error  00000001800380d4 f   libucrt:errno.obj
 0001:00037124       __doserrno                 0000000180038124 f   libucrt:errno.obj
 0001:00037144       _errno                     0000000180038144 f   libucrt:errno.obj
 0001:0003728c       _itow_s                    000000018003828c f   libucrt:xtoa.obj
 0001:000372ac       _set_error_mode            00000001800382ac f   libucrt:set_error_mode.obj
 0001:000372ec       wcscat_s                   00000001800382ec f   libucrt:wcscat_s.obj
 0001:0003736c       wcscpy_s                   000000018003836c f   libucrt:wcscpy_s.obj
 0001:000373d4       wcsncat_s                  00000001800383d4 f   libucrt:wcsncat_s.obj
 0001:000374fc       __acrt_show_wide_message_box 00000001800384fc f   libucrt:crtmbox.obj
 0001:00037618       __acrt_stdio_flush_nolock  0000000180038618 f   libucrt:fflush.obj
 0001:00037690       _fflush_nolock             0000000180038690 f   libucrt:fflush.obj
 0001:000376dc       _flushall                  00000001800386dc f   libucrt:fflush.obj
 0001:000377cc       fflush                     00000001800387cc f   libucrt:fflush.obj
 0001:00037810       ??$?RV<lambda_7a5ef57ff966f610505f1d28a3d40618>@@AEAV<lambda_b721fa326cdb32351d23dfa67958c160>@@V<lambda_5e0fb27672408a07956fe59e48ccb2aa>@@@?$__crt_seh_guarded_call@H@@QEAAH$$QEAV<lambda_7a5ef57ff966f610505f1d28a3d40618>@@AEAV<lambda_b721fa326cdb32351d23dfa67958c160>@@$$QEAV<lambda_5e0fb27672408a07956fe59e48ccb2aa>@@@Z 0000000180038810 f i libucrt:setvbuf.obj
 0001:00037940       setvbuf                    0000000180038940 f   libucrt:setvbuf.obj
 0001:000379e0       ??$?RV<lambda_c36588078e9f5dfd39652860aa6b3aaf>@@AEAV<lambda_ec61778202f4f5fc7e7711acc23c3bca>@@V<lambda_dc9d2797ccde5d239b4a0efae8ebd7db>@@@?$__crt_seh_guarded_call@P6AXH@Z@@QEAAP6AXH@Z$$QEAV<lambda_c36588078e9f5dfd39652860aa6b3aaf>@@AEAV<lambda_ec61778202f4f5fc7e7711acc23c3bca>@@$$QEAV<lambda_dc9d2797ccde5d239b4a0efae8ebd7db>@@@Z 00000001800389e0 f i libucrt:signal.obj
 0001:00037a28       __acrt_get_sigabrt_handler 0000000180038a28 f   libucrt:signal.obj
 0001:00037a58       __acrt_initialize_signal_handlers 0000000180038a58 f   libucrt:signal.obj
 0001:00037a78       raise                      0000000180038a78 f   libucrt:signal.obj
 0001:00037d14       ??$?RV<lambda_46352004c1216016012b18bd6f87e700>@@AEAV<lambda_3bd07e1a1191394380780325891bf33f>@@V<lambda_334532d3f185bcaa59b5be82d7d22bff>@@@?$__crt_seh_guarded_call@X@@QEAAX$$QEAV<lambda_46352004c1216016012b18bd6f87e700>@@AEAV<lambda_3bd07e1a1191394380780325891bf33f>@@$$QEAV<lambda_334532d3f185bcaa59b5be82d7d22bff>@@@Z 0000000180038d14 f i libucrt:per_thread_data.obj
 0001:00037d74       ??$?RV<lambda_5e887d1dcbef67a5eb4283622ba103bf>@@AEAV<lambda_4466841279450cc726390878d4a41900>@@V<lambda_341c25c0346d94847f1f3c463c57e077>@@@?$__crt_seh_guarded_call@X@@QEAAX$$QEAV<lambda_5e887d1dcbef67a5eb4283622ba103bf>@@AEAV<lambda_4466841279450cc726390878d4a41900>@@$$QEAV<lambda_341c25c0346d94847f1f3c463c57e077>@@@Z 0000000180038d74 f i libucrt:per_thread_data.obj
 0001:00037dbc       ??$?RV<lambda_72d1df2b273a38828b1ce30cbf4cdab5>@@AEAV<lambda_876a65b173b8412d3a47c70a915b0cf4>@@V<lambda_41932305e351933ebe8f8be3ed8bb5dc>@@@?$__crt_seh_guarded_call@X@@QEAAX$$QEAV<lambda_72d1df2b273a38828b1ce30cbf4cdab5>@@AEAV<lambda_876a65b173b8412d3a47c70a915b0cf4>@@$$QEAV<lambda_41932305e351933ebe8f8be3ed8bb5dc>@@@Z 0000000180038dbc f i libucrt:per_thread_data.obj
 0001:00037dfc       ??$?RV<lambda_fb3a7dec4e47f37f22dae91bb15c9095>@@AEAV<lambda_698284760c8add0bfb0756c19673e34b>@@V<lambda_dfb8eca1e75fef3034a8fb18dd509707>@@@?$__crt_seh_guarded_call@X@@QEAAX$$QEAV<lambda_fb3a7dec4e47f37f22dae91bb15c9095>@@AEAV<lambda_698284760c8add0bfb0756c19673e34b>@@$$QEAV<lambda_dfb8eca1e75fef3034a8fb18dd509707>@@@Z 0000000180038dfc f i libucrt:per_thread_data.obj
 0001:0003808c       __acrt_freeptd             000000018003908c f   libucrt:per_thread_data.obj
 0001:000380d0       __acrt_getptd              00000001800390d0 f   libucrt:per_thread_data.obj
 0001:00038164       __acrt_getptd_noexit       0000000180039164 f   libucrt:per_thread_data.obj
 0001:00038204       __acrt_initialize_ptd      0000000180039204 f   libucrt:per_thread_data.obj
 0001:00038240       __acrt_uninitialize_ptd    0000000180039240 f   libucrt:per_thread_data.obj
 0001:000382b4       _tolower_l                 00000001800392b4 f   libucrt:tolower_toupper.obj
 0001:000383f4       tolower                    00000001800393f4 f   libucrt:tolower_toupper.obj
 0001:00038420       _mbtowc_l                  0000000180039420 f   libucrt:mbtowc.obj
 0001:00038568       mbtowc                     0000000180039568 f   libucrt:mbtowc.obj
 0001:00038570       _wctomb_s_l                0000000180039570 f   libucrt:wctomb.obj
 0001:000386f4       wctomb_s                   00000001800396f4 f   libucrt:wctomb.obj
 0001:00038708       strnlen                    0000000180039708 f   libucrt:strnlen.obj
 0001:00038864       wcsnlen                    0000000180039864 f   libucrt:strnlen.obj
 0001:00038a54       __acrt_update_locale_info  0000000180039a54 f   libucrt:locale_update.obj
 0001:00038a88       __acrt_update_multibyte_info 0000000180039a88 f   libucrt:locale_update.obj
 0001:00038abc       ?__acrt_fp_classify@@YA?AW4__acrt_fp_class@@AEBN@Z 0000000180039abc f i libucrt:cvt.obj
 0001:000394f4       __acrt_fp_format           000000018003a4f4 f   libucrt:cvt.obj
 0001:00039738       _fputwc_nolock             000000018003a738 f   libucrt:fputwc.obj
 0001:000398b4       _fileno                    000000018003a8b4 f   libucrt:fileno.obj
 0001:000398dc       _fputc_nolock              000000018003a8dc f   libucrt:fputc.obj
 0001:000398f4       _get_printf_count_output   000000018003a8f4 f   libucrt:printf_count_output.obj
 0001:0003990c       __acrt_stdio_begin_temporary_buffering_nolock 000000018003a90c f   libucrt:_sftbuf.obj
 0001:000399dc       __acrt_stdio_end_temporary_buffering_nolock 000000018003a9dc f   libucrt:_sftbuf.obj
 0001:00039a18       __acrt_set_locale_changed  000000018003aa18 f   libucrt:wsetlocale.obj
 0001:00039a24       __acrt_uninitialize_locale 000000018003aa24 f   libucrt:wsetlocale.obj
 0001:00039c54       __acrt_initialize_lowio    000000018003ac54 f   libucrt:ioinit.obj
 0001:00039c90       __acrt_uninitialize_lowio  000000018003ac90 f   libucrt:ioinit.obj
 0001:00039e70       __acrt_AreFileApisANSI     000000018003ae70 f   libucrt:winapi_thunks.obj
 0001:00039ebc       __acrt_CompareStringEx     000000018003aebc f   libucrt:winapi_thunks.obj
 0001:00039fac       __acrt_FlsAlloc            000000018003afac f   libucrt:winapi_thunks.obj
 0001:0003a004       __acrt_FlsFree             000000018003b004 f   libucrt:winapi_thunks.obj
 0001:0003a05c       __acrt_FlsGetValue         000000018003b05c f   libucrt:winapi_thunks.obj
 0001:0003a0b4       __acrt_FlsSetValue         000000018003b0b4 f   libucrt:winapi_thunks.obj
 0001:0003a11c       __acrt_GetSystemTimePreciseAsFileTime 000000018003b11c f   libucrt:winapi_thunks.obj
 0001:0003a174       __acrt_InitializeCriticalSectionEx 000000018003b174 f   libucrt:winapi_thunks.obj
 0001:0003a1ec       __acrt_LCMapStringEx       000000018003b1ec f   libucrt:winapi_thunks.obj
 0001:0003a2dc       __acrt_LocaleNameToLCID    000000018003b2dc f   libucrt:winapi_thunks.obj
 0001:0003a344       __acrt_MessageBoxW         000000018003b344 f   libucrt:winapi_thunks.obj
 0001:0003a3cc       __acrt_can_show_message_box 000000018003b3cc f   libucrt:winapi_thunks.obj
 0001:0003a428       __acrt_get_parent_window   000000018003b428 f   libucrt:winapi_thunks.obj
 0001:0003a4b8       __acrt_initialize_winapi_thunks 000000018003b4b8 f   libucrt:winapi_thunks.obj
 0001:0003a4f0       __acrt_is_interactive      000000018003b4f0 f   libucrt:winapi_thunks.obj
 0001:0003a5c4       __acrt_is_packaged_app     000000018003b5c4 f   libucrt:winapi_thunks.obj
 0001:0003a64c       __acrt_uninitialize_winapi_thunks 000000018003b64c f   libucrt:winapi_thunks.obj
 0001:0003a690       _dtest                     000000018003b690 f   libucrt:_test.obj
 0001:0003a6f0       _fcloseall                 000000018003b6f0 f   libucrt:closeall.obj
 0001:0003a7a4       __acrt_stdio_free_buffer_nolock 000000018003b7a4 f   libucrt:_freebuf.obj
 0001:0003a7e4       __pctype_func              000000018003b7e4 f   libucrt:ctype.obj
 0001:0003a814       iswctype                   000000018003b814 f   libucrt:iswctype.obj
 0001:0003a884       _isctype_l                 000000018003b884 f   libucrt:isctype.obj
 0001:0003a994       _strnicoll                 000000018003b994 f   libucrt:strnicol.obj
 0001:0003a9ac       _strnicoll_l               000000018003b9ac f   libucrt:strnicol.obj
 0001:0003aaac       __acrt_initialize_locks    000000018003baac f   libucrt:locks.obj
 0001:0003aaf4       __acrt_lock                000000018003baf4 f   libucrt:locks.obj
 0001:0003ab10       __acrt_uninitialize_locks  000000018003bb10 f   libucrt:locks.obj
 0001:0003ab48       __acrt_unlock              000000018003bb48 f   libucrt:locks.obj
 0001:0003ab64       ?__acrt_stdio_allocate_stream@@YA?AV__crt_stdio_stream@@XZ 000000018003bb64 f   libucrt:stream.obj
 0001:0003abc0       ?__acrt_stdio_free_stream@@YAXV__crt_stdio_stream@@@Z 000000018003bbc0 f   libucrt:stream.obj
 0001:0003acf0       ??$__acrt_stdio_parse_mode@D@@YA?AU__acrt_stdio_stream_mode@@QEBD@Z 000000018003bcf0 f i libucrt:openfile.obj
 0001:0003af8c       _openfile                  000000018003bf8c f   libucrt:openfile.obj
 0001:0003b028       ??$?RV<lambda_bfedae4ebbf01fab1bb6dcc6a9e276e0>@@AEAV<lambda_2fe9b910cf3cbf4a0ab98a02ba45b3ec>@@V<lambda_237c231691f317818eb88cc1d5d642d6>@@@?$__crt_seh_guarded_call@H@@QEAAH$$QEAV<lambda_bfedae4ebbf01fab1bb6dcc6a9e276e0>@@AEAV<lambda_2fe9b910cf3cbf4a0ab98a02ba45b3ec>@@$$QEAV<lambda_237c231691f317818eb88cc1d5d642d6>@@@Z 000000018003c028 f i libucrt:close.obj
 0001:0003b09c       _close                     000000018003c09c f   libucrt:close.obj
 0001:0003b140       _close_nolock              000000018003c140 f   libucrt:close.obj
 0001:0003b1fc       _realloc_base              000000018003c1fc f   libucrt:realloc_base.obj
 0001:0003b6e8       _ftelli64_nolock           000000018003c6e8 f   libucrt:ftell.obj
 0001:0003b87c       _lseeki64                  000000018003c87c f   libucrt:lseek.obj
 0001:0003b884       _lseeki64_nolock           000000018003c884 f   libucrt:lseek.obj
 0001:0003bdbc       _read                      000000018003cdbc f   libucrt:read.obj
 0001:0003bed4       _read_nolock               000000018003ced4 f   libucrt:read.obj
 0001:0003c4e4       __acrt_stdio_refill_and_read_narrow_nolock 000000018003d4e4 f   libucrt:_filbuf.obj
 0001:0003c9c8       ?expand_if_necessary@?$argument_list@D@?A0xca0879c4@@AEAAHXZ 000000018003d9c8 f i libucrt:argv_wildcards.obj
 0001:0003ca90       __acrt_expand_narrow_argv_wildcards 000000018003da90 f   libucrt:argv_wildcards.obj
 0001:0003ca98       ??$?RV<lambda_99476a1ad63dd22509b5d3e65b0ffc95>@@AEAV<lambda_ad1ced32f4ac17aa236e5ef05d6b3b7c>@@V<lambda_f7424dd8d45958661754dc4f2697e9c3>@@@?$__crt_seh_guarded_call@X@@QEAAX$$QEAV<lambda_99476a1ad63dd22509b5d3e65b0ffc95>@@AEAV<lambda_ad1ced32f4ac17aa236e5ef05d6b3b7c>@@$$QEAV<lambda_f7424dd8d45958661754dc4f2697e9c3>@@@Z 000000018003da98 f i libucrt:mbctype.obj
 0001:0003d194       __acrt_initialize_multibyte 000000018003e194 f   libucrt:mbctype.obj
 0001:0003d1bc       __acrt_update_thread_multibyte_data 000000018003e1bc f   libucrt:mbctype.obj
 0001:0003d27c       _setmbcp_nolock            000000018003e27c f   libucrt:mbctype.obj
 0001:0003d59c       _ismbblead                 000000018003e59c f   libucrt:ismbbyte.obj
 0001:0003d5b0       __acrt_initialize_command_line 000000018003e5b0 f   libucrt:argv_data.obj
 0001:0003d5d8       __dcrt_get_narrow_environment_from_os 000000018003e5d8 f   libucrt:get_environment_from_os.obj
 0001:0003dab8       __dcrt_set_variable_in_narrow_environment_nolock 000000018003eab8 f   libucrt:setenv.obj
 0001:0003dac0       _recalloc                  000000018003eac0 f   libucrt:recalloc.obj
 0001:0003dac8       _recalloc_base             000000018003eac8 f   libucrt:recalloc.obj
 0001:0003db60       __acrt_initialize_heap     000000018003eb60 f   libucrt:heap_handle.obj
 0001:0003db7c       __acrt_uninitialize_heap   000000018003eb7c f   libucrt:heap_handle.obj
 0001:0003db88       __acrt_execute_initializers 000000018003eb88 f   libucrt:shared_initialization.obj
 0001:0003dc1c       __acrt_execute_uninitializers 000000018003ec1c f   libucrt:shared_initialization.obj
 0001:0003dc6c       __acrt_has_user_matherr    000000018003ec6c f   libucrt:matherr.obj
 0001:0003dc8c       __acrt_initialize_user_matherr 000000018003ec8c f   libucrt:matherr.obj
 0001:0003dc94       __acrt_invoke_user_matherr 000000018003ec94 f   libucrt:matherr.obj
 0001:0003dcdc       _query_new_mode            000000018003ecdc f   libucrt:new_mode.obj
 0001:0003dce4       ??$?RV<lambda_b521505b218e5242e90febf6bfebc422>@@AEAV<lambda_6978c1fb23f02e42e1d9e99668cc68aa>@@V<lambda_314360699dd331753a4119843814e9a7>@@@?$__crt_seh_guarded_call@H@@QEAAH$$QEAV<lambda_b521505b218e5242e90febf6bfebc422>@@AEAV<lambda_6978c1fb23f02e42e1d9e99668cc68aa>@@$$QEAV<lambda_314360699dd331753a4119843814e9a7>@@@Z 000000018003ece4 f i libucrt:commit.obj
 0001:0003dd70       _commit                    000000018003ed70 f   libucrt:commit.obj
 0001:0003e3a4       _write                     000000018003f3a4 f   libucrt:write.obj
 0001:0003e490       _write_nolock              000000018003f490 f   libucrt:write.obj
 0001:0003e774       __acrt_add_locale_ref      000000018003f774 f   libucrt:locale_refcounting.obj
 0001:0003e800       __acrt_free_locale         000000018003f800 f   libucrt:locale_refcounting.obj
 0001:0003e978       __acrt_locale_add_lc_time_reference 000000018003f978 f   libucrt:locale_refcounting.obj
 0001:0003e9a0       __acrt_locale_free_lc_time_if_unreferenced 000000018003f9a0 f   libucrt:locale_refcounting.obj
 0001:0003e9d8       __acrt_locale_release_lc_time_reference 000000018003f9d8 f   libucrt:locale_refcounting.obj
 0001:0003ea00       __acrt_release_locale_ref  000000018003fa00 f   libucrt:locale_refcounting.obj
 0001:0003eaa8       __acrt_update_thread_locale_data 000000018003faa8 f   libucrt:locale_refcounting.obj
 0001:0003eb18       _updatetlocinfoEx_nolock   000000018003fb18 f   libucrt:locale_refcounting.obj
 0001:0003eb80       _isleadbyte_l              000000018003fb80 f i libucrt:_wctype.obj
 0001:0003ef1c       __acrt_LCMapStringA        000000018003ff1c f   libucrt:lcmapstringa.obj
 0001:0003efb4       __acrt_fp_strflt_to_string 000000018003ffb4 f   libucrt:_fptostr.obj
 0001:0003f080       ?divide@__crt_strtox@@YA_KAEAUbig_integer@1@AEBU21@@Z 0000000180040080 f i libucrt:cfout.obj
 0001:0003f550       __acrt_fltout              0000000180040550 f   libucrt:cfout.obj
 0001:00040b54       __acrt_stdio_flush_and_write_narrow_nolock 0000000180041b54 f   libucrt:_flsbuf.obj
 0001:00040c3c       __acrt_stdio_flush_and_write_wide_nolock 0000000180041c3c f   libucrt:_flsbuf.obj
 0001:00040d28       _isatty                    0000000180041d28 f   libucrt:isatty.obj
 0001:00040d88       __acrt_locale_free_monetary 0000000180041d88 f   libucrt:initmon.obj
 0001:00040e94       __acrt_locale_free_numeric 0000000180041e94 f   libucrt:initnum.obj
 0001:00040f58       __acrt_locale_free_time    0000000180041f58 f   libucrt:inittime.obj
 0001:00041060       __acrt_GetStringTypeA      0000000180042060 f   libucrt:getstringtypea.obj
 0001:00041214       __acrt_lowio_create_handle_array 0000000180042214 f   libucrt:osfinfo.obj
 0001:000412ac       __acrt_lowio_destroy_handle_array 00000001800422ac f   libucrt:osfinfo.obj
 0001:000412fc       __acrt_lowio_ensure_fh_exists 00000001800422fc f   libucrt:osfinfo.obj
 0001:000413b4       __acrt_lowio_lock_fh       00000001800423b4 f   libucrt:osfinfo.obj
 0001:000413d8       __acrt_lowio_set_os_handle 00000001800423d8 f   libucrt:osfinfo.obj
 0001:00041498       __acrt_lowio_unlock_fh     0000000180042498 f   libucrt:osfinfo.obj
 0001:000414bc       _alloc_osfhnd              00000001800424bc f   libucrt:osfinfo.obj
 0001:000415ec       _free_osfhnd               00000001800425ec f   libucrt:osfinfo.obj
 0001:000416a8       _get_osfhandle             00000001800426a8 f   libucrt:osfinfo.obj
 0001:000417e8       __acrt_DownlevelLocaleNameToLCID 00000001800427e8 f   libucrt:lcidtoname_downlevel.obj
 0001:0004181c       _getfpcontrolword          000000018004281c f   libucrt:_fenvutils.obj
 0001:00041834       _getfpstatusword           0000000180042834 f   libucrt:_fenvutils.obj
 0001:00041848       _setfpcontrolword          0000000180042848 f   libucrt:_fenvutils.obj
 0001:00041854       _setfpstatusword           0000000180042854 f   libucrt:_fenvutils.obj
 0001:000418a4       __ascii_strnicmp           00000001800428a4 f   libucrt:strnicmp.obj
 0001:000418ec       _strnicmp                  00000001800428ec f   libucrt:strnicmp.obj
 0001:0004193c       _strnicmp_l                000000018004293c f   libucrt:strnicmp.obj
 0001:00041dac       __acrt_CompareStringA      0000000180042dac f   libucrt:comparestringa.obj
 0001:0004247c       _sopen_nolock              000000018004347c f   libucrt:open.obj
 0001:0004250c       _sopen_s                   000000018004350c f   libucrt:open.obj
 0001:00042540       _wsopen_nolock             0000000180043540 f   libucrt:open.obj
 0001:00042930       __acrt_stdio_allocate_buffer_nolock 0000000180043930 f   libucrt:_getbuf.obj
 0001:00042a70       qsort                      0000000180043a70 f   libucrt:qsort.obj
 0001:00042da4       strncpy_s                  0000000180043da4 f   libucrt:strncpy_s.obj
 0001:00042e78       strpbrk                    0000000180043e78 f   libucrt:strpbrk.obj
 0001:00042f18       _mbsdec                    0000000180043f18 f   libucrt:mbsdec.obj
 0001:00042f20       _mbsdec_l                  0000000180043f20 f   libucrt:mbsdec.obj
 0001:00042fd0       _msize                     0000000180043fd0 f   libucrt:msize.obj
 0001:0004300c       _putwch_nolock             000000018004400c f   libucrt:putwch.obj
 0001:00043068       __strncnt                  0000000180044068 f   libucrt:strncnt.obj
 0001:00043080       fegetenv                   0000000180044080 f   libucrt:fegetenv.obj
 0001:000430a0       fesetenv                   00000001800440a0 f   libucrt:fesetenv.obj
 0001:000430ec       feholdexcept               00000001800440ec f   libucrt:feholdexcept.obj
 0001:0004313c       ceil                       000000018004413c f   libucrt:ceil.obj
 0001:00043200       log10                      0000000180044200 f   libucrt:log10.obj
 0001:000437ac       _clearfp                   00000001800447ac f   libucrt:ieee.obj
 0001:00043800       _controlfp                 0000000180044800 f   libucrt:ieee.obj
 0001:0004380c       _statusfp                  000000018004480c f   libucrt:ieee.obj
 0001:00043b00       _get_fpsr                  0000000180044b00 f   libucrt:fpsr.obj
 0001:00043b10       _set_fpsr                  0000000180044b10 f   libucrt:fpsr.obj
 0001:00043b1a       _fclrf                     0000000180044b1a f   libucrt:fpsr.obj
 0001:00043b2e       _frnd                      0000000180044b2e f   libucrt:fpsr.obj
 0001:00043b50       _get_fmode                 0000000180044b50 f   libucrt:setmode.obj
 0001:00043b80       _setmode_nolock            0000000180044b80 f   libucrt:setmode.obj
 0001:00043c60       __acrt_copy_path_to_wide_string 0000000180044c60 f   libucrt:string_utilities.obj
 0001:00043d58       _chsize_nolock             0000000180044d58 f   libucrt:chsize.obj
 0001:00043ed4       __dcrt_lowio_initialize_console_output 0000000180044ed4 f   libucrt:initcon.obj
 0001:00043f10       __dcrt_terminate_console_output 0000000180044f10 f   libucrt:initcon.obj
 0001:00044054       _handle_error              0000000180045054 f   libucrt:libm_error.obj
 0001:0004417c       _handle_nan                000000018004517c f   libucrt:libm_error.obj
 0001:000441a0       __acrt_initialize_fma3     00000001800451a0 f   libucrt:fma3_available.obj
 0001:00044210       _log10_special             0000000180045210 f   libucrt:log_special.obj
 0001:000442c8       _raise_exc                 00000001800452c8 f   libucrt:fpexcept.obj
 0001:000442f0       _raise_exc_ex              00000001800452f0 f   libucrt:fpexcept.obj
 0001:000445f8       _set_errno_from_matherr    00000001800455f8 f   libucrt:fpexcept.obj
 0001:00044628       _clrfp                     0000000180045628 f   libucrt:fpctrl.obj
 0001:00044648       _ctrlfp                    0000000180045648 f   libucrt:fpctrl.obj
 0001:000446c4       _set_statfp                00000001800456c4 f   libucrt:fpctrl.obj
 0001:000446e4       _statfp                    00000001800456e4 f   libucrt:fpctrl.obj
 0001:000446f6       IsProcessorFeaturePresent  00000001800456f6 f   kernel32:KERNEL32.dll
 0001:000446fc       RtlUnwindEx                00000001800456fc f   kernel32:KERNEL32.dll
 0001:00044704       ?DloadAcquireSectionWriteAccess@@YAXXZ 0000000180045704 f i DelayImp:delayhlp.obj
 0001:000447c0       ?DloadGetSRWLockFunctionPointers@@YAEXZ 00000001800457c0 f i DelayImp:delayhlp.obj
 0001:0004485c       ?DloadMakePermanentImageCommit@@YAXPEAX_K@Z 000000018004585c f i DelayImp:delayhlp.obj
 0001:000448f4       ?DloadObtainSection@@YAPEAXPEAK0@Z 00000001800458f4 f i DelayImp:delayhlp.obj
 0001:0004498c       ?DloadProtectSection@@YAXKPEAK@Z 000000018004598c f i DelayImp:delayhlp.obj
 0001:00044a1c       ?DloadReleaseSectionWriteAccess@@YAXXZ 0000000180045a1c f i DelayImp:delayhlp.obj
 0001:00044ac0       __delayLoadHelper2         0000000180045ac0 f   DelayImp:delayhlp.obj
 0001:00044dc0       _FindPESection             0000000180045dc0 f   LIBCMT:pesect.obj
 0001:00044e10       _IsNonwritableInCurrentImage 0000000180045e10 f   LIBCMT:pesect.obj
 0001:00044e60       _ValidateImageBase         0000000180045e60 f   LIBCMT:pesect.obj
 0001:00044e90       __GSHandlerCheck           0000000180045e90 f   LIBCMT:_gshandler_.obj
 0001:00044eb0       __GSHandlerCheckCommon     0000000180045eb0 f   LIBCMT:_gshandler_.obj
 0001:00044f20       _alloca_probe              0000000180045f20 f   LIBCMT:_chkstk_.obj
 0001:00044f20       __chkstk                   0000000180045f20 f   LIBCMT:_chkstk_.obj
 0001:00044f90       memcmp                     0000000180045f90 f   libvcruntime:memcmp.obj
 0001:00045058       __GSHandlerCheck_EH        0000000180046058 f   LIBCMT:gshandlereh.obj
 0001:000450f0       strcmp                     00000001800460f0 f   libucrt:strcmp.obj
 0001:00045170       _guard_dispatch_icall_nop  0000000180046170 f   LIBCMT:_guard_dispatch_.obj
 0002:00000000       __imp_EnterCriticalSection 0000000180048000     kernel32:KERNEL32.dll
 0002:00000008       __imp_LeaveCriticalSection 0000000180048008     kernel32:KERNEL32.dll
 0002:00000010       __imp_GetCurrentThreadId   0000000180048010     kernel32:KERNEL32.dll
 0002:00000018       __imp_GetLocalTime         0000000180048018     kernel32:KERNEL32.dll
 0002:00000020       __imp_InitializeCriticalSection 0000000180048020     kernel32:KERNEL32.dll
 0002:00000028       __imp_DeleteCriticalSection 0000000180048028     kernel32:KERNEL32.dll
 0002:00000030       __imp_GetModuleFileNameA   0000000180048030     kernel32:KERNEL32.dll
 0002:00000038       __imp_GetCurrentDirectoryA 0000000180048038     kernel32:KERNEL32.dll
 0002:00000040       __imp_FormatMessageW       0000000180048040     kernel32:KERNEL32.dll
 0002:00000048       __imp_GetLastError         0000000180048048     kernel32:KERNEL32.dll
 0002:00000050       __imp_LoadLibraryA         0000000180048050     kernel32:KERNEL32.dll
 0002:00000058       __imp_GetProcAddress       0000000180048058     kernel32:KERNEL32.dll
 0002:00000060       __imp_LocalFree            0000000180048060     kernel32:KERNEL32.dll
 0002:00000068       __imp_FreeLibrary          0000000180048068     kernel32:KERNEL32.dll
 0002:00000070       __imp_WideCharToMultiByte  0000000180048070     kernel32:KERNEL32.dll
 0002:00000078       __imp_GetModuleHandleA     0000000180048078     kernel32:KERNEL32.dll
 0002:00000080       __imp_RtlCaptureContext    0000000180048080     kernel32:KERNEL32.dll
 0002:00000088       __imp_RtlLookupFunctionEntry 0000000180048088     kernel32:KERNEL32.dll
 0002:00000090       __imp_RtlVirtualUnwind     0000000180048090     kernel32:KERNEL32.dll
 0002:00000098       __imp_UnhandledExceptionFilter 0000000180048098     kernel32:KERNEL32.dll
 0002:000000a0       __imp_SetUnhandledExceptionFilter 00000001800480a0     kernel32:KERNEL32.dll
 0002:000000a8       __imp_GetCurrentProcess    00000001800480a8     kernel32:KERNEL32.dll
 0002:000000b0       __imp_TerminateProcess     00000001800480b0     kernel32:KERNEL32.dll
 0002:000000b8       __imp_IsProcessorFeaturePresent 00000001800480b8     kernel32:KERNEL32.dll
 0002:000000c0       __imp_IsDebuggerPresent    00000001800480c0     kernel32:KERNEL32.dll
 0002:000000c8       __imp_GetStartupInfoW      00000001800480c8     kernel32:KERNEL32.dll
 0002:000000d0       __imp_GetModuleHandleW     00000001800480d0     kernel32:KERNEL32.dll
 0002:000000d8       __imp_QueryPerformanceCounter 00000001800480d8     kernel32:KERNEL32.dll
 0002:000000e0       __imp_GetCurrentProcessId  00000001800480e0     kernel32:KERNEL32.dll
 0002:000000e8       __imp_GetSystemTimeAsFileTime 00000001800480e8     kernel32:KERNEL32.dll
 0002:000000f0       __imp_InitializeSListHead  00000001800480f0     kernel32:KERNEL32.dll
 0002:000000f8       __imp_RtlPcToFileHeader    00000001800480f8     kernel32:KERNEL32.dll
 0002:00000100       __imp_EncodePointer        0000000180048100     kernel32:KERNEL32.dll
 0002:00000108       __imp_RaiseException       0000000180048108     kernel32:KERNEL32.dll
 0002:00000110       __imp_RtlUnwindEx          0000000180048110     kernel32:KERNEL32.dll
 0002:00000118       __imp_InterlockedFlushSList 0000000180048118     kernel32:KERNEL32.dll
 0002:00000120       __imp_SetLastError         0000000180048120     kernel32:KERNEL32.dll
 0002:00000128       __imp_InitializeCriticalSectionAndSpinCount 0000000180048128     kernel32:KERNEL32.dll
 0002:00000130       __imp_TlsAlloc             0000000180048130     kernel32:KERNEL32.dll
 0002:00000138       __imp_TlsGetValue          0000000180048138     kernel32:KERNEL32.dll
 0002:00000140       __imp_TlsSetValue          0000000180048140     kernel32:KERNEL32.dll
 0002:00000148       __imp_TlsFree              0000000180048148     kernel32:KERNEL32.dll
 0002:00000150       __imp_LoadLibraryExW       0000000180048150     kernel32:KERNEL32.dll
 0002:00000158       __imp_GetStdHandle         0000000180048158     kernel32:KERNEL32.dll
 0002:00000160       __imp_GetFileType          0000000180048160     kernel32:KERNEL32.dll
 0002:00000168       __imp_GetModuleFileNameW   0000000180048168     kernel32:KERNEL32.dll
 0002:00000170       __imp_GetModuleHandleExW   0000000180048170     kernel32:KERNEL32.dll
 0002:00000178       __imp_WriteConsoleW        0000000180048178     kernel32:KERNEL32.dll
 0002:00000180       __imp_ExitProcess          0000000180048180     kernel32:KERNEL32.dll
 0002:00000188       __imp_MultiByteToWideChar  0000000180048188     kernel32:KERNEL32.dll
 0002:00000190       __imp_HeapFree             0000000180048190     kernel32:KERNEL32.dll
 0002:00000198       __imp_HeapAlloc            0000000180048198     kernel32:KERNEL32.dll
 0002:000001a0       __imp_WriteFile            00000001800481a0     kernel32:KERNEL32.dll
 0002:000001a8       __imp_OutputDebugStringW   00000001800481a8     kernel32:KERNEL32.dll
 0002:000001b0       __imp_CloseHandle          00000001800481b0     kernel32:KERNEL32.dll
 0002:000001b8       __imp_WaitForSingleObjectEx 00000001800481b8     kernel32:KERNEL32.dll
 0002:000001c0       __imp_CreateThread         00000001800481c0     kernel32:KERNEL32.dll
 0002:000001c8       __imp_GetACP               00000001800481c8     kernel32:KERNEL32.dll
 0002:000001d0       __imp_CompareStringW       00000001800481d0     kernel32:KERNEL32.dll
 0002:000001d8       __imp_LCMapStringW         00000001800481d8     kernel32:KERNEL32.dll
 0002:000001e0       __imp_GetStringTypeW       00000001800481e0     kernel32:KERNEL32.dll
 0002:000001e8       __imp_HeapReAlloc          00000001800481e8     kernel32:KERNEL32.dll
 0002:000001f0       __imp_ReadFile             00000001800481f0     kernel32:KERNEL32.dll
 0002:000001f8       __imp_SetFilePointerEx     00000001800481f8     kernel32:KERNEL32.dll
 0002:00000200       __imp_GetConsoleMode       0000000180048200     kernel32:KERNEL32.dll
 0002:00000208       __imp_ReadConsoleW         0000000180048208     kernel32:KERNEL32.dll
 0002:00000210       __imp_FindClose            0000000180048210     kernel32:KERNEL32.dll
 0002:00000218       __imp_FindFirstFileExA     0000000180048218     kernel32:KERNEL32.dll
 0002:00000220       __imp_FindNextFileA        0000000180048220     kernel32:KERNEL32.dll
 0002:00000228       __imp_IsValidCodePage      0000000180048228     kernel32:KERNEL32.dll
 0002:00000230       __imp_GetOEMCP             0000000180048230     kernel32:KERNEL32.dll
 0002:00000238       __imp_GetCPInfo            0000000180048238     kernel32:KERNEL32.dll
 0002:00000240       __imp_GetCommandLineA      0000000180048240     kernel32:KERNEL32.dll
 0002:00000248       __imp_GetCommandLineW      0000000180048248     kernel32:KERNEL32.dll
 0002:00000250       __imp_GetEnvironmentStringsW 0000000180048250     kernel32:KERNEL32.dll
 0002:00000258       __imp_FreeEnvironmentStringsW 0000000180048258     kernel32:KERNEL32.dll
 0002:00000260       __imp_SetEnvironmentVariableA 0000000180048260     kernel32:KERNEL32.dll
 0002:00000268       __imp_GetProcessHeap       0000000180048268     kernel32:KERNEL32.dll
 0002:00000270       __imp_FlushFileBuffers     0000000180048270     kernel32:KERNEL32.dll
 0002:00000278       __imp_GetConsoleCP         0000000180048278     kernel32:KERNEL32.dll
 0002:00000280       __imp_SetStdHandle         0000000180048280     kernel32:KERNEL32.dll
 0002:00000288       __imp_CreateFileW          0000000180048288     kernel32:KERNEL32.dll
 0002:00000290       __imp_HeapSize             0000000180048290     kernel32:KERNEL32.dll
 0002:00000298       __imp_SetEndOfFile         0000000180048298     kernel32:KERNEL32.dll
 0002:000002a0       __imp_GetSystemInfo        00000001800482a0     kernel32:KERNEL32.dll
 0002:000002a8       __imp_VirtualProtect       00000001800482a8     kernel32:KERNEL32.dll
 0002:000002b0       __imp_VirtualQuery         00000001800482b0     kernel32:KERNEL32.dll
 0002:000002b8       __imp_LoadLibraryExA       00000001800482b8     kernel32:KERNEL32.dll
 0002:000002c0       \177KERNEL32_NULL_THUNK_DATA 00000001800482c0     kernel32:KERNEL32.dll
 0002:000002c8       __guard_check_icall_fptr   00000001800482c8     LIBCMT:guard_support.obj
 0002:000002d0       __guard_dispatch_icall_fptr 00000001800482d0     LIBCMT:guard_support.obj
 0002:000002d8       __xc_a                     00000001800482d8     LIBCMT:initializers.obj
 0002:00000308       _register_oracledb_        0000000180048308     njsOracle.obj
 0002:00000310       dpiGlobal__initialize_     0000000180048310     dpiGlobal.obj
 0002:00000318       __xc_z                     0000000180048318     LIBCMT:initializers.obj
 0002:00000320       __xi_a                     0000000180048320     LIBCMT:initializers.obj
 0002:00000328       __acrt_stdio_initializer   0000000180048328     libucrt:stdio_initializer.obj
 0002:00000330       __acrt_multibyte_initializer 0000000180048330     libucrt:multibyte_initializer.obj
 0002:00000338       __acrt_tran_fma3_initializer 0000000180048338     libucrt:fma3_initializer.obj
 0002:00000340       __xi_z                     0000000180048340     LIBCMT:initializers.obj
 0002:00000348       __xp_a                     0000000180048348     LIBCMT:initializers.obj
 0002:00000350       __acrt_locale_terminator   0000000180048350     libucrt:locale_initializer.obj
 0002:00000358       __dcrt_console_output_terminator 0000000180048358     libucrt:console_output_initializer.obj
 0002:00000360       __acrt_stdio_terminator    0000000180048360     libucrt:stdio_initializer.obj
 0002:00000368       __xp_z                     0000000180048368     LIBCMT:initializers.obj
 0002:00000370       __xt_a                     0000000180048370     LIBCMT:initializers.obj
 0002:00000378       __xt_z                     0000000180048378     LIBCMT:initializers.obj
 0002:00000380       __sz_node_exe              0000000180048380     node:node.exe
 0002:00000398       ??_7exception@std@@6B@     0000000180048398     libcpmt:xthrow.obj
 0002:000003a8       ??_C@_0BC@EOODALEL@Unknown?5exception?$AA@ 00000001800483a8     libcpmt:xthrow.obj
 0002:000003c8       ??_7bad_alloc@std@@6B@     00000001800483c8     libcpmt:xthrow.obj
 0002:000003d8       ??_C@_0P@GHFPNOJB@bad?5allocation?$AA@ 00000001800483d8     libcpmt:xthrow.obj
 0002:000003f0       ??_7logic_error@std@@6B@   00000001800483f0     libcpmt:xthrow.obj
 0002:00000408       ??_7length_error@std@@6B@  0000000180048408     libcpmt:xthrow.obj
 0002:00000420       ??_7out_of_range@std@@6B@  0000000180048420     libcpmt:xthrow.obj
 0002:00000440       _pDefaultRawDllMain        0000000180048440     LIBCMT:dll_dllmain.obj
 0002:00000440       _pRawDllMain               0000000180048440     LIBCMT:dll_dllmain.obj
 0002:00000450       ??_7type_info@@6B@         0000000180048450     LIBCMT:std_type_info_static.obj
 0002:00000460       ??_7bad_array_new_length@std@@6B@ 0000000180048460     LIBCMT:throw_bad_alloc.obj
 0002:00000470       ??_C@_0BF@KINCDENJ@bad?5array?5new?5length?$AA@ 0000000180048470     LIBCMT:throw_bad_alloc.obj
 0002:00000488       _pDestructExceptionObject  0000000180048488     libvcruntime:frame.obj
 0002:00000498       ??_7bad_exception@std@@6B@ 0000000180048498     libvcruntime:frame.obj
 0002:000004a8       ??_C@_0O@DPKOEFFH@bad?5exception?$AA@ 00000001800484a8     libvcruntime:frame.obj
 0002:000005b8       ??_C@_1BC@DNHGCMLG@?$AAa?$AAd?$AAv?$AAa?$AAp?$AAi?$AA3?$AA2?$AA?$AA@ 00000001800485b8     libvcruntime:winapi_downlevel.obj
 0002:000005d0       ??_C@_1DM@KHCHBNEB@?$AAa?$AAp?$AAi?$AA?9?$AAm?$AAs?$AA?9?$AAw?$AAi?$AAn?$AA?9?$AAc?$AAo?$AAr?$AAe?$AA?9?$AAf?$AAi?$AAb?$AAe?$AAr?$AAs?$AA?9?$AAl?$AA1?$AA?9?$AA1?$AA?9?$AA1?$AA?$AA@ 00000001800485d0     libvcruntime:winapi_downlevel.obj
 0002:00000610       ??_C@_1DK@LPPGFMPP@?$AAa?$AAp?$AAi?$AA?9?$AAm?$AAs?$AA?9?$AAw?$AAi?$AAn?$AA?9?$AAc?$AAo?$AAr?$AAe?$AA?9?$AAs?$AAy?$AAn?$AAc?$AAh?$AA?9?$AAl?$AA1?$AA?9?$AA2?$AA?9?$AA0?$AA?$AA@ 0000000180048610     libvcruntime:winapi_downlevel.obj
 0002:00000650       ??_C@_1BC@GDMECMAK@?$AAk?$AAe?$AAr?$AAn?$AAe?$AAl?$AA3?$AA2?$AA?$AA@ 0000000180048650     libvcruntime:winapi_downlevel.obj
 0002:00000670       ??_C@_08KNHFBNJ@FlsAlloc?$AA@ 0000000180048670     libvcruntime:winapi_downlevel.obj
 0002:00000688       ??_C@_07PEJMOBNF@FlsFree?$AA@ 0000000180048688     libvcruntime:winapi_downlevel.obj
 0002:00000698       ??_C@_0M@GDNOONDI@FlsGetValue?$AA@ 0000000180048698     libvcruntime:winapi_downlevel.obj
 0002:000006b0       ??_C@_0M@JCPCPOEF@FlsSetValue?$AA@ 00000001800486b0     libvcruntime:winapi_downlevel.obj
 0002:000006c8       ??_C@_0BM@HCFOFFN@InitializeCriticalSectionEx?$AA@ 00000001800486c8     libvcruntime:winapi_downlevel.obj
 0002:00000a10       ??_C@_08EHJDFFNH@__based?$CI?$AA@ 0000000180048a10     libvcruntime:undname.obj
 0002:00000a20       ??_C@_07KOLFKCDI@__cdecl?$AA@ 0000000180048a20     libvcruntime:undname.obj
 0002:00000a28       ??_C@_08GHMPAG@__pascal?$AA@ 0000000180048a28     libvcruntime:undname.obj
 0002:00000a38       ??_C@_09IFJBGAPI@__stdcall?$AA@ 0000000180048a38     libvcruntime:undname.obj
 0002:00000a48       ??_C@_0L@NPHFGOKO@__thiscall?$AA@ 0000000180048a48     libvcruntime:undname.obj
 0002:00000a58       ??_C@_0L@JMKHOMEK@__fastcall?$AA@ 0000000180048a58     libvcruntime:undname.obj
 0002:00000a68       ??_C@_0N@BCKKPABJ@__vectorcall?$AA@ 0000000180048a68     libvcruntime:undname.obj
 0002:00000a78       ??_C@_09HIJEGCPM@__clrcall?$AA@ 0000000180048a78     libvcruntime:undname.obj
 0002:00000a84       ??_C@_06GHPCKEAG@__eabi?$AA@ 0000000180048a84     libvcruntime:undname.obj
 0002:00000a90       ??_C@_07JOMMBBKO@__ptr64?$AA@ 0000000180048a90     libvcruntime:undname.obj
 0002:00000a98       ??_C@_0L@PILCLIHE@__restrict?$AA@ 0000000180048a98     libvcruntime:undname.obj
 0002:00000aa8       ??_C@_0M@GFIIJFMG@__unaligned?$AA@ 0000000180048aa8     libvcruntime:undname.obj
 0002:00000ab8       ??_C@_09DHDLOLLB@restrict?$CI?$AA@ 0000000180048ab8     libvcruntime:undname.obj
 0002:00000ac4       ??_C@_04NIHEBCM@?5new?$AA@ 0000000180048ac4     libvcruntime:undname.obj
 0002:00000ad0       ??_C@_07FPCDHGMM@?5delete?$AA@ 0000000180048ad0     libvcruntime:undname.obj
 0002:00000ad8       ??_C@_01NEMOKFLO@?$DN?$AA@ 0000000180048ad8     libvcruntime:undname.obj
 0002:00000adc       ??_C@_02GPIOPFAK@?$DO?$DO?$AA@ 0000000180048adc     libvcruntime:undname.obj
 0002:00000ae0       ??_C@_02FODMEDOG@?$DM?$DM?$AA@ 0000000180048ae0     libvcruntime:undname.obj
 0002:00000ae4       ??_C@_01DCLJPIOD@?$CB?$AA@ 0000000180048ae4     libvcruntime:undname.obj
 0002:00000ae8       ??_C@_02EGOFBIJA@?$DN?$DN?$AA@ 0000000180048ae8     libvcruntime:undname.obj
 0002:00000aec       ??_C@_02FDNJECIE@?$CB?$DN?$AA@ 0000000180048aec     libvcruntime:undname.obj
 0002:00000af0       ??_C@_02GPECMEKF@?$FL?$FN?$AA@ 0000000180048af0     libvcruntime:undname.obj
 0002:00000af8       ??_C@_08LHJFAFGD@operator?$AA@ 0000000180048af8     libvcruntime:undname.obj
 0002:00000b04       ??_C@_02HBOOOICD@?9?$DO?$AA@ 0000000180048b04     libvcruntime:undname.obj
 0002:00000b08       ??_C@_01NBENCBCI@?$CK?$AA@ 0000000180048b08     libvcruntime:undname.obj
 0002:00000b0c       ??_C@_02ECNGHCIF@?$CL?$CL?$AA@ 0000000180048b0c     libvcruntime:undname.obj
 0002:00000b10       ??_C@_02BAABKJLB@?9?9?$AA@ 0000000180048b10     libvcruntime:undname.obj
 0002:00000b14       ??_C@_01JOAMLHOP@?9?$AA@   0000000180048b14     libvcruntime:undname.obj
 0002:00000b18       ??_C@_01MIFGBAGJ@?$CL?$AA@ 0000000180048b18     libvcruntime:undname.obj
 0002:00000b1c       ??_C@_01HNPIGOCE@?$CG?$AA@ 0000000180048b1c     libvcruntime:undname.obj
 0002:00000b20       ??_C@_03MNHNFDLC@?9?$DO?$CK?$AA@ 0000000180048b20     libvcruntime:undname.obj
 0002:00000b24       ??_C@_01KMDKNFGN@?1?$AA@   0000000180048b24     libvcruntime:undname.obj
 0002:00000b28       ??_C@_01FGNFDNOH@?$CF?$AA@ 0000000180048b28     libvcruntime:undname.obj
 0002:00000b2c       ??_C@_01MNNFJEPP@?$DM?$AA@ 0000000180048b2c     libvcruntime:undname.obj
 0002:00000b30       ??_C@_02EHCHHCKH@?$DM?$DN?$AA@ 0000000180048b30     libvcruntime:undname.obj
 0002:00000b34       ??_C@_01PPODPGHN@?$DO?$AA@ 0000000180048b34     libvcruntime:undname.obj
 0002:00000b38       ??_C@_02EEKDKGMJ@?$DO?$DN?$AA@ 0000000180048b38     libvcruntime:undname.obj
 0002:00000b3c       ??_C@_01IHBHIGKO@?0?$AA@   0000000180048b3c     libvcruntime:undname.obj
 0002:00000b40       ??_C@_02HCKGKOFO@?$CI?$CJ?$AA@ 0000000180048b40     libvcruntime:undname.obj
 0002:00000b44       ??_C@_01PJKLJHI@?$HO?$AA@  0000000180048b44     libvcruntime:undname.obj
 0002:00000b48       ??_C@_01JKBOJNNK@?$FO?$AA@ 0000000180048b48     libvcruntime:undname.obj
 0002:00000b4c       ??_C@_01DNKMNLPK@?$HM?$AA@ 0000000180048b4c     libvcruntime:undname.obj
 0002:00000b50       ??_C@_02PPKAJPJL@?$CG?$CG?$AA@ 0000000180048b50     libvcruntime:undname.obj
 0002:00000b54       ??_C@_02NONPIBCD@?$HM?$HM?$AA@ 0000000180048b54     libvcruntime:undname.obj
 0002:00000b58       ??_C@_02FPIMKNGF@?$CK?$DN?$AA@ 0000000180048b58     libvcruntime:undname.obj
 0002:00000b5c       ??_C@_02FOEOMHFC@?$CL?$DN?$AA@ 0000000180048b5c     libvcruntime:undname.obj
 0002:00000b60       ??_C@_02FKMDLLOA@?9?$DN?$AA@ 0000000180048b60     libvcruntime:undname.obj
 0002:00000b64       ??_C@_02FJEHGPIO@?1?$DN?$AA@ 0000000180048b64     libvcruntime:undname.obj
 0002:00000b68       ??_C@_02FENAOKFI@?$CF?$DN?$AA@ 0000000180048b68     libvcruntime:undname.obj
 0002:00000b6c       ??_C@_03IKFCCPFF@?$DO?$DO?$DN?$AA@ 0000000180048b6c     libvcruntime:undname.obj
 0002:00000b70       ??_C@_03CDNPDDLA@?$DM?$DM?$DN?$AA@ 0000000180048b70     libvcruntime:undname.obj
 0002:00000b74       ??_C@_02FGJGFEAB@?$CG?$DN?$AA@ 0000000180048b74     libvcruntime:undname.obj
 0002:00000b78       ??_C@_02DHLNPPGH@?$HM?$DN?$AA@ 0000000180048b78     libvcruntime:undname.obj
 0002:00000b7c       ??_C@_02MHEGNOJ@?$FO?$DN?$AA@ 0000000180048b7c     libvcruntime:undname.obj
 0002:00000b80       ??_C@_09IFPLHPGF@?$GAvftable?8?$AA@ 0000000180048b80     libvcruntime:undname.obj
 0002:00000b90       ??_C@_09BLBHBJP@?$GAvbtable?8?$AA@ 0000000180048b90     libvcruntime:undname.obj
 0002:00000ba0       ??_C@_07FEEIOKP@?$GAvcall?8?$AA@ 0000000180048ba0     libvcruntime:undname.obj
 0002:00000ba8       ??_C@_08LLFFHHDJ@?$GAtypeof?8?$AA@ 0000000180048ba8     libvcruntime:undname.obj
 0002:00000bb8       ??_C@_0BF@KDPPACIK@?$GAlocal?5static?5guard?8?$AA@ 0000000180048bb8     libvcruntime:undname.obj
 0002:00000bd0       ??_C@_08OBABFOLI@?$GAstring?8?$AA@ 0000000180048bd0     libvcruntime:undname.obj
 0002:00000be0       ??_C@_0BD@JDLKDPAB@?$GAvbase?5destructor?8?$AA@ 0000000180048be0     libvcruntime:undname.obj
 0002:00000bf8       ??_C@_0BN@DEGPLNFK@?$GAvector?5deleting?5destructor?8?$AA@ 0000000180048bf8     libvcruntime:undname.obj
 0002:00000c18       ??_C@_0BO@OBMKPJIG@?$GAdefault?5constructor?5closure?8?$AA@ 0000000180048c18     libvcruntime:undname.obj
 0002:00000c38       ??_C@_0BN@IMDCHIKM@?$GAscalar?5deleting?5destructor?8?$AA@ 0000000180048c38     libvcruntime:undname.obj
 0002:00000c58       ??_C@_0BO@PFGOCPJJ@?$GAvector?5constructor?5iterator?8?$AA@ 0000000180048c58     libvcruntime:undname.obj
 0002:00000c78       ??_C@_0BN@LFPFMEDL@?$GAvector?5destructor?5iterator?8?$AA@ 0000000180048c78     libvcruntime:undname.obj
 0002:00000c98       ??_C@_0CE@IKBNEHA@?$GAvector?5vbase?5constructor?5iterat@ 0000000180048c98     libvcruntime:undname.obj
 0002:00000cc0       ??_C@_0BL@NILFHHPC@?$GAvirtual?5displacement?5map?8?$AA@ 0000000180048cc0     libvcruntime:undname.obj
 0002:00000ce0       ??_C@_0CB@JONCMFFK@?$GAeh?5vector?5constructor?5iterator?8@ 0000000180048ce0     libvcruntime:undname.obj
 0002:00000d08       ??_C@_0CA@GCEOPDGL@?$GAeh?5vector?5destructor?5iterator?8?$AA@ 0000000180048d08     libvcruntime:undname.obj
 0002:00000d28       ??_C@_0CH@OOJPLCPH@?$GAeh?5vector?5vbase?5constructor?5ite@ 0000000180048d28     libvcruntime:undname.obj
 0002:00000d50       ??_C@_0BL@LLKPOHJI@?$GAcopy?5constructor?5closure?8?$AA@ 0000000180048d50     libvcruntime:undname.obj
 0002:00000d70       ??_C@_0BA@KBCDOMBN@?$GAudt?5returning?8?$AA@ 0000000180048d70     libvcruntime:undname.obj
 0002:00000d80       ??_C@_03KLGMFNMG@?$GAEH?$AA@ 0000000180048d80     libvcruntime:undname.obj
 0002:00000d84       ??_C@_05KHLCHHI@?$GARTTI?$AA@ 0000000180048d84     libvcruntime:undname.obj
 0002:00000d90       ??_C@_0BA@KKLDJDLB@?$GAlocal?5vftable?8?$AA@ 0000000180048d90     libvcruntime:undname.obj
 0002:00000da0       ??_C@_0CE@IIHCMGGL@?$GAlocal?5vftable?5constructor?5closu@ 0000000180048da0     libvcruntime:undname.obj
 0002:00000dc4       ??_C@_06FHBGPFGH@?5new?$FL?$FN?$AA@ 0000000180048dc4     libvcruntime:undname.obj
 0002:00000dd0       ??_C@_09LBNFPBCA@?5delete?$FL?$FN?$AA@ 0000000180048dd0     libvcruntime:undname.obj
 0002:00000de0       ??_C@_0P@HJKNJFNN@?$GAomni?5callsig?8?$AA@ 0000000180048de0     libvcruntime:undname.obj
 0002:00000df0       ??_C@_0BL@CNOONJFP@?$GAplacement?5delete?5closure?8?$AA@ 0000000180048df0     libvcruntime:undname.obj
 0002:00000e10       ??_C@_0BN@CKNJLHMB@?$GAplacement?5delete?$FL?$FN?5closure?8?$AA@ 0000000180048e10     libvcruntime:undname.obj
 0002:00000e30       ??_C@_0CG@CFDHKGGD@?$GAmanaged?5vector?5constructor?5iter@ 0000000180048e30     libvcruntime:undname.obj
 0002:00000e58       ??_C@_0CF@IMGKMJNO@?$GAmanaged?5vector?5destructor?5itera@ 0000000180048e58     libvcruntime:undname.obj
 0002:00000e80       ??_C@_0CG@HLDDJMAG@?$GAeh?5vector?5copy?5constructor?5iter@ 0000000180048e80     libvcruntime:undname.obj
 0002:00000ea8       ??_C@_0CM@FCBBDIGB@?$GAeh?5vector?5vbase?5copy?5constructo@ 0000000180048ea8     libvcruntime:undname.obj
 0002:00000ed8       ??_C@_0BL@CLIPGLGB@?$GAdynamic?5initializer?5for?5?8?$AA@ 0000000180048ed8     libvcruntime:undname.obj
 0002:00000ef8       ??_C@_0CB@PDBIFEP@?$GAdynamic?5atexit?5destructor?5for?5?8@ 0000000180048ef8     libvcruntime:undname.obj
 0002:00000f20       ??_C@_0CD@CGAJBKEJ@?$GAvector?5copy?5constructor?5iterato@ 0000000180048f20     libvcruntime:undname.obj
 0002:00000f48       ??_C@_0CJ@GJELGAMM@?$GAvector?5vbase?5copy?5constructor?5i@ 0000000180048f48     libvcruntime:undname.obj
 0002:00000f78       ??_C@_0CL@FGIJHLCE@?$GAmanaged?5vector?5copy?5constructor@ 0000000180048f78     libvcruntime:undname.obj
 0002:00000fa8       ??_C@_0BM@PMGGMLDN@?$GAlocal?5static?5thread?5guard?8?$AA@ 0000000180048fa8     libvcruntime:undname.obj
 0002:00000fc8       ??_C@_0N@BDNMDMOL@operator?5?$CC?$CC?5?$AA@ 0000000180048fc8     libvcruntime:undname.obj
 0002:00000fd8       ??_C@_0BC@DAFEJGAK@?5Type?5Descriptor?8?$AA@ 0000000180048fd8     libvcruntime:undname.obj
 0002:00000ff0       ??_C@_0BM@LDKODKLH@?5Base?5Class?5Descriptor?5at?5?$CI?$AA@ 0000000180048ff0     libvcruntime:undname.obj
 0002:00001010       ??_C@_0BD@LGICGFMM@?5Base?5Class?5Array?8?$AA@ 0000000180049010     libvcruntime:undname.obj
 0002:00001028       ??_C@_0BN@MECKDCOJ@?5Class?5Hierarchy?5Descriptor?8?$AA@ 0000000180049028     libvcruntime:undname.obj
 0002:00001048       ??_C@_0BK@CFCOFLF@?5Complete?5Object?5Locator?8?$AA@ 0000000180049048     libvcruntime:undname.obj
 0002:00001070       ??_C@_1EK@MBDPDCGA@?$AAM?$AAi?$AAc?$AAr?$AAo?$AAs?$AAo?$AAf?$AAt?$AA?5?$AAV?$AAi?$AAs?$AAu?$AAa?$AAl?$AA?5?$AAC?$AA?$CL?$AA?$CL?$AA?5?$AAR?$AAu?$AAn?$AAt?$AAi?$AAm?$AAe?$AA?5?$AAL?$AAi?$AAb@ 0000000180049070     libucrt:assert.obj
 0002:000010c0       ??_C@_1FE@LHBLIKM@?$AAA?$AAs?$AAs?$AAe?$AAr?$AAt?$AAi?$AAo?$AAn?$AA?5?$AAf?$AAa?$AAi?$AAl?$AAe?$AAd?$AA?3?$AA?5?$AA?$CF?$AAT?$AAs?$AA?0?$AA?5?$AAf?$AAi?$AAl?$AAe?$AA?5?$AA?$CF?$AAT?$AAs?$AA?0@ 00000001800490c0     libucrt:assert.obj
 0002:00001118       ??_C@_1CE@OJBNHDMO@?$AAA?$AAs?$AAs?$AAe?$AAr?$AAt?$AAi?$AAo?$AAn?$AA?5?$AAf?$AAa?$AAi?$AAl?$AAe?$AAd?$AA?$CB?$AA?$AA@ 0000000180049118     libucrt:assert.obj
 0002:00001140       ??_C@_1BE@PHKBBGE@?$AAP?$AAr?$AAo?$AAg?$AAr?$AAa?$AAm?$AA?3?$AA?5?$AA?$AA@ 0000000180049140     libucrt:assert.obj
 0002:00001158       ??_C@_1O@HEMHKNDC@?$AAF?$AAi?$AAl?$AAe?$AA?3?$AA?5?$AA?$AA@ 0000000180049158     libucrt:assert.obj
 0002:00001168       ??_C@_1O@KCAFKHJE@?$AAL?$AAi?$AAn?$AAe?$AA?3?$AA?5?$AA?$AA@ 0000000180049168     libucrt:assert.obj
 0002:00001178       ??_C@_1BK@PEDCIPMA@?$AAE?$AAx?$AAp?$AAr?$AAe?$AAs?$AAs?$AAi?$AAo?$AAn?$AA?3?$AA?5?$AA?$AA@ 0000000180049178     libucrt:assert.obj
 0002:000011a0       ??_C@_1OA@EGMLFBHJ@?$AAF?$AAo?$AAr?$AA?5?$AAi?$AAn?$AAf?$AAo?$AAr?$AAm?$AAa?$AAt?$AAi?$AAo?$AAn?$AA?5?$AAo?$AAn?$AA?5?$AAh?$AAo?$AAw?$AA?5?$AAy?$AAo?$AAu?$AAr?$AA?5?$AAp?$AAr?$AAo?$AAg@ 00000001800491a0     libucrt:assert.obj
 0002:00001280       ??_C@_1HK@POCJMFGK@?$AA?$CI?$AAP?$AAr?$AAe?$AAs?$AAs?$AA?5?$AAR?$AAe?$AAt?$AAr?$AAy?$AA?5?$AAt?$AAo?$AA?5?$AAd?$AAe?$AAb?$AAu?$AAg?$AA?5?$AAt?$AAh?$AAe?$AA?5?$AAa?$AAp?$AAp?$AAl?$AAi?$AAc@ 0000000180049280     libucrt:assert.obj
 0002:00001300       ??_C@_17LGKOMLJ@?$AA?4?$AA?4?$AA?4?$AA?$AA@ 0000000180049300     libucrt:assert.obj
 0002:00001308       ??_C@_13LBAGMAIH@?$AA?6?$AA?$AA@ 0000000180049308     libucrt:assert.obj
 0002:0000130c       ??_C@_15IABLJNFO@?$AA?6?$AA?6?$AA?$AA@ 000000018004930c     libucrt:assert.obj
 0002:00001318       ??_C@_1CO@EAEJAADC@?$AA?$DM?$AAp?$AAr?$AAo?$AAg?$AAr?$AAa?$AAm?$AA?5?$AAn?$AAa?$AAm?$AAe?$AA?5?$AAu?$AAn?$AAk?$AAn?$AAo?$AAw?$AAn?$AA?$DO?$AA?$AA@ 0000000180049318     libucrt:assert.obj
 0002:00001350       standard_lookup_table      0000000180049350     libucrt:output.obj
 0002:000013ac       ??_C@_06OJHGLDPL@?$CInull?$CJ?$AA@ 00000001800493ac     libucrt:output.obj
 0002:000013b8       ??_C@_1O@CEDCILHN@?$AA?$CI?$AAn?$AAu?$AAl?$AAl?$AA?$CJ?$AA?$AA@ 00000001800493b8     libucrt:output.obj
 0002:000013d0       __acrt_exception_action_table 00000001800493d0     libucrt:exception_filter.obj
 0002:00001490       __acrt_signal_action_table_count 0000000180049490     libucrt:exception_filter.obj
 0002:00001498       __acrt_signal_action_first_fpe_index 0000000180049498     libucrt:exception_filter.obj
 0002:000014a0       __acrt_signal_action_fpe_count 00000001800494a0     libucrt:exception_filter.obj
 0002:000014a8       ??_C@_1BI@BGOHAHKC@?$AAm?$AAs?$AAc?$AAo?$AAr?$AAe?$AAe?$AA?4?$AAd?$AAl?$AAl?$AA?$AA@ 00000001800494a8     libucrt:exit.obj
 0002:000014c0       ??_C@_0P@MIGLKIOC@CorExitProcess?$AA@ 00000001800494c0     libucrt:exit.obj
 0002:00001728       ??_C@_03OEIAHPBN@INF?$AA@  0000000180049728     libucrt:cvt.obj
 0002:0000172c       ??_C@_03OJHLLCGB@inf?$AA@  000000018004972c     libucrt:cvt.obj
 0002:00001730       ??_C@_03LKNCIKJB@NAN?$AA@  0000000180049730     libucrt:cvt.obj
 0002:00001734       ??_C@_03LHCJEHON@nan?$AA@  0000000180049734     libucrt:cvt.obj
 0002:00001738       ??_C@_09OFJJIMPC@NAN?$CISNAN?$CJ?$AA@ 0000000180049738     libucrt:cvt.obj
 0002:00001748       ??_C@_09IPFBKMDL@nan?$CIsnan?$CJ?$AA@ 0000000180049748     libucrt:cvt.obj
 0002:00001758       ??_C@_08IKHNHAJ@NAN?$CIIND?$CJ?$AA@ 0000000180049758     libucrt:cvt.obj
 0002:00001768       ??_C@_08OFCDMILK@nan?$CIind?$CJ?$AA@ 0000000180049768     libucrt:cvt.obj
 0002:00001774       ??_C@_05KLBDPFGC@e?$CL000?$AA@ 0000000180049774     libucrt:cvt.obj
 0002:00001780       __lc_time_c                0000000180049780     libucrt:nlsdata.obj
 0002:00001a40       ??_C@_03KOEHGMDN@Sun?$AA@  0000000180049a40     libucrt:nlsdata.obj
 0002:00001a44       ??_C@_03PDAGKDH@Mon?$AA@   0000000180049a44     libucrt:nlsdata.obj
 0002:00001a48       ??_C@_03NAGEINEP@Tue?$AA@  0000000180049a48     libucrt:nlsdata.obj
 0002:00001a4c       ??_C@_03MHOMLAJA@Wed?$AA@  0000000180049a4c     libucrt:nlsdata.obj
 0002:00001a50       ??_C@_03IOFIKPDN@Thu?$AA@  0000000180049a50     libucrt:nlsdata.obj
 0002:00001a54       ??_C@_03IDIOELNC@Fri?$AA@  0000000180049a54     libucrt:nlsdata.obj
 0002:00001a58       ??_C@_03FEFJNEK@Sat?$AA@   0000000180049a58     libucrt:nlsdata.obj
 0002:00001a5c       ??_C@_06OOPIFAJ@Sunday?$AA@ 0000000180049a5c     libucrt:nlsdata.obj
 0002:00001a64       ??_C@_06JLEDEDGH@Monday?$AA@ 0000000180049a64     libucrt:nlsdata.obj
 0002:00001a70       ??_C@_07BAAGCFCM@Tuesday?$AA@ 0000000180049a70     libucrt:nlsdata.obj
 0002:00001a78       ??_C@_09DLIGFAKA@Wednesday?$AA@ 0000000180049a78     libucrt:nlsdata.obj
 0002:00001a88       ??_C@_08HACCIKIA@Thursday?$AA@ 0000000180049a88     libucrt:nlsdata.obj
 0002:00001a94       ??_C@_06JECMNKMI@Friday?$AA@ 0000000180049a94     libucrt:nlsdata.obj
 0002:00001aa0       ??_C@_08INBOOONO@Saturday?$AA@ 0000000180049aa0     libucrt:nlsdata.obj
 0002:00001aac       ??_C@_03JIHJHPIE@Jan?$AA@  0000000180049aac     libucrt:nlsdata.obj
 0002:00001ab0       ??_C@_03HJBDCHOM@Feb?$AA@  0000000180049ab0     libucrt:nlsdata.obj
 0002:00001ab4       ??_C@_03ODNJBKGA@Mar?$AA@  0000000180049ab4     libucrt:nlsdata.obj
 0002:00001ab8       ??_C@_03LEOLGMJP@Apr?$AA@  0000000180049ab8     libucrt:nlsdata.obj
 0002:00001abc       ??_C@_03CNMDKL@May?$AA@    0000000180049abc     libucrt:nlsdata.obj
 0002:00001ac0       ??_C@_03IDFGHECI@Jun?$AA@  0000000180049ac0     libucrt:nlsdata.obj
 0002:00001ac4       ??_C@_03LBGABGKK@Jul?$AA@  0000000180049ac4     libucrt:nlsdata.obj
 0002:00001ac8       ??_C@_03IFJFEIGA@Aug?$AA@  0000000180049ac8     libucrt:nlsdata.obj
 0002:00001acc       ??_C@_03GGCAPAJC@Sep?$AA@  0000000180049acc     libucrt:nlsdata.obj
 0002:00001ad0       ??_C@_03BMAOKBAD@Oct?$AA@  0000000180049ad0     libucrt:nlsdata.obj
 0002:00001ad4       ??_C@_03JPJOFNIA@Nov?$AA@  0000000180049ad4     libucrt:nlsdata.obj
 0002:00001ad8       ??_C@_03MKABNOCG@Dec?$AA@  0000000180049ad8     libucrt:nlsdata.obj
 0002:00001ae0       ??_C@_07CGJPFGJA@January?$AA@ 0000000180049ae0     libucrt:nlsdata.obj
 0002:00001ae8       ??_C@_08GNJGEPFN@February?$AA@ 0000000180049ae8     libucrt:nlsdata.obj
 0002:00001af4       ??_C@_05HPCKOFNC@March?$AA@ 0000000180049af4     libucrt:nlsdata.obj
 0002:00001afc       ??_C@_05DMJDNLEJ@April?$AA@ 0000000180049afc     libucrt:nlsdata.obj
 0002:00001b04       ??_C@_04CNLMGBGM@June?$AA@ 0000000180049b04     libucrt:nlsdata.obj
 0002:00001b0c       ??_C@_04MIEPOIFP@July?$AA@ 0000000180049b0c     libucrt:nlsdata.obj
 0002:00001b14       ??_C@_06LBBHFDDG@August?$AA@ 0000000180049b14     libucrt:nlsdata.obj
 0002:00001b20       ??_C@_09BHHEALKD@September?$AA@ 0000000180049b20     libucrt:nlsdata.obj
 0002:00001b30       ??_C@_07JJNFCEND@October?$AA@ 0000000180049b30     libucrt:nlsdata.obj
 0002:00001b38       ??_C@_08HCHEGEOA@November?$AA@ 0000000180049b38     libucrt:nlsdata.obj
 0002:00001b48       ??_C@_08EDHMEBNP@December?$AA@ 0000000180049b48     libucrt:nlsdata.obj
 0002:00001b54       ??_C@_02DEDBPAFC@AM?$AA@   0000000180049b54     libucrt:nlsdata.obj
 0002:00001b58       ??_C@_02CJNFDJBF@PM?$AA@   0000000180049b58     libucrt:nlsdata.obj
 0002:00001b60       ??_C@_08BPBNCDIB@MM?1dd?1yy?$AA@ 0000000180049b60     libucrt:nlsdata.obj
 0002:00001b70       ??_C@_0BE@CKGJFCPC@dddd?0?5MMMM?5dd?0?5yyyy?$AA@ 0000000180049b70     libucrt:nlsdata.obj
 0002:00001b88       ??_C@_08JCCMCCIL@HH?3mm?3ss?$AA@ 0000000180049b88     libucrt:nlsdata.obj
 0002:00001b98       ??_C@_17MBGCMIPB@?$AAS?$AAu?$AAn?$AA?$AA@ 0000000180049b98     libucrt:nlsdata.obj
 0002:00001ba0       ??_C@_17KBOMKBF@?$AAM?$AAo?$AAn?$AA?$AA@ 0000000180049ba0     libucrt:nlsdata.obj
 0002:00001ba8       ??_C@_17BMKGEGOJ@?$AAT?$AAu?$AAe?$AA?$AA@ 0000000180049ba8     libucrt:nlsdata.obj
 0002:00001bb0       ??_C@_17CJEDCEPE@?$AAW?$AAe?$AAd?$AA?$AA@ 0000000180049bb0     libucrt:nlsdata.obj
 0002:00001bb8       ??_C@_17PDPHAADD@?$AAT?$AAh?$AAu?$AA?$AA@ 0000000180049bb8     libucrt:nlsdata.obj
 0002:00001bc0       ??_C@_17HFOLPPLP@?$AAF?$AAr?$AAi?$AA?$AA@ 0000000180049bc0     libucrt:nlsdata.obj
 0002:00001bc8       ??_C@_17GGIBDPIH@?$AAS?$AAa?$AAt?$AA?$AA@ 0000000180049bc8     libucrt:nlsdata.obj
 0002:00001bd0       ??_C@_1O@IHNHDHPB@?$AAS?$AAu?$AAn?$AAd?$AAa?$AAy?$AA?$AA@ 0000000180049bd0     libucrt:nlsdata.obj
 0002:00001be0       ??_C@_1O@MMNBFLIA@?$AAM?$AAo?$AAn?$AAd?$AAa?$AAy?$AA?$AA@ 0000000180049be0     libucrt:nlsdata.obj
 0002:00001bf0       ??_C@_1BA@ENFBFFEK@?$AAT?$AAu?$AAe?$AAs?$AAd?$AAa?$AAy?$AA?$AA@ 0000000180049bf0     libucrt:nlsdata.obj
 0002:00001c00       ??_C@_1BE@EBOGMDOH@?$AAW?$AAe?$AAd?$AAn?$AAe?$AAs?$AAd?$AAa?$AAy?$AA?$AA@ 0000000180049c00     libucrt:nlsdata.obj
 0002:00001c18       ??_C@_1BC@HHMNLIHE@?$AAT?$AAh?$AAu?$AAr?$AAs?$AAd?$AAa?$AAy?$AA?$AA@ 0000000180049c18     libucrt:nlsdata.obj
 0002:00001c30       ??_C@_1O@PDICJHAG@?$AAF?$AAr?$AAi?$AAd?$AAa?$AAy?$AA?$AA@ 0000000180049c30     libucrt:nlsdata.obj
 0002:00001c40       ??_C@_1BC@ENMNNPAJ@?$AAS?$AAa?$AAt?$AAu?$AAr?$AAd?$AAa?$AAy?$AA?$AA@ 0000000180049c40     libucrt:nlsdata.obj
 0002:00001c58       ??_C@_17DKNBKCHM@?$AAJ?$AAa?$AAn?$AA?$AA@ 0000000180049c58     libucrt:nlsdata.obj
 0002:00001c60       ??_C@_17LMDJEKJN@?$AAF?$AAe?$AAb?$AA?$AA@ 0000000180049c60     libucrt:nlsdata.obj
 0002:00001c68       ??_C@_17CKNLEDEC@?$AAM?$AAa?$AAr?$AA?$AA@ 0000000180049c68     libucrt:nlsdata.obj
 0002:00001c70       ??_C@_17LFPOIHDD@?$AAA?$AAp?$AAr?$AA?$AA@ 0000000180049c70     libucrt:nlsdata.obj
 0002:00001c78       ??_C@_17PNNKMEED@?$AAM?$AAa?$AAy?$AA?$AA@ 0000000180049c78     libucrt:nlsdata.obj
 0002:00001c80       ??_C@_17KCJGOCPB@?$AAJ?$AAu?$AAn?$AA?$AA@ 0000000180049c80     libucrt:nlsdata.obj
 0002:00001c88       ??_C@_17IJPCKHK@?$AAJ?$AAu?$AAl?$AA?$AA@ 0000000180049c88     libucrt:nlsdata.obj
 0002:00001c90       ??_C@_17ICPELBCN@?$AAA?$AAu?$AAg?$AA?$AA@ 0000000180049c90     libucrt:nlsdata.obj
 0002:00001c98       ??_C@_17HCHCOKMG@?$AAS?$AAe?$AAp?$AA?$AA@ 0000000180049c98     libucrt:nlsdata.obj
 0002:00001ca0       ??_C@_17FNLKOI@?$AAO?$AAc?$AAt?$AA?$AA@ 0000000180049ca0     libucrt:nlsdata.obj
 0002:00001ca8       ??_C@_17BBDMLCIG@?$AAN?$AAo?$AAv?$AA?$AA@ 0000000180049ca8     libucrt:nlsdata.obj
 0002:00001cb0       ??_C@_17EGKACKIF@?$AAD?$AAe?$AAc?$AA?$AA@ 0000000180049cb0     libucrt:nlsdata.obj
 0002:00001cb8       ??_C@_1BA@EFMEIEBA@?$AAJ?$AAa?$AAn?$AAu?$AAa?$AAr?$AAy?$AA?$AA@ 0000000180049cb8     libucrt:nlsdata.obj
 0002:00001cc8       ??_C@_1BC@JGDDFFAM@?$AAF?$AAe?$AAb?$AAr?$AAu?$AAa?$AAr?$AAy?$AA?$AA@ 0000000180049cc8     libucrt:nlsdata.obj
 0002:00001ce0       ??_C@_1M@IKEENEDF@?$AAM?$AAa?$AAr?$AAc?$AAh?$AA?$AA@ 0000000180049ce0     libucrt:nlsdata.obj
 0002:00001cf0       ??_C@_1M@GJNLMHFD@?$AAA?$AAp?$AAr?$AAi?$AAl?$AA?$AA@ 0000000180049cf0     libucrt:nlsdata.obj
 0002:00001d00       ??_C@_19EPFLPGAP@?$AAJ?$AAu?$AAn?$AAe?$AA?$AA@ 0000000180049d00     libucrt:nlsdata.obj
 0002:00001d10       ??_C@_19BIFMLPCD@?$AAJ?$AAu?$AAl?$AAy?$AA?$AA@ 0000000180049d10     libucrt:nlsdata.obj
 0002:00001d20       ??_C@_1O@PAHLKOAC@?$AAA?$AAu?$AAg?$AAu?$AAs?$AAt?$AA?$AA@ 0000000180049d20     libucrt:nlsdata.obj
 0002:00001d30       ??_C@_1BE@DKAAMBJL@?$AAS?$AAe?$AAp?$AAt?$AAe?$AAm?$AAb?$AAe?$AAr?$AA?$AA@ 0000000180049d30     libucrt:nlsdata.obj
 0002:00001d48       ??_C@_1BA@EPANDLNG@?$AAO?$AAc?$AAt?$AAo?$AAb?$AAe?$AAr?$AA?$AA@ 0000000180049d48     libucrt:nlsdata.obj
 0002:00001d58       ??_C@_1BC@BGLIFPF@?$AAN?$AAo?$AAv?$AAe?$AAm?$AAb?$AAe?$AAr?$AA?$AA@ 0000000180049d58     libucrt:nlsdata.obj
 0002:00001d70       ??_C@_1BC@FEMKIFH@?$AAD?$AAe?$AAc?$AAe?$AAm?$AAb?$AAe?$AAr?$AA?$AA@ 0000000180049d70     libucrt:nlsdata.obj
 0002:00001d84       ??_C@_15ODEHAHHF@?$AAA?$AAM?$AA?$AA@ 0000000180049d84     libucrt:nlsdata.obj
 0002:00001d8c       ??_C@_15CLMNNGEL@?$AAP?$AAM?$AA?$AA@ 0000000180049d8c     libucrt:nlsdata.obj
 0002:00001d98       ??_C@_1BC@IEBCMHCM@?$AAM?$AAM?$AA?1?$AAd?$AAd?$AA?1?$AAy?$AAy?$AA?$AA@ 0000000180049d98     libucrt:nlsdata.obj
 0002:00001db0       ??_C@_1CI@KNAKOEBC@?$AAd?$AAd?$AAd?$AAd?$AA?0?$AA?5?$AAM?$AAM?$AAM?$AAM?$AA?5?$AAd?$AAd?$AA?0?$AA?5?$AAy?$AAy?$AAy?$AAy?$AA?$AA@ 0000000180049db0     libucrt:nlsdata.obj
 0002:00001dd8       ??_C@_1BC@GDGBMEMK@?$AAH?$AAH?$AA?3?$AAm?$AAm?$AA?3?$AAs?$AAs?$AA?$AA@ 0000000180049dd8     libucrt:nlsdata.obj
 0002:00001df0       ??_C@_1M@BMHNFIME@?$AAe?$AAn?$AA?9?$AAU?$AAS?$AA?$AA@ 0000000180049df0     libucrt:nlsdata.obj
 0002:00001ea0       ??_C@_1EG@CNNIPFIM@?$AAa?$AAp?$AAi?$AA?9?$AAm?$AAs?$AA?9?$AAw?$AAi?$AAn?$AA?9?$AAa?$AAp?$AAp?$AAm?$AAo?$AAd?$AAe?$AAl?$AA?9?$AAr?$AAu?$AAn?$AAt?$AAi?$AAm?$AAe?$AA?9?$AAl?$AA1?$AA?9?$AA1@ 0000000180049ea0     libucrt:winapi_thunks.obj
 0002:00001ef0       ??_C@_1EA@JGEFHKEI@?$AAa?$AAp?$AAi?$AA?9?$AAm?$AAs?$AA?9?$AAw?$AAi?$AAn?$AA?9?$AAc?$AAo?$AAr?$AAe?$AA?9?$AAd?$AAa?$AAt?$AAe?$AAt?$AAi?$AAm?$AAe?$AA?9?$AAl?$AA1?$AA?9?$AA1?$AA?9?$AA1?$AA?$AA@ 0000000180049ef0     libucrt:winapi_thunks.obj
 0002:00001f30       ??_C@_1DI@GCIAAENM@?$AAa?$AAp?$AAi?$AA?9?$AAm?$AAs?$AA?9?$AAw?$AAi?$AAn?$AA?9?$AAc?$AAo?$AAr?$AAe?$AA?9?$AAf?$AAi?$AAl?$AAe?$AA?9?$AAl?$AA2?$AA?9?$AA1?$AA?9?$AA1?$AA?$AA@ 0000000180049f30     libucrt:winapi_thunks.obj
 0002:00001f70       ??_C@_1EI@MPIAOHOC@?$AAa?$AAp?$AAi?$AA?9?$AAm?$AAs?$AA?9?$AAw?$AAi?$AAn?$AA?9?$AAc?$AAo?$AAr?$AAe?$AA?9?$AAl?$AAo?$AAc?$AAa?$AAl?$AAi?$AAz?$AAa?$AAt?$AAi?$AAo?$AAn?$AA?9?$AAl?$AA1?$AA?9@ 0000000180049f70     libucrt:winapi_thunks.obj
 0002:00001fc0       ??_C@_1FK@FPHCKFIE@?$AAa?$AAp?$AAi?$AA?9?$AAm?$AAs?$AA?9?$AAw?$AAi?$AAn?$AA?9?$AAc?$AAo?$AAr?$AAe?$AA?9?$AAl?$AAo?$AAc?$AAa?$AAl?$AAi?$AAz?$AAa?$AAt?$AAi?$AAo?$AAn?$AA?9?$AAo?$AAb?$AAs@ 0000000180049fc0     libucrt:winapi_thunks.obj
 0002:00002020       ??_C@_1EM@DILCGIIO@?$AAa?$AAp?$AAi?$AA?9?$AAm?$AAs?$AA?9?$AAw?$AAi?$AAn?$AA?9?$AAc?$AAo?$AAr?$AAe?$AA?9?$AAp?$AAr?$AAo?$AAc?$AAe?$AAs?$AAs?$AAt?$AAh?$AAr?$AAe?$AAa?$AAd?$AAs?$AA?9?$AAl@ 000000018004a020     libucrt:winapi_thunks.obj
 0002:00002070       ??_C@_1DM@LNCGDDPN@?$AAa?$AAp?$AAi?$AA?9?$AAm?$AAs?$AA?9?$AAw?$AAi?$AAn?$AA?9?$AAc?$AAo?$AAr?$AAe?$AA?9?$AAs?$AAt?$AAr?$AAi?$AAn?$AAg?$AA?9?$AAl?$AA1?$AA?9?$AA1?$AA?9?$AA0?$AA?$AA@ 000000018004a070     libucrt:winapi_thunks.obj
 0002:000020b0       ??_C@_1DO@FPAPJEMD@?$AAa?$AAp?$AAi?$AA?9?$AAm?$AAs?$AA?9?$AAw?$AAi?$AAn?$AA?9?$AAc?$AAo?$AAr?$AAe?$AA?9?$AAs?$AAy?$AAs?$AAi?$AAn?$AAf?$AAo?$AA?9?$AAl?$AA1?$AA?9?$AA2?$AA?9?$AA1?$AA?$AA@ 000000018004a0b0     libucrt:winapi_thunks.obj
 0002:000020f0       ??_C@_1DK@NDHNAHIO@?$AAa?$AAp?$AAi?$AA?9?$AAm?$AAs?$AA?9?$AAw?$AAi?$AAn?$AA?9?$AAc?$AAo?$AAr?$AAe?$AA?9?$AAw?$AAi?$AAn?$AAr?$AAt?$AA?9?$AAl?$AA1?$AA?9?$AA1?$AA?9?$AA0?$AA?$AA@ 000000018004a0f0     libucrt:winapi_thunks.obj
 0002:00002130       ??_C@_1DM@KGHDGBCM@?$AAa?$AAp?$AAi?$AA?9?$AAm?$AAs?$AA?9?$AAw?$AAi?$AAn?$AA?9?$AAc?$AAo?$AAr?$AAe?$AA?9?$AAx?$AAs?$AAt?$AAa?$AAt?$AAe?$AA?9?$AAl?$AA2?$AA?9?$AA1?$AA?9?$AA0?$AA?$AA@ 000000018004a130     libucrt:winapi_thunks.obj
 0002:00002170       ??_C@_1EO@IJIOEFOH@?$AAa?$AAp?$AAi?$AA?9?$AAm?$AAs?$AA?9?$AAw?$AAi?$AAn?$AA?9?$AAr?$AAt?$AAc?$AAo?$AAr?$AAe?$AA?9?$AAn?$AAt?$AAu?$AAs?$AAe?$AAr?$AA?9?$AAw?$AAi?$AAn?$AAd?$AAo?$AAw?$AA?9@ 000000018004a170     libucrt:winapi_thunks.obj
 0002:000021c0       ??_C@_1FG@HHGEKANL@?$AAa?$AAp?$AAi?$AA?9?$AAm?$AAs?$AA?9?$AAw?$AAi?$AAn?$AA?9?$AAs?$AAe?$AAc?$AAu?$AAr?$AAi?$AAt?$AAy?$AA?9?$AAs?$AAy?$AAs?$AAt?$AAe?$AAm?$AAf?$AAu?$AAn?$AAc?$AAt?$AAi@ 000000018004a1c0     libucrt:winapi_thunks.obj
 0002:00002220       ??_C@_1FG@NCKKOLKO@?$AAe?$AAx?$AAt?$AA?9?$AAm?$AAs?$AA?9?$AAw?$AAi?$AAn?$AA?9?$AAk?$AAe?$AAr?$AAn?$AAe?$AAl?$AA3?$AA2?$AA?9?$AAp?$AAa?$AAc?$AAk?$AAa?$AAg?$AAe?$AA?9?$AAc?$AAu?$AAr?$AAr@ 000000018004a220     libucrt:winapi_thunks.obj
 0002:00002280       ??_C@_1EG@DBIOJECG@?$AAe?$AAx?$AAt?$AA?9?$AAm?$AAs?$AA?9?$AAw?$AAi?$AAn?$AA?9?$AAn?$AAt?$AAu?$AAs?$AAe?$AAr?$AA?9?$AAd?$AAi?$AAa?$AAl?$AAo?$AAg?$AAb?$AAo?$AAx?$AA?9?$AAl?$AA1?$AA?9?$AA1@ 000000018004a280     libucrt:winapi_thunks.obj
 0002:000022d0       ??_C@_1EO@FIHMJCLF@?$AAe?$AAx?$AAt?$AA?9?$AAm?$AAs?$AA?9?$AAw?$AAi?$AAn?$AA?9?$AAn?$AAt?$AAu?$AAs?$AAe?$AAr?$AA?9?$AAw?$AAi?$AAn?$AAd?$AAo?$AAw?$AAs?$AAt?$AAa?$AAt?$AAi?$AAo?$AAn?$AA?9@ 000000018004a2d0     libucrt:winapi_thunks.obj
 0002:00002320       ??_C@_1O@BCCLBEOE@?$AAu?$AAs?$AAe?$AAr?$AA3?$AA2?$AA?$AA@ 000000018004a320     libucrt:winapi_thunks.obj
 0002:00002338       ??_C@_0BA@FHFNEAED@AreFileApisANSI?$AA@ 000000018004a338     libucrt:winapi_thunks.obj
 0002:00002350       ??_C@_0BA@IHGNDAEB@CompareStringEx?$AA@ 000000018004a350     libucrt:winapi_thunks.obj
 0002:00002388       ??_C@_0BA@HNOPNCHB@GetActiveWindow?$AA@ 000000018004a388     libucrt:winapi_thunks.obj
 0002:000023a0       ??_C@_0BE@JOGNEJCI@GetCurrentPackageId?$AA@ 000000018004a3a0     libucrt:winapi_thunks.obj
 0002:000023c0       ??_C@_0BD@HHGDFDBJ@GetLastActivePopup?$AA@ 000000018004a3c0     libucrt:winapi_thunks.obj
 0002:000023e0       ??_C@_0BI@DFKBFLJE@GetProcessWindowStation?$AA@ 000000018004a3e0     libucrt:winapi_thunks.obj
 0002:00002400       ??_C@_0BP@FPNJPEJC@GetSystemTimePreciseAsFileTime?$AA@ 000000018004a400     libucrt:winapi_thunks.obj
 0002:00002428       ??_C@_0BK@DEKFELLI@GetUserObjectInformationW?$AA@ 000000018004a428     libucrt:winapi_thunks.obj
 0002:00002458       ??_C@_0O@KKBNKAPF@LCMapStringEx?$AA@ 000000018004a458     libucrt:winapi_thunks.obj
 0002:00002470       ??_C@_0BB@HBDEELFH@LocaleNameToLCID?$AA@ 000000018004a470     libucrt:winapi_thunks.obj
 0002:00002490       ??_C@_0M@CHKKJDAI@MessageBoxA?$AA@ 000000018004a490     libucrt:winapi_thunks.obj
 0002:000024a8       ??_C@_0M@DLDCCGNP@MessageBoxW?$AA@ 000000018004a4a8     libucrt:winapi_thunks.obj
 0002:000024c0       __newctype                 000000018004a4c0     libucrt:ctype.obj
 0002:000027c0       __newclmap                 000000018004a7c0     libucrt:ctype.obj
 0002:00002940       __newcumap                 000000018004a940     libucrt:ctype.obj
 0002:00002ac0       _wctype                    000000018004aac0     libucrt:ctype.obj
 0002:00002cc4       ?ccs@?BL@???$__acrt_stdio_parse_mode@D@@YA?AU__acrt_stdio_stream_mode@@QEBD@Z@4QBDB 000000018004acc4     libucrt:openfile.obj
 0002:00002cc8       ?utf8_encoding@?BL@???$__acrt_stdio_parse_mode@D@@YA?AU__acrt_stdio_stream_mode@@QEBD@Z@4QBDB 000000018004acc8     libucrt:openfile.obj
 0002:00002cd0       ?utf16_encoding@?BL@???$__acrt_stdio_parse_mode@D@@YA?AU__acrt_stdio_stream_mode@@QEBD@Z@4QBDB 000000018004acd0     libucrt:openfile.obj
 0002:00002cd8       ?unicode_encoding@?BL@???$__acrt_stdio_parse_mode@D@@YA?AU__acrt_stdio_stream_mode@@QEBD@Z@4QBDB 000000018004acd8     libucrt:openfile.obj
 0002:00002d00       ??_C@_1M@HPNHIDJI@?$AAj?$AAa?$AA?9?$AAJ?$AAP?$AA?$AA@ 000000018004ad00     libucrt:mbctype.obj
 0002:00002d10       ??_C@_1M@BIBDDEMK@?$AAz?$AAh?$AA?9?$AAC?$AAN?$AA?$AA@ 000000018004ad10     libucrt:mbctype.obj
 0002:00002d20       ??_C@_1M@JLOOOEGK@?$AAk?$AAo?$AA?9?$AAK?$AAR?$AA?$AA@ 000000018004ad20     libucrt:mbctype.obj
 0002:00002d30       ??_C@_1M@CLNBBOPM@?$AAz?$AAh?$AA?9?$AAT?$AAW?$AA?$AA@ 000000018004ad30     libucrt:mbctype.obj
 0002:00002d40       ?large_power_data@?1??multiply_by_power_of_ten@__crt_strtox@@YA_NAEAUbig_integer@2@I@Z@4QBIB 000000018004ad40     libucrt:cfout.obj
 0002:00003650       ?large_power_indices@?1??multiply_by_power_of_ten@__crt_strtox@@YA_NAEAUbig_integer@2@I@Z@4QBUunpack_index@?1??12@YA_N0I@Z@B 000000018004b650     libucrt:cfout.obj
 0002:000036e8       ?small_powers_of_ten@?6??multiply_by_power_of_ten@__crt_strtox@@YA_NAEAUbig_integer@2@I@Z@4QBIB 000000018004b6e8     libucrt:cfout.obj
 0002:0000370c       ??_C@_01GBGANLPD@0?$AA@    000000018004b70c     libucrt:cfout.obj
 0002:00003710       ??_C@_05DNEBIAHO@1?$CDINF?$AA@ 000000018004b710     libucrt:cfout.obj
 0002:00003718       ??_C@_06IMKFLFPG@1?$CDQNAN?$AA@ 000000018004b718     libucrt:cfout.obj
 0002:00003720       ??_C@_06PGGFOGJG@1?$CDSNAN?$AA@ 000000018004b720     libucrt:cfout.obj
 0002:00003728       ??_C@_05PHHOCPM@1?$CDIND?$AA@ 000000018004b728     libucrt:cfout.obj
 0002:00003730       ??_C@_15PJPFLCCM@?$AAu?$AAk?$AA?$AA@ 000000018004b730     libucrt:get_qualified_locale.obj
 0002:00004580       ??_C@_15EMKDOKLE@?$AAa?$AAr?$AA?$AA@ 000000018004c580     libucrt:lcidtoname_downlevel.obj
 0002:00004588       ??_C@_15KNPADPLH@?$AAb?$AAg?$AA?$AA@ 000000018004c588     libucrt:lcidtoname_downlevel.obj
 0002:00004590       ??_C@_15EDMHLDMO@?$AAc?$AAa?$AA?$AA@ 000000018004c590     libucrt:lcidtoname_downlevel.obj
 0002:00004598       ??_C@_1O@BPEAJADD@?$AAz?$AAh?$AA?9?$AAC?$AAH?$AAS?$AA?$AA@ 000000018004c598     libucrt:lcidtoname_downlevel.obj
 0002:000045a8       ??_C@_15LJNHCMNK@?$AAc?$AAs?$AA?$AA@ 000000018004c5a8     libucrt:lcidtoname_downlevel.obj
 0002:000045b0       ??_C@_15FOMCIDHG@?$AAd?$AAa?$AA?$AA@ 000000018004c5b0     libucrt:lcidtoname_downlevel.obj
 0002:000045b8       ??_C@_15NBKABECB@?$AAd?$AAe?$AA?$AA@ 000000018004c5b8     libucrt:lcidtoname_downlevel.obj
 0002:000045c0       ??_C@_15GHPEIIAO@?$AAe?$AAl?$AA?$AA@ 000000018004c5c0     libucrt:lcidtoname_downlevel.obj
 0002:000045c8       ??_C@_15MNPNEAIF@?$AAe?$AAn?$AA?$AA@ 000000018004c5c8     libucrt:lcidtoname_downlevel.obj
 0002:000045d0       ??_C@_15GPIOMPMH@?$AAe?$AAs?$AA?$AA@ 000000018004c5d0     libucrt:lcidtoname_downlevel.obj
 0002:000045d8       ??_C@_15NGLOAKJC@?$AAf?$AAi?$AA?$AA@ 000000018004c5d8     libucrt:lcidtoname_downlevel.obj
 0002:000045e0       ??_C@_15FBKGNKAM@?$AAf?$AAr?$AA?$AA@ 000000018004c5e0     libucrt:lcidtoname_downlevel.obj
 0002:000045e8       ??_C@_15KGGCNEFK@?$AAh?$AAe?$AA?$AA@ 000000018004c5e8     libucrt:lcidtoname_downlevel.obj
 0002:000045f0       ??_C@_15PGHLIDMF@?$AAh?$AAu?$AA?$AA@ 000000018004c5f0     libucrt:lcidtoname_downlevel.obj
 0002:000045f8       ??_C@_15BIEMAPLM@?$AAi?$AAs?$AA?$AA@ 000000018004c5f8     libucrt:lcidtoname_downlevel.obj
 0002:00004600       ??_C@_15IFJLDHAF@?$AAi?$AAt?$AA?$AA@ 000000018004c600     libucrt:lcidtoname_downlevel.obj
 0002:00004608       ??_C@_15GEMIOCAG@?$AAj?$AAa?$AA?$AA@ 000000018004c608     libucrt:lcidtoname_downlevel.obj
 0002:00004610       ??_C@_15EPELEGJA@?$AAk?$AAo?$AA?$AA@ 000000018004c610     libucrt:lcidtoname_downlevel.obj
 0002:00004618       ??_C@_15NDDHIMN@?$AAn?$AAl?$AA?$AA@ 000000018004c618     libucrt:lcidtoname_downlevel.obj
 0002:00004620       ??_C@_15BPIGNHCD@?$AAn?$AAo?$AA?$AA@ 000000018004c620     libucrt:lcidtoname_downlevel.obj
 0002:00004628       ??_C@_15DEOPBLCG@?$AAp?$AAl?$AA?$AA@ 000000018004c628     libucrt:lcidtoname_downlevel.obj
 0002:00004630       ??_C@_15KBECGEFG@?$AAp?$AAt?$AA?$AA@ 000000018004c630     libucrt:lcidtoname_downlevel.obj
 0002:00004638       ??_C@_15GLJCBFMD@?$AAr?$AAo?$AA?$AA@ 000000018004c638     libucrt:lcidtoname_downlevel.obj
 0002:00004640       ??_C@_15FEDGKCDI@?$AAr?$AAu?$AA?$AA@ 000000018004c640     libucrt:lcidtoname_downlevel.obj
 0002:00004648       ??_C@_15GLKMLLHM@?$AAh?$AAr?$AA?$AA@ 000000018004c648     libucrt:lcidtoname_downlevel.obj
 0002:00004650       ??_C@_15CPKMFBDB@?$AAs?$AAk?$AA?$AA@ 000000018004c650     libucrt:lcidtoname_downlevel.obj
 0002:00004658       ??_C@_15BAAIOGMK@?$AAs?$AAq?$AA?$AA@ 000000018004c658     libucrt:lcidtoname_downlevel.obj
 0002:00004660       ??_C@_15INNPNOHD@?$AAs?$AAv?$AA?$AA@ 000000018004c660     libucrt:lcidtoname_downlevel.obj
 0002:00004668       ??_C@_15CABMMOGH@?$AAt?$AAh?$AA?$AA@ 000000018004c668     libucrt:lcidtoname_downlevel.obj
 0002:00004670       ??_C@_15BPLIHJJM@?$AAt?$AAr?$AA?$AA@ 000000018004c670     libucrt:lcidtoname_downlevel.obj
 0002:00004678       ??_C@_15NEOEKKDJ@?$AAu?$AAr?$AA?$AA@ 000000018004c678     libucrt:lcidtoname_downlevel.obj
 0002:00004680       ??_C@_15NFICGAJK@?$AAi?$AAd?$AA?$AA@ 000000018004c680     libucrt:lcidtoname_downlevel.obj
 0002:00004688       ??_C@_15HPJPHDM@?$AAb?$AAe?$AA?$AA@ 000000018004c688     libucrt:lcidtoname_downlevel.obj
 0002:00004690       ??_C@_15LCHLGJII@?$AAs?$AAl?$AA?$AA@ 000000018004c690     libucrt:lcidtoname_downlevel.obj
 0002:00004698       ??_C@_15PCFJPHHO@?$AAe?$AAt?$AA?$AA@ 000000018004c698     libucrt:lcidtoname_downlevel.obj
 0002:000046a0       ??_C@_15HPFPGODN@?$AAl?$AAv?$AA?$AA@ 000000018004c6a0     libucrt:lcidtoname_downlevel.obj
 0002:000046a8       ??_C@_15NFFGKGLG@?$AAl?$AAt?$AA?$AA@ 000000018004c6a8     libucrt:lcidtoname_downlevel.obj
 0002:000046b0       ??_C@_15BDAKCCHN@?$AAf?$AAa?$AA?$AA@ 000000018004c6b0     libucrt:lcidtoname_downlevel.obj
 0002:000046b8       ??_C@_15NFGIAIAJ@?$AAv?$AAi?$AA?$AA@ 000000018004c6b8     libucrt:lcidtoname_downlevel.obj
 0002:000046c0       ??_C@_15LMKNDMHN@?$AAh?$AAy?$AA?$AA@ 000000018004c6c0     libucrt:lcidtoname_downlevel.obj
 0002:000046c8       ??_C@_15IJBHMCFL@?$AAa?$AAz?$AA?$AA@ 000000018004c6c8     libucrt:lcidtoname_downlevel.obj
 0002:000046d0       ??_C@_15EKOFJABL@?$AAe?$AAu?$AA?$AA@ 000000018004c6d0     libucrt:lcidtoname_downlevel.obj
 0002:000046d8       ??_C@_15BGHADCNK@?$AAm?$AAk?$AA?$AA@ 000000018004c6d8     libucrt:lcidtoname_downlevel.obj
 0002:000046e0       ??_C@_15JDNICKHM@?$AAa?$AAf?$AA?$AA@ 000000018004c6e0     libucrt:lcidtoname_downlevel.obj
 0002:000046e8       ??_C@_15KPJEDBKD@?$AAk?$AAa?$AA?$AA@ 000000018004c6e8     libucrt:lcidtoname_downlevel.obj
 0002:000046f0       ??_C@_15PDNFFFEO@?$AAf?$AAo?$AA?$AA@ 000000018004c6f0     libucrt:lcidtoname_downlevel.obj
 0002:000046f8       ??_C@_15OMLEGLOC@?$AAh?$AAi?$AA?$AA@ 000000018004c6f8     libucrt:lcidtoname_downlevel.obj
 0002:00004700       ??_C@_15IDNNENKK@?$AAm?$AAs?$AA?$AA@ 000000018004c700     libucrt:lcidtoname_downlevel.obj
 0002:00004708       ??_C@_15MACJNBMH@?$AAk?$AAk?$AA?$AA@ 000000018004c708     libucrt:lcidtoname_downlevel.obj
 0002:00004710       ??_C@_15DKDJEOND@?$AAk?$AAy?$AA?$AA@ 000000018004c710     libucrt:lcidtoname_downlevel.obj
 0002:00004718       ??_C@_15DFGDLJBG@?$AAs?$AAw?$AA?$AA@ 000000018004c718     libucrt:lcidtoname_downlevel.obj
 0002:00004720       ??_C@_15BBFAICNG@?$AAu?$AAz?$AA?$AA@ 000000018004c720     libucrt:lcidtoname_downlevel.obj
 0002:00004728       ??_C@_15DKNDCGEA@?$AAt?$AAt?$AA?$AA@ 000000018004c728     libucrt:lcidtoname_downlevel.obj
 0002:00004730       ??_C@_15MGIFMDPL@?$AAp?$AAa?$AA?$AA@ 000000018004c730     libucrt:lcidtoname_downlevel.obj
 0002:00004738       ??_C@_15HCNDBBA@?$AAg?$AAu?$AA?$AA@ 000000018004c738     libucrt:lcidtoname_downlevel.obj
 0002:00004740       ??_C@_15FNBEIBON@?$AAt?$AAa?$AA?$AA@ 000000018004c740     libucrt:lcidtoname_downlevel.obj
 0002:00004748       ??_C@_15NCHGBGLK@?$AAt?$AAe?$AA?$AA@ 000000018004c748     libucrt:lcidtoname_downlevel.obj
 0002:00004750       ??_C@_15PHPHCBPF@?$AAk?$AAn?$AA?$AA@ 000000018004c750     libucrt:lcidtoname_downlevel.obj
 0002:00004758       ??_C@_15DLGBCKMP@?$AAm?$AAr?$AA?$AA@ 000000018004c758     libucrt:lcidtoname_downlevel.obj
 0002:00004760       ??_C@_15EABBLBFF@?$AAs?$AAa?$AA?$AA@ 000000018004c760     libucrt:lcidtoname_downlevel.obj
 0002:00004768       ??_C@_15CBKOMCOI@?$AAm?$AAn?$AA?$AA@ 000000018004c768     libucrt:lcidtoname_downlevel.obj
 0002:00004770       ??_C@_15CKDMCJAF@?$AAg?$AAl?$AA?$AA@ 000000018004c770     libucrt:lcidtoname_downlevel.obj
 0002:00004778       ??_C@_17CNJFBPG@?$AAk?$AAo?$AAk?$AA?$AA@ 000000018004c778     libucrt:lcidtoname_downlevel.obj
 0002:00004780       ??_C@_17FFBJICPL@?$AAs?$AAy?$AAr?$AA?$AA@ 000000018004c780     libucrt:lcidtoname_downlevel.obj
 0002:00004788       ??_C@_17KPNDCPAF@?$AAd?$AAi?$AAv?$AA?$AA@ 000000018004c788     libucrt:lcidtoname_downlevel.obj
 0002:00004790       ??_C@_11LOCGONAA@?$AA?$AA@ 000000018004c790     libucrt:lcidtoname_downlevel.obj
 0002:00004798       ??_C@_1M@OKAHONE@?$AAa?$AAr?$AA?9?$AAS?$AAA?$AA?$AA@ 000000018004c798     libucrt:lcidtoname_downlevel.obj
 0002:000047a8       ??_C@_1M@FFFIGIGK@?$AAb?$AAg?$AA?9?$AAB?$AAG?$AA?$AA@ 000000018004c7a8     libucrt:lcidtoname_downlevel.obj
 0002:000047b8       ??_C@_1M@BJNKEDC@?$AAc?$AAa?$AA?9?$AAE?$AAS?$AA?$AA@ 000000018004c7b8     libucrt:lcidtoname_downlevel.obj
 0002:000047c8       ??_C@_1M@IJJHFJHA@?$AAc?$AAs?$AA?9?$AAC?$AAZ?$AA?$AA@ 000000018004c7c8     libucrt:lcidtoname_downlevel.obj
 0002:000047d8       ??_C@_1M@CLPEOBGI@?$AAd?$AAa?$AA?9?$AAD?$AAK?$AA?$AA@ 000000018004c7d8     libucrt:lcidtoname_downlevel.obj
 0002:000047e8       ??_C@_1M@MCMADGCB@?$AAd?$AAe?$AA?9?$AAD?$AAE?$AA?$AA@ 000000018004c7e8     libucrt:lcidtoname_downlevel.obj
 0002:000047f8       ??_C@_1M@OOCKEMAM@?$AAe?$AAl?$AA?9?$AAG?$AAR?$AA?$AA@ 000000018004c7f8     libucrt:lcidtoname_downlevel.obj
 0002:00004808       ??_C@_1M@DDNJFGID@?$AAf?$AAi?$AA?9?$AAF?$AAI?$AA?$AA@ 000000018004c808     libucrt:lcidtoname_downlevel.obj
 0002:00004818       ??_C@_1M@GLIPPMAC@?$AAf?$AAr?$AA?9?$AAF?$AAR?$AA?$AA@ 000000018004c818     libucrt:lcidtoname_downlevel.obj
 0002:00004828       ??_C@_1M@GFMCHPE@?$AAh?$AAe?$AA?9?$AAI?$AAL?$AA?$AA@ 000000018004c828     libucrt:lcidtoname_downlevel.obj
 0002:00004838       ??_C@_1M@MHLPGNKM@?$AAh?$AAu?$AA?9?$AAH?$AAU?$AA?$AA@ 000000018004c838     libucrt:lcidtoname_downlevel.obj
 0002:00004848       ??_C@_1M@LPDDNNPN@?$AAi?$AAs?$AA?9?$AAI?$AAS?$AA?$AA@ 000000018004c848     libucrt:lcidtoname_downlevel.obj
 0002:00004858       ??_C@_1M@MADIPODN@?$AAi?$AAt?$AA?9?$AAI?$AAT?$AA?$AA@ 000000018004c858     libucrt:lcidtoname_downlevel.obj
 0002:00004868       ??_C@_1M@IHBJJGG@?$AAn?$AAl?$AA?9?$AAN?$AAL?$AA?$AA@ 000000018004c868     libucrt:lcidtoname_downlevel.obj
 0002:00004878       ??_C@_1M@EANAGDL@?$AAn?$AAb?$AA?9?$AAN?$AAO?$AA?$AA@ 000000018004c878     libucrt:lcidtoname_downlevel.obj
 0002:00004888       ??_C@_1M@NEIEMEGP@?$AAp?$AAl?$AA?9?$AAP?$AAL?$AA?$AA@ 000000018004c888     libucrt:lcidtoname_downlevel.obj
 0002:00004898       ??_C@_1M@BOCFIGEP@?$AAp?$AAt?$AA?9?$AAB?$AAR?$AA?$AA@ 000000018004c898     libucrt:lcidtoname_downlevel.obj
 0002:000048a8       ??_C@_1M@IMPFOPBG@?$AAr?$AAo?$AA?9?$AAR?$AAO?$AA?$AA@ 000000018004c8a8     libucrt:lcidtoname_downlevel.obj
 0002:000048b8       ??_C@_1M@IDNNEJMM@?$AAr?$AAu?$AA?9?$AAR?$AAU?$AA?$AA@ 000000018004c8b8     libucrt:lcidtoname_downlevel.obj
 0002:000048c8       ??_C@_1M@LILEEOGM@?$AAh?$AAr?$AA?9?$AAH?$AAR?$AA?$AA@ 000000018004c8c8     libucrt:lcidtoname_downlevel.obj
 0002:000048d8       ??_C@_1M@FKIFEHPB@?$AAs?$AAk?$AA?9?$AAS?$AAK?$AA?$AA@ 000000018004c8d8     libucrt:lcidtoname_downlevel.obj
 0002:000048e8       ??_C@_1M@LJMAMNPJ@?$AAs?$AAq?$AA?9?$AAA?$AAL?$AA?$AA@ 000000018004c8e8     libucrt:lcidtoname_downlevel.obj
 0002:000048f8       ??_C@_1M@GIAKDKJK@?$AAs?$AAv?$AA?9?$AAS?$AAE?$AA?$AA@ 000000018004c8f8     libucrt:lcidtoname_downlevel.obj
 0002:00004908       ??_C@_1M@MKJKIKCL@?$AAt?$AAh?$AA?9?$AAT?$AAH?$AA?$AA@ 000000018004c908     libucrt:lcidtoname_downlevel.obj
 0002:00004918       ??_C@_1M@MFLCCMPB@?$AAt?$AAr?$AA?9?$AAT?$AAR?$AA?$AA@ 000000018004c918     libucrt:lcidtoname_downlevel.obj
 0002:00004928       ??_C@_1M@OIJHDKJN@?$AAu?$AAr?$AA?9?$AAP?$AAK?$AA?$AA@ 000000018004c928     libucrt:lcidtoname_downlevel.obj
 0002:00004938       ??_C@_1M@LHIPCIEK@?$AAi?$AAd?$AA?9?$AAI?$AAD?$AA?$AA@ 000000018004c938     libucrt:lcidtoname_downlevel.obj
 0002:00004948       ??_C@_1M@MFMOBGI@?$AAu?$AAk?$AA?9?$AAU?$AAA?$AA?$AA@ 000000018004c948     libucrt:lcidtoname_downlevel.obj
 0002:00004958       ??_C@_1M@OBGLJIPL@?$AAb?$AAe?$AA?9?$AAB?$AAY?$AA?$AA@ 000000018004c958     libucrt:lcidtoname_downlevel.obj
 0002:00004968       ??_C@_1M@BCFAJEAD@?$AAs?$AAl?$AA?9?$AAS?$AAI?$AA?$AA@ 000000018004c968     libucrt:lcidtoname_downlevel.obj
 0002:00004978       ??_C@_1M@FKFFEDDN@?$AAe?$AAt?$AA?9?$AAE?$AAE?$AA?$AA@ 000000018004c978     libucrt:lcidtoname_downlevel.obj
 0002:00004988       ??_C@_1M@KGKKAACI@?$AAl?$AAv?$AA?9?$AAL?$AAV?$AA?$AA@ 000000018004c988     libucrt:lcidtoname_downlevel.obj
 0002:00004998       ??_C@_1M@IFGBIJO@?$AAl?$AAt?$AA?9?$AAL?$AAT?$AA?$AA@ 000000018004c998     libucrt:lcidtoname_downlevel.obj
 0002:000049a8       ??_C@_1M@FGEAHEDM@?$AAf?$AAa?$AA?9?$AAI?$AAR?$AA?$AA@ 000000018004c9a8     libucrt:lcidtoname_downlevel.obj
 0002:000049b8       ??_C@_1M@KBMAIBFN@?$AAv?$AAi?$AA?9?$AAV?$AAN?$AA?$AA@ 000000018004c9b8     libucrt:lcidtoname_downlevel.obj
 0002:000049c8       ??_C@_1M@GPCBKDJK@?$AAh?$AAy?$AA?9?$AAA?$AAM?$AA?$AA@ 000000018004c9c8     libucrt:lcidtoname_downlevel.obj
 0002:000049d8       ??_C@_1BG@BECMDDJB@?$AAa?$AAz?$AA?9?$AAA?$AAZ?$AA?9?$AAL?$AAa?$AAt?$AAn?$AA?$AA@ 000000018004c9d8     libucrt:lcidtoname_downlevel.obj
 0002:000049f0       ??_C@_1M@MAOFCAEA@?$AAe?$AAu?$AA?9?$AAE?$AAS?$AA?$AA@ 000000018004c9f0     libucrt:lcidtoname_downlevel.obj
 0002:00004a00       ??_C@_1M@IGHABKPI@?$AAm?$AAk?$AA?9?$AAM?$AAK?$AA?$AA@ 000000018004ca00     libucrt:lcidtoname_downlevel.obj
 0002:00004a10       ??_C@_1M@IAIGNEJG@?$AAt?$AAn?$AA?9?$AAZ?$AAA?$AA?$AA@ 000000018004ca10     libucrt:lcidtoname_downlevel.obj
 0002:00004a20       ??_C@_1M@IIJCOJFA@?$AAx?$AAh?$AA?9?$AAZ?$AAA?$AA?$AA@ 000000018004ca20     libucrt:lcidtoname_downlevel.obj
 0002:00004a30       ??_C@_1M@LGPJHNJH@?$AAz?$AAu?$AA?9?$AAZ?$AAA?$AA?$AA@ 000000018004ca30     libucrt:lcidtoname_downlevel.obj
 0002:00004a40       ??_C@_1M@HOKAOIO@?$AAa?$AAf?$AA?9?$AAZ?$AAA?$AA?$AA@ 000000018004ca40     libucrt:lcidtoname_downlevel.obj
 0002:00004a50       ??_C@_1M@DPCLHLIE@?$AAk?$AAa?$AA?9?$AAG?$AAE?$AA?$AA@ 000000018004ca50     libucrt:lcidtoname_downlevel.obj
 0002:00004a60       ??_C@_1M@BLKMHJBI@?$AAf?$AAo?$AA?9?$AAF?$AAO?$AA?$AA@ 000000018004ca60     libucrt:lcidtoname_downlevel.obj
 0002:00004a70       ??_C@_1M@LGGJAPPB@?$AAh?$AAi?$AA?9?$AAI?$AAN?$AA?$AA@ 000000018004ca70     libucrt:lcidtoname_downlevel.obj
 0002:00004a80       ??_C@_1M@FIKPIHFE@?$AAm?$AAt?$AA?9?$AAM?$AAT?$AA?$AA@ 000000018004ca80     libucrt:lcidtoname_downlevel.obj
 0002:00004a90       ??_C@_1M@HEGGPBFA@?$AAs?$AAe?$AA?9?$AAN?$AAO?$AA?$AA@ 000000018004ca90     libucrt:lcidtoname_downlevel.obj
 0002:00004aa0       ??_C@_1M@EIBJEEPA@?$AAm?$AAs?$AA?9?$AAM?$AAY?$AA?$AA@ 000000018004caa0     libucrt:lcidtoname_downlevel.obj
 0002:00004ab0       ??_C@_1M@FHLBGMPP@?$AAk?$AAk?$AA?9?$AAK?$AAZ?$AA?$AA@ 000000018004cab0     libucrt:lcidtoname_downlevel.obj
 0002:00004ac0       ??_C@_1M@NGJJLCGI@?$AAk?$AAy?$AA?9?$AAK?$AAG?$AA?$AA@ 000000018004cac0     libucrt:lcidtoname_downlevel.obj
 0002:00004ad0       ??_C@_1M@GIENNBFC@?$AAs?$AAw?$AA?9?$AAK?$AAE?$AA?$AA@ 000000018004cad0     libucrt:lcidtoname_downlevel.obj
 0002:00004ae0       ??_C@_1BG@NDGMJIMJ@?$AAu?$AAz?$AA?9?$AAU?$AAZ?$AA?9?$AAL?$AAa?$AAt?$AAn?$AA?$AA@ 000000018004cae0     libucrt:lcidtoname_downlevel.obj
 0002:00004af8       ??_C@_1M@IDCCIHBC@?$AAt?$AAt?$AA?9?$AAR?$AAU?$AA?$AA@ 000000018004caf8     libucrt:lcidtoname_downlevel.obj
 0002:00004b08       ??_C@_1M@LOICPMOJ@?$AAb?$AAn?$AA?9?$AAI?$AAN?$AA?$AA@ 000000018004cb08     libucrt:lcidtoname_downlevel.obj
 0002:00004b18       ??_C@_1M@KPKKNEAH@?$AAp?$AAa?$AA?9?$AAI?$AAN?$AA?$AA@ 000000018004cb18     libucrt:lcidtoname_downlevel.obj
 0002:00004b28       ??_C@_1M@PJGPPBOG@?$AAg?$AAu?$AA?9?$AAI?$AAN?$AA?$AA@ 000000018004cb28     libucrt:lcidtoname_downlevel.obj
 0002:00004b38       ??_C@_1M@KMKMOPHI@?$AAt?$AAa?$AA?9?$AAI?$AAN?$AA?$AA@ 000000018004cb38     libucrt:lcidtoname_downlevel.obj
 0002:00004b48       ??_C@_1M@KFEHEPAC@?$AAt?$AAe?$AA?9?$AAI?$AAN?$AA?$AA@ 000000018004cb48     libucrt:lcidtoname_downlevel.obj
 0002:00004b58       ??_C@_1M@CDCLMGHI@?$AAk?$AAn?$AA?9?$AAI?$AAN?$AA?$AA@ 000000018004cb58     libucrt:lcidtoname_downlevel.obj
 0002:00004b68       ??_C@_1M@MIODLDKF@?$AAm?$AAl?$AA?9?$AAI?$AAN?$AA?$AA@ 000000018004cb68     libucrt:lcidtoname_downlevel.obj
 0002:00004b78       ??_C@_1M@PBIEACPO@?$AAm?$AAr?$AA?9?$AAI?$AAN?$AA?$AA@ 000000018004cb78     libucrt:lcidtoname_downlevel.obj
 0002:00004b88       ??_C@_1M@NIDEAGPH@?$AAs?$AAa?$AA?9?$AAI?$AAN?$AA?$AA@ 000000018004cb88     libucrt:lcidtoname_downlevel.obj
 0002:00004b98       ??_C@_1M@FHIHCBIO@?$AAm?$AAn?$AA?9?$AAM?$AAN?$AA?$AA@ 000000018004cb98     libucrt:lcidtoname_downlevel.obj
 0002:00004ba8       ??_C@_1M@JAIJPENP@?$AAc?$AAy?$AA?9?$AAG?$AAB?$AA?$AA@ 000000018004cba8     libucrt:lcidtoname_downlevel.obj
 0002:00004bb8       ??_C@_1M@PHGFBEPN@?$AAg?$AAl?$AA?9?$AAE?$AAS?$AA?$AA@ 000000018004cbb8     libucrt:lcidtoname_downlevel.obj
 0002:00004bc8       ??_C@_1O@KPIPDNCP@?$AAk?$AAo?$AAk?$AA?9?$AAI?$AAN?$AA?$AA@ 000000018004cbc8     libucrt:lcidtoname_downlevel.obj
 0002:00004bd8       ??_C@_1O@KNHJLDJA@?$AAs?$AAy?$AAr?$AA?9?$AAS?$AAY?$AA?$AA@ 000000018004cbd8     libucrt:lcidtoname_downlevel.obj
 0002:00004be8       ??_C@_1O@MKEKBLAH@?$AAd?$AAi?$AAv?$AA?9?$AAM?$AAV?$AA?$AA@ 000000018004cbe8     libucrt:lcidtoname_downlevel.obj
 0002:00004bf8       ??_C@_1O@OHDCKDDF@?$AAq?$AAu?$AAz?$AA?9?$AAB?$AAO?$AA?$AA@ 000000018004cbf8     libucrt:lcidtoname_downlevel.obj
 0002:00004c08       ??_C@_1M@LEPJNLFD@?$AAn?$AAs?$AA?9?$AAZ?$AAA?$AA?$AA@ 000000018004cc08     libucrt:lcidtoname_downlevel.obj
 0002:00004c18       ??_C@_1M@OMLEIIJB@?$AAm?$AAi?$AA?9?$AAN?$AAZ?$AA?$AA@ 000000018004cc18     libucrt:lcidtoname_downlevel.obj
 0002:00004c28       ??_C@_1M@PMPEAILG@?$AAa?$AAr?$AA?9?$AAI?$AAQ?$AA?$AA@ 000000018004cc28     libucrt:lcidtoname_downlevel.obj
 0002:00004c38       ??_C@_1M@CNKPNOEE@?$AAd?$AAe?$AA?9?$AAC?$AAH?$AA?$AA@ 000000018004cc38     libucrt:lcidtoname_downlevel.obj
 0002:00004c48       ??_C@_1M@LKMGMLKO@?$AAe?$AAn?$AA?9?$AAG?$AAB?$AA?$AA@ 000000018004cc48     libucrt:lcidtoname_downlevel.obj
 0002:00004c58       ??_C@_1M@PGKJFFGL@?$AAe?$AAs?$AA?9?$AAM?$AAX?$AA?$AA@ 000000018004cc58     libucrt:lcidtoname_downlevel.obj
 0002:00004c68       ??_C@_1M@DNNANBDC@?$AAf?$AAr?$AA?9?$AAB?$AAE?$AA?$AA@ 000000018004cc68     libucrt:lcidtoname_downlevel.obj
 0002:00004c78       ??_C@_1M@HLGMDFHM@?$AAi?$AAt?$AA?9?$AAC?$AAH?$AA?$AA@ 000000018004cc78     libucrt:lcidtoname_downlevel.obj
 0002:00004c88       ??_C@_1M@CLLBGJH@?$AAn?$AAl?$AA?9?$AAB?$AAE?$AA?$AA@ 000000018004cc88     libucrt:lcidtoname_downlevel.obj
 0002:00004c98       ??_C@_1M@BODBOGLF@?$AAn?$AAn?$AA?9?$AAN?$AAO?$AA?$AA@ 000000018004cc98     libucrt:lcidtoname_downlevel.obj
 0002:00004ca8       ??_C@_1M@HFFAHKAD@?$AAp?$AAt?$AA?9?$AAP?$AAT?$AA?$AA@ 000000018004cca8     libucrt:lcidtoname_downlevel.obj
 0002:00004cb8       ??_C@_1BG@LNOAKHIE@?$AAs?$AAr?$AA?9?$AAS?$AAP?$AA?9?$AAL?$AAa?$AAt?$AAn?$AA?$AA@ 000000018004ccb8     libucrt:lcidtoname_downlevel.obj
 0002:00004cd0       ??_C@_1M@HBMHBGAK@?$AAs?$AAv?$AA?9?$AAF?$AAI?$AA?$AA@ 000000018004ccd0     libucrt:lcidtoname_downlevel.obj
 0002:00004ce0       ??_C@_1BG@DGCJGJBE@?$AAa?$AAz?$AA?9?$AAA?$AAZ?$AA?9?$AAC?$AAy?$AAr?$AAl?$AA?$AA@ 000000018004cce0     libucrt:lcidtoname_downlevel.obj
 0002:00004cf8       ??_C@_1M@KEJDAAHB@?$AAs?$AAe?$AA?9?$AAS?$AAE?$AA?$AA@ 000000018004ccf8     libucrt:lcidtoname_downlevel.obj
 0002:00004d08       ??_C@_1M@HEIBJJAD@?$AAm?$AAs?$AA?9?$AAB?$AAN?$AA?$AA@ 000000018004cd08     libucrt:lcidtoname_downlevel.obj
 0002:00004d18       ??_C@_1BG@PBGJMCEM@?$AAu?$AAz?$AA?9?$AAU?$AAZ?$AA?9?$AAC?$AAy?$AAr?$AAl?$AA?$AA@ 000000018004cd18     libucrt:lcidtoname_downlevel.obj
 0002:00004d30       ??_C@_1O@LAOBCMDF@?$AAq?$AAu?$AAz?$AA?9?$AAE?$AAC?$AA?$AA@ 000000018004cd30     libucrt:lcidtoname_downlevel.obj
 0002:00004d40       ??_C@_1M@POEEMAIO@?$AAa?$AAr?$AA?9?$AAE?$AAG?$AA?$AA@ 000000018004cd40     libucrt:lcidtoname_downlevel.obj
 0002:00004d50       ??_C@_1M@EFAKDEDL@?$AAz?$AAh?$AA?9?$AAH?$AAK?$AA?$AA@ 000000018004cd50     libucrt:lcidtoname_downlevel.obj
 0002:00004d60       ??_C@_1M@HKKIJHGI@?$AAd?$AAe?$AA?9?$AAA?$AAT?$AA?$AA@ 000000018004cd60     libucrt:lcidtoname_downlevel.obj
 0002:00004d70       ??_C@_1M@KBFBEHJF@?$AAe?$AAn?$AA?9?$AAA?$AAU?$AA?$AA@ 000000018004cd70     libucrt:lcidtoname_downlevel.obj
 0002:00004d80       ??_C@_1M@MNPLFAAH@?$AAe?$AAs?$AA?9?$AAE?$AAS?$AA?$AA@ 000000018004cd80     libucrt:lcidtoname_downlevel.obj
 0002:00004d90       ??_C@_1M@HJOOJFMA@?$AAf?$AAr?$AA?9?$AAC?$AAA?$AA?$AA@ 000000018004cd90     libucrt:lcidtoname_downlevel.obj
 0002:00004da0       ??_C@_1BG@JPOFPNAB@?$AAs?$AAr?$AA?9?$AAS?$AAP?$AA?9?$AAC?$AAy?$AAr?$AAl?$AA?$AA@ 000000018004cda0     libucrt:lcidtoname_downlevel.obj
 0002:00004db8       ??_C@_1M@LNFOCMOB@?$AAs?$AAe?$AA?9?$AAF?$AAI?$AA?$AA@ 000000018004cdb8     libucrt:lcidtoname_downlevel.obj
 0002:00004dc8       ??_C@_1O@MGJBOAMB@?$AAq?$AAu?$AAz?$AA?9?$AAP?$AAE?$AA?$AA@ 000000018004cdc8     libucrt:lcidtoname_downlevel.obj
 0002:00004dd8       ??_C@_1M@GJINLBOK@?$AAa?$AAr?$AA?9?$AAL?$AAY?$AA?$AA@ 000000018004cdd8     libucrt:lcidtoname_downlevel.obj
 0002:00004de8       ??_C@_1M@GGMNHJNL@?$AAz?$AAh?$AA?9?$AAS?$AAG?$AA?$AA@ 000000018004cde8     libucrt:lcidtoname_downlevel.obj
 0002:00004df8       ??_C@_1M@HOIKODND@?$AAd?$AAe?$AA?9?$AAL?$AAU?$AA?$AA@ 000000018004cdf8     libucrt:lcidtoname_downlevel.obj
 0002:00004e08       ??_C@_1M@DDOCCGFG@?$AAe?$AAn?$AA?9?$AAC?$AAA?$AA?$AA@ 000000018004ce08     libucrt:lcidtoname_downlevel.obj
 0002:00004e18       ??_C@_1M@BNOEMJLF@?$AAe?$AAs?$AA?9?$AAG?$AAT?$AA?$AA@ 000000018004ce18     libucrt:lcidtoname_downlevel.obj
 0002:00004e28       ??_C@_1M@EOGNKEK@?$AAf?$AAr?$AA?9?$AAC?$AAH?$AA?$AA@ 000000018004ce28     libucrt:lcidtoname_downlevel.obj
 0002:00004e38       ??_C@_1M@FLIDJFHL@?$AAh?$AAr?$AA?9?$AAB?$AAA?$AA?$AA@ 000000018004ce38     libucrt:lcidtoname_downlevel.obj
 0002:00004e48       ??_C@_1O@FMCELNAJ@?$AAs?$AAm?$AAj?$AA?9?$AAN?$AAO?$AA?$AA@ 000000018004ce48     libucrt:lcidtoname_downlevel.obj
 0002:00004e58       ??_C@_1M@JHGLJMGJ@?$AAa?$AAr?$AA?9?$AAD?$AAZ?$AA?$AA@ 000000018004ce58     libucrt:lcidtoname_downlevel.obj
 0002:00004e68       ??_C@_1M@JKKFDCNP@?$AAz?$AAh?$AA?9?$AAM?$AAO?$AA?$AA@ 000000018004ce68     libucrt:lcidtoname_downlevel.obj
 0002:00004e78       ??_C@_1M@GEEFALPE@?$AAd?$AAe?$AA?9?$AAL?$AAI?$AA?$AA@ 000000018004ce78     libucrt:lcidtoname_downlevel.obj
 0002:00004e88       ??_C@_1M@IGEOFBG@?$AAe?$AAn?$AA?9?$AAN?$AAZ?$AA?$AA@ 000000018004ce88     libucrt:lcidtoname_downlevel.obj
 0002:00004e98       ??_C@_1M@KDBONEHP@?$AAe?$AAs?$AA?9?$AAC?$AAR?$AA?$AA@ 000000018004ce98     libucrt:lcidtoname_downlevel.obj
 0002:00004ea8       ??_C@_1M@FHMDOHNN@?$AAf?$AAr?$AA?9?$AAL?$AAU?$AA?$AA@ 000000018004cea8     libucrt:lcidtoname_downlevel.obj
 0002:00004eb8       ??_C@_1BG@NFKKMAFG@?$AAb?$AAs?$AA?9?$AAB?$AAA?$AA?9?$AAL?$AAa?$AAt?$AAn?$AA?$AA@ 000000018004ceb8     libucrt:lcidtoname_downlevel.obj
 0002:00004ed0       ??_C@_1O@IMNBEMCI@?$AAs?$AAm?$AAj?$AA?9?$AAS?$AAE?$AA?$AA@ 000000018004ced0     libucrt:lcidtoname_downlevel.obj
 0002:00004ee0       ??_C@_1M@DHHMBNDP@?$AAa?$AAr?$AA?9?$AAM?$AAA?$AA?$AA@ 000000018004cee0     libucrt:lcidtoname_downlevel.obj
 0002:00004ef0       ??_C@_1M@BNBLJCGH@?$AAe?$AAn?$AA?9?$AAI?$AAE?$AA?$AA@ 000000018004cef0     libucrt:lcidtoname_downlevel.obj
 0002:00004f00       ??_C@_1M@GEPAFMDL@?$AAe?$AAs?$AA?9?$AAP?$AAA?$AA?$AA@ 000000018004cf00     libucrt:lcidtoname_downlevel.obj
 0002:00004f10       ??_C@_1M@OJONDMDL@?$AAf?$AAr?$AA?9?$AAM?$AAC?$AA?$AA@ 000000018004cf10     libucrt:lcidtoname_downlevel.obj
 0002:00004f20       ??_C@_1BG@OBCNFJB@?$AAs?$AAr?$AA?9?$AAB?$AAA?$AA?9?$AAL?$AAa?$AAt?$AAn?$AA?$AA@ 000000018004cf20     libucrt:lcidtoname_downlevel.obj
 0002:00004f38       ??_C@_1O@KEMEEGPO@?$AAs?$AAm?$AAa?$AA?9?$AAN?$AAO?$AA?$AA@ 000000018004cf38     libucrt:lcidtoname_downlevel.obj
 0002:00004f48       ??_C@_1M@ELMGFODK@?$AAa?$AAr?$AA?9?$AAT?$AAN?$AA?$AA@ 000000018004cf48     libucrt:lcidtoname_downlevel.obj
 0002:00004f58       ??_C@_1M@BHDLHFAF@?$AAe?$AAn?$AA?9?$AAZ?$AAA?$AA?$AA@ 000000018004cf58     libucrt:lcidtoname_downlevel.obj
 0002:00004f68       ??_C@_1M@BMGIGLIF@?$AAe?$AAs?$AA?9?$AAD?$AAO?$AA?$AA@ 000000018004cf68     libucrt:lcidtoname_downlevel.obj
 0002:00004f78       ??_C@_1BG@CMBHIPBE@?$AAs?$AAr?$AA?9?$AAB?$AAA?$AA?9?$AAC?$AAy?$AAr?$AAl?$AA?$AA@ 000000018004cf78     libucrt:lcidtoname_downlevel.obj
 0002:00004f90       ??_C@_1O@HEDBLHNP@?$AAs?$AAm?$AAa?$AA?9?$AAS?$AAE?$AA?$AA@ 000000018004cf90     libucrt:lcidtoname_downlevel.obj
 0002:00004fa0       ??_C@_1M@DAGCADIM@?$AAa?$AAr?$AA?9?$AAO?$AAM?$AA?$AA@ 000000018004cfa0     libucrt:lcidtoname_downlevel.obj
 0002:00004fb0       ??_C@_1M@FODLMICG@?$AAe?$AAn?$AA?9?$AAJ?$AAM?$AA?$AA@ 000000018004cfb0     libucrt:lcidtoname_downlevel.obj
 0002:00004fc0       ??_C@_1M@DNMLCIHB@?$AAe?$AAs?$AA?9?$AAV?$AAE?$AA?$AA@ 000000018004cfc0     libucrt:lcidtoname_downlevel.obj
 0002:00004fd0       ??_C@_1O@EOKHMKJK@?$AAs?$AAm?$AAs?$AA?9?$AAF?$AAI?$AA?$AA@ 000000018004cfd0     libucrt:lcidtoname_downlevel.obj
 0002:00004fe0       ??_C@_1M@CAFJMKOF@?$AAa?$AAr?$AA?9?$AAY?$AAE?$AA?$AA@ 000000018004cfe0     libucrt:lcidtoname_downlevel.obj
 0002:00004ff0       ??_C@_1M@CBFHIJLI@?$AAe?$AAn?$AA?9?$AAC?$AAB?$AA?$AA@ 000000018004cff0     libucrt:lcidtoname_downlevel.obj
 0002:00005000       ??_C@_1M@BGNFLDN@?$AAe?$AAs?$AA?9?$AAC?$AAO?$AA?$AA@ 000000018004d000     libucrt:lcidtoname_downlevel.obj
 0002:00005010       ??_C@_1O@JMPHMAMC@?$AAs?$AAm?$AAn?$AA?9?$AAF?$AAI?$AA?$AA@ 000000018004d010     libucrt:lcidtoname_downlevel.obj
 0002:00005020       ??_C@_1M@JLANABKE@?$AAa?$AAr?$AA?9?$AAS?$AAY?$AA?$AA@ 000000018004d020     libucrt:lcidtoname_downlevel.obj
 0002:00005030       ??_C@_1M@HPKGCFGN@?$AAe?$AAn?$AA?9?$AAB?$AAZ?$AA?$AA@ 000000018004d030     libucrt:lcidtoname_downlevel.obj
 0002:00005040       ??_C@_1M@OLJCMLGM@?$AAe?$AAs?$AA?9?$AAP?$AAE?$AA?$AA@ 000000018004d040     libucrt:lcidtoname_downlevel.obj
 0002:00005050       ??_C@_1M@MKKGFKLE@?$AAa?$AAr?$AA?9?$AAJ?$AAO?$AA?$AA@ 000000018004d050     libucrt:lcidtoname_downlevel.obj
 0002:00005060       ??_C@_1M@EKPGLDNI@?$AAe?$AAn?$AA?9?$AAT?$AAT?$AA?$AA@ 000000018004d060     libucrt:lcidtoname_downlevel.obj
 0002:00005070       ??_C@_1M@OONGHFHE@?$AAe?$AAs?$AA?9?$AAA?$AAR?$AA?$AA@ 000000018004d070     libucrt:lcidtoname_downlevel.obj
 0002:00005080       ??_C@_1M@OOJFGBHE@?$AAa?$AAr?$AA?9?$AAL?$AAB?$AA?$AA@ 000000018004d080     libucrt:lcidtoname_downlevel.obj
 0002:00005090       ??_C@_1M@GCEJHNEG@?$AAe?$AAn?$AA?9?$AAZ?$AAW?$AA?$AA@ 000000018004d090     libucrt:lcidtoname_downlevel.obj
 0002:000050a0       ??_C@_1M@JNOCAHJI@?$AAe?$AAs?$AA?9?$AAE?$AAC?$AA?$AA@ 000000018004d0a0     libucrt:lcidtoname_downlevel.obj
 0002:000050b0       ??_C@_1M@JEFHPGGB@?$AAa?$AAr?$AA?9?$AAK?$AAW?$AA?$AA@ 000000018004d0b0     libucrt:lcidtoname_downlevel.obj
 0002:000050c0       ??_C@_1M@MLKIBJOJ@?$AAe?$AAn?$AA?9?$AAP?$AAH?$AA?$AA@ 000000018004d0c0     libucrt:lcidtoname_downlevel.obj
 0002:000050d0       ??_C@_1M@BDNIPEND@?$AAe?$AAs?$AA?9?$AAC?$AAL?$AA?$AA@ 000000018004d0d0     libucrt:lcidtoname_downlevel.obj
 0002:000050e0       ??_C@_1M@MPNMEKBD@?$AAa?$AAr?$AA?9?$AAA?$AAE?$AA?$AA@ 000000018004d0e0     libucrt:lcidtoname_downlevel.obj
 0002:000050f0       ??_C@_1M@KBJALCPI@?$AAe?$AAs?$AA?9?$AAU?$AAY?$AA?$AA@ 000000018004d0f0     libucrt:lcidtoname_downlevel.obj
 0002:00005100       ??_C@_1M@LLCCOAGA@?$AAa?$AAr?$AA?9?$AAB?$AAH?$AA?$AA@ 000000018004d100     libucrt:lcidtoname_downlevel.obj
 0002:00005110       ??_C@_1M@PBFNCDEL@?$AAe?$AAs?$AA?9?$AAP?$AAY?$AA?$AA@ 000000018004d110     libucrt:lcidtoname_downlevel.obj
 0002:00005120       ??_C@_1M@EDGINPNP@?$AAa?$AAr?$AA?9?$AAQ?$AAA?$AA?$AA@ 000000018004d120     libucrt:lcidtoname_downlevel.obj
 0002:00005130       ??_C@_1M@MKDBIIJI@?$AAe?$AAs?$AA?9?$AAB?$AAO?$AA?$AA@ 000000018004d130     libucrt:lcidtoname_downlevel.obj
 0002:00005140       ??_C@_1M@CPKKEBLD@?$AAe?$AAs?$AA?9?$AAS?$AAV?$AA?$AA@ 000000018004d140     libucrt:lcidtoname_downlevel.obj
 0002:00005150       ??_C@_1M@NDBGMMJL@?$AAe?$AAs?$AA?9?$AAH?$AAN?$AA?$AA@ 000000018004d150     libucrt:lcidtoname_downlevel.obj
 0002:00005160       ??_C@_1M@JIJIBHDP@?$AAe?$AAs?$AA?9?$AAN?$AAI?$AA?$AA@ 000000018004d160     libucrt:lcidtoname_downlevel.obj
 0002:00005170       ??_C@_1M@CGFMKEEK@?$AAe?$AAs?$AA?9?$AAP?$AAR?$AA?$AA@ 000000018004d170     libucrt:lcidtoname_downlevel.obj
 0002:00005180       ??_C@_1O@ICJHKIIK@?$AAz?$AAh?$AA?9?$AAC?$AAH?$AAT?$AA?$AA@ 000000018004d180     libucrt:lcidtoname_downlevel.obj
 0002:00005190       ??_C@_15CLNEJCE@?$AAs?$AAr?$AA?$AA@ 000000018004d190     libucrt:lcidtoname_downlevel.obj
 0002:00005fe0       ??_C@_1M@KAHEKEIG@?$AAa?$AAf?$AA?9?$AAz?$AAa?$AA?$AA@ 000000018004dfe0     libucrt:lcidtoname_downlevel.obj
 0002:00005ff0       ??_C@_1M@GIECOABL@?$AAa?$AAr?$AA?9?$AAa?$AAe?$AA?$AA@ 000000018004dff0     libucrt:lcidtoname_downlevel.obj
 0002:00006000       ??_C@_1M@BMLMEKGI@?$AAa?$AAr?$AA?9?$AAb?$AAh?$AA?$AA@ 000000018004e000     libucrt:lcidtoname_downlevel.obj
 0002:00006010       ??_C@_1M@DAPFDGGB@?$AAa?$AAr?$AA?9?$AAd?$AAz?$AA?$AA@ 000000018004e010     libucrt:lcidtoname_downlevel.obj
 0002:00006020       ??_C@_1M@FJNKGKIG@?$AAa?$AAr?$AA?9?$AAe?$AAg?$AA?$AA@ 000000018004e020     libucrt:lcidtoname_downlevel.obj
 0002:00006030       ??_C@_1M@FLGKKCLO@?$AAa?$AAr?$AA?9?$AAi?$AAq?$AA?$AA@ 000000018004e030     libucrt:lcidtoname_downlevel.obj
 0002:00006040       ??_C@_1M@GNDIPALM@?$AAa?$AAr?$AA?9?$AAj?$AAo?$AA?$AA@ 000000018004e040     libucrt:lcidtoname_downlevel.obj
 0002:00006050       ??_C@_1M@DDMJFMGJ@?$AAa?$AAr?$AA?9?$AAk?$AAw?$AA?$AA@ 000000018004e050     libucrt:lcidtoname_downlevel.obj
 0002:00006060       ??_C@_1M@EJALMLHM@?$AAa?$AAr?$AA?9?$AAl?$AAb?$AA?$AA@ 000000018004e060     libucrt:lcidtoname_downlevel.obj
 0002:00006070       ??_C@_1M@MOBDBLOC@?$AAa?$AAr?$AA?9?$AAl?$AAy?$AA?$AA@ 000000018004e070     libucrt:lcidtoname_downlevel.obj
 0002:00006080       ??_C@_1M@JAOCLHDH@?$AAa?$AAr?$AA?9?$AAm?$AAa?$AA?$AA@ 000000018004e080     libucrt:lcidtoname_downlevel.obj
 0002:00006090       ??_C@_1M@JHPMKJIE@?$AAa?$AAr?$AA?9?$AAo?$AAm?$AA?$AA@ 000000018004e090     libucrt:lcidtoname_downlevel.obj
 0002:000060a0       ??_C@_1M@OEPGHFNH@?$AAa?$AAr?$AA?9?$AAq?$AAa?$AA?$AA@ 000000018004e0a0     libucrt:lcidtoname_downlevel.obj
 0002:000060b0       ??_C@_1M@KJDONENM@?$AAa?$AAr?$AA?9?$AAs?$AAa?$AA?$AA@ 000000018004e0b0     libucrt:lcidtoname_downlevel.obj
 0002:000060c0       ??_C@_1M@DMJDKLKM@?$AAa?$AAr?$AA?9?$AAs?$AAy?$AA?$AA@ 000000018004e0c0     libucrt:lcidtoname_downlevel.obj
 0002:000060d0       ??_C@_1M@OMFIPEDC@?$AAa?$AAr?$AA?9?$AAt?$AAn?$AA?$AA@ 000000018004e0d0     libucrt:lcidtoname_downlevel.obj
 0002:000060e0       ??_C@_1M@IHMHGAON@?$AAa?$AAr?$AA?9?$AAy?$AAe?$AA?$AA@ 000000018004e0e0     libucrt:lcidtoname_downlevel.obj
 0002:000060f0       ??_C@_1BG@KDCPGJGB@?$AAa?$AAz?$AA?9?$AAa?$AAz?$AA?9?$AAc?$AAy?$AAr?$AAl?$AA?$AA@ 000000018004e0f0     libucrt:lcidtoname_downlevel.obj
 0002:00006108       ??_C@_1BG@IBCKDDOE@?$AAa?$AAz?$AA?9?$AAa?$AAz?$AA?9?$AAl?$AAa?$AAt?$AAn?$AA?$AA@ 000000018004e108     libucrt:lcidtoname_downlevel.obj
 0002:00006120       ??_C@_1M@EGPFDCPD@?$AAb?$AAe?$AA?9?$AAb?$AAy?$AA?$AA@ 000000018004e120     libucrt:lcidtoname_downlevel.obj
 0002:00006130       ??_C@_1M@PCMGMCGC@?$AAb?$AAg?$AA?9?$AAb?$AAg?$AA?$AA@ 000000018004e130     libucrt:lcidtoname_downlevel.obj
 0002:00006140       ??_C@_1M@BJBMFGOB@?$AAb?$AAn?$AA?9?$AAi?$AAn?$AA?$AA@ 000000018004e140     libucrt:lcidtoname_downlevel.obj
 0002:00006150       ??_C@_1BG@EAKMMACD@?$AAb?$AAs?$AA?9?$AAb?$AAa?$AA?9?$AAl?$AAa?$AAt?$AAn?$AA?$AA@ 000000018004e150     libucrt:lcidtoname_downlevel.obj
 0002:00006168       ??_C@_1M@KGADAODK@?$AAc?$AAa?$AA?9?$AAe?$AAs?$AA?$AA@ 000000018004e168     libucrt:lcidtoname_downlevel.obj
 0002:00006178       ??_C@_1M@COAJPDHI@?$AAc?$AAs?$AA?9?$AAc?$AAz?$AA?$AA@ 000000018004e178     libucrt:lcidtoname_downlevel.obj
 0002:00006188       ??_C@_1M@DHBHFONH@?$AAc?$AAy?$AA?9?$AAg?$AAb?$AA?$AA@ 000000018004e188     libucrt:lcidtoname_downlevel.obj
 0002:00006198       ??_C@_1M@IMGKELGA@?$AAd?$AAa?$AA?9?$AAd?$AAk?$AA?$AA@ 000000018004e198     libucrt:lcidtoname_downlevel.obj
 0002:000061a8       ??_C@_1M@NNDGDNGA@?$AAd?$AAe?$AA?9?$AAa?$AAt?$AA?$AA@ 000000018004e1a8     libucrt:lcidtoname_downlevel.obj
 0002:000061b8       ??_C@_1M@IKDBHEEM@?$AAd?$AAe?$AA?9?$AAc?$AAh?$AA?$AA@ 000000018004e1b8     libucrt:lcidtoname_downlevel.obj
 0002:000061c8       ??_C@_1M@GFFOJMCJ@?$AAd?$AAe?$AA?9?$AAd?$AAe?$AA?$AA@ 000000018004e1c8     libucrt:lcidtoname_downlevel.obj
 0002:000061d8       ??_C@_1M@MDNLKBPM@?$AAd?$AAe?$AA?9?$AAl?$AAi?$AA?$AA@ 000000018004e1d8     libucrt:lcidtoname_downlevel.obj
 0002:000061e8       ??_C@_1M@NJBEEJNL@?$AAd?$AAe?$AA?9?$AAl?$AAu?$AA?$AA@ 000000018004e1e8     libucrt:lcidtoname_downlevel.obj
 0002:000061f8       ??_C@_1O@GNNELBAP@?$AAd?$AAi?$AAv?$AA?9?$AAm?$AAv?$AA?$AA@ 000000018004e1f8     libucrt:lcidtoname_downlevel.obj
 0002:00006208       ??_C@_1M@EJLEOGAE@?$AAe?$AAl?$AA?9?$AAg?$AAr?$AA?$AA@ 000000018004e208     libucrt:lcidtoname_downlevel.obj
 0002:00006218       ??_C@_1M@GMPONJN@?$AAe?$AAn?$AA?9?$AAa?$AAu?$AA?$AA@ 000000018004e218     libucrt:lcidtoname_downlevel.obj
 0002:00006228       ??_C@_1M@NIDIIPGF@?$AAe?$AAn?$AA?9?$AAb?$AAz?$AA?$AA@ 000000018004e228     libucrt:lcidtoname_downlevel.obj
 0002:00006238       ??_C@_1M@JEHMIMFO@?$AAe?$AAn?$AA?9?$AAc?$AAa?$AA?$AA@ 000000018004e238     libucrt:lcidtoname_downlevel.obj
 0002:00006248       ??_C@_1M@IGMJCDLA@?$AAe?$AAn?$AA?9?$AAc?$AAb?$AA?$AA@ 000000018004e248     libucrt:lcidtoname_downlevel.obj
 0002:00006258       ??_C@_1M@BNFIGBKG@?$AAe?$AAn?$AA?9?$AAg?$AAb?$AA?$AA@ 000000018004e258     libucrt:lcidtoname_downlevel.obj
 0002:00006268       ??_C@_1M@LKIFDIGP@?$AAe?$AAn?$AA?9?$AAi?$AAe?$AA?$AA@ 000000018004e268     libucrt:lcidtoname_downlevel.obj
 0002:00006278       ??_C@_1M@PJKFGCCO@?$AAe?$AAn?$AA?9?$AAj?$AAm?$AA?$AA@ 000000018004e278     libucrt:lcidtoname_downlevel.obj
 0002:00006288       ??_C@_1M@KPPKEPBO@?$AAe?$AAn?$AA?9?$AAn?$AAz?$AA?$AA@ 000000018004e288     libucrt:lcidtoname_downlevel.obj
 0002:00006298       ??_C@_1M@GMDGLDOB@?$AAe?$AAn?$AA?9?$AAp?$AAh?$AA?$AA@ 000000018004e298     libucrt:lcidtoname_downlevel.obj
 0002:000062a8       ??_C@_1M@ONGIBJNA@?$AAe?$AAn?$AA?9?$AAt?$AAt?$AA?$AA@ 000000018004e2a8     libucrt:lcidtoname_downlevel.obj
 0002:000062b8       ??_C@_1M@LLODPCMM@?$AAe?$AAn?$AA?9?$AAu?$AAs?$AA?$AA@ 000000018004e2b8     libucrt:lcidtoname_downlevel.obj
 0002:000062c8       ??_C@_1M@LAKFNPAN@?$AAe?$AAn?$AA?9?$AAz?$AAa?$AA?$AA@ 000000018004e2c8     libucrt:lcidtoname_downlevel.obj
 0002:000062d8       ??_C@_1M@MFNHNHEO@?$AAe?$AAn?$AA?9?$AAz?$AAw?$AA?$AA@ 000000018004e2d8     libucrt:lcidtoname_downlevel.obj
 0002:000062e8       ??_C@_1M@EJEINPHM@?$AAe?$AAs?$AA?9?$AAa?$AAr?$AA?$AA@ 000000018004e2e8     libucrt:lcidtoname_downlevel.obj
 0002:000062f8       ??_C@_1M@GNKPCCJA@?$AAe?$AAs?$AA?9?$AAb?$AAo?$AA?$AA@ 000000018004e2f8     libucrt:lcidtoname_downlevel.obj
 0002:00006308       ??_C@_1M@LEEGFONL@?$AAe?$AAs?$AA?9?$AAc?$AAl?$AA?$AA@ 000000018004e308     libucrt:lcidtoname_downlevel.obj
 0002:00006318       ??_C@_1M@KGPDPBDF@?$AAe?$AAs?$AA?9?$AAc?$AAo?$AA?$AA@ 000000018004e318     libucrt:lcidtoname_downlevel.obj
 0002:00006328       ??_C@_1M@EIAHOHH@?$AAe?$AAs?$AA?9?$AAc?$AAr?$AA?$AA@ 000000018004e328     libucrt:lcidtoname_downlevel.obj
 0002:00006338       ??_C@_1M@LLPGMBIN@?$AAe?$AAs?$AA?9?$AAd?$AAo?$AA?$AA@ 000000018004e338     libucrt:lcidtoname_downlevel.obj
 0002:00006348       ??_C@_1M@DKHMKNJA@?$AAe?$AAs?$AA?9?$AAe?$AAc?$AA?$AA@ 000000018004e348     libucrt:lcidtoname_downlevel.obj
 0002:00006358       ??_C@_1M@GKGFPKAP@?$AAe?$AAs?$AA?9?$AAe?$AAs?$AA?$AA@ 000000018004e358     libucrt:lcidtoname_downlevel.obj
 0002:00006368       ??_C@_1M@LKHKGDLN@?$AAe?$AAs?$AA?9?$AAg?$AAt?$AA?$AA@ 000000018004e368     libucrt:lcidtoname_downlevel.obj
 0002:00006378       ??_C@_1M@HEIIGGJD@?$AAe?$AAs?$AA?9?$AAh?$AAn?$AA?$AA@ 000000018004e378     libucrt:lcidtoname_downlevel.obj
 0002:00006388       ??_C@_1M@FBDHPPGD@?$AAe?$AAs?$AA?9?$AAm?$AAx?$AA?$AA@ 000000018004e388     libucrt:lcidtoname_downlevel.obj
 0002:00006398       ??_C@_1M@DPAGLNDH@?$AAe?$AAs?$AA?9?$AAn?$AAi?$AA?$AA@ 000000018004e398     libucrt:lcidtoname_downlevel.obj
 0002:000063a8       ??_C@_1M@MDGOPGDD@?$AAe?$AAs?$AA?9?$AAp?$AAa?$AA?$AA@ 000000018004e3a8     libucrt:lcidtoname_downlevel.obj
 0002:000063b8       ??_C@_1M@EMAMGBGE@?$AAe?$AAs?$AA?9?$AAp?$AAe?$AA?$AA@ 000000018004e3b8     libucrt:lcidtoname_downlevel.obj
 0002:000063c8       ??_C@_1M@IBMCAOEC@?$AAe?$AAs?$AA?9?$AAp?$AAr?$AA?$AA@ 000000018004e3c8     libucrt:lcidtoname_downlevel.obj
 0002:000063d8       ??_C@_1M@FGMDIJED@?$AAe?$AAs?$AA?9?$AAp?$AAy?$AA?$AA@ 000000018004e3d8     libucrt:lcidtoname_downlevel.obj
 0002:000063e8       ??_C@_1M@IIDEOLLL@?$AAe?$AAs?$AA?9?$AAs?$AAv?$AA?$AA@ 000000018004e3e8     libucrt:lcidtoname_downlevel.obj
 0002:000063f8       ??_C@_1M@GAOBIPA@?$AAe?$AAs?$AA?9?$AAu?$AAy?$AA?$AA@ 000000018004e3f8     libucrt:lcidtoname_downlevel.obj
 0002:00006408       ??_C@_1M@JKFFICHJ@?$AAe?$AAs?$AA?9?$AAv?$AAe?$AA?$AA@ 000000018004e408     libucrt:lcidtoname_downlevel.obj
 0002:00006418       ??_C@_1M@PNMLOJDF@?$AAe?$AAt?$AA?9?$AAe?$AAe?$AA?$AA@ 000000018004e418     libucrt:lcidtoname_downlevel.obj
 0002:00006428       ??_C@_1M@GHHLIKEI@?$AAe?$AAu?$AA?9?$AAe?$AAs?$AA?$AA@ 000000018004e428     libucrt:lcidtoname_downlevel.obj
 0002:00006438       ??_C@_1M@PBNONODE@?$AAf?$AAa?$AA?9?$AAi?$AAr?$AA?$AA@ 000000018004e438     libucrt:lcidtoname_downlevel.obj
 0002:00006448       ??_C@_1M@JEEHPMIL@?$AAf?$AAi?$AA?9?$AAf?$AAi?$AA?$AA@ 000000018004e448     libucrt:lcidtoname_downlevel.obj
 0002:00006458       ??_C@_1M@LMDCNDBA@?$AAf?$AAo?$AA?9?$AAf?$AAo?$AA?$AA@ 000000018004e458     libucrt:lcidtoname_downlevel.obj
 0002:00006468       ??_C@_1M@JKEOHLDK@?$AAf?$AAr?$AA?9?$AAb?$AAe?$AA?$AA@ 000000018004e468     libucrt:lcidtoname_downlevel.obj
 0002:00006478       ??_C@_1M@NOHADPMI@?$AAf?$AAr?$AA?9?$AAc?$AAa?$AA?$AA@ 000000018004e478     libucrt:lcidtoname_downlevel.obj
 0002:00006488       ??_C@_1M@KDHIHAEC@?$AAf?$AAr?$AA?9?$AAc?$AAh?$AA?$AA@ 000000018004e488     libucrt:lcidtoname_downlevel.obj
 0002:00006498       ??_C@_1M@MMBBFGAK@?$AAf?$AAr?$AA?9?$AAf?$AAr?$AA?$AA@ 000000018004e498     libucrt:lcidtoname_downlevel.obj
 0002:000064a8       ??_C@_1M@PAFNENNF@?$AAf?$AAr?$AA?9?$AAl?$AAu?$AA?$AA@ 000000018004e4a8     libucrt:lcidtoname_downlevel.obj
 0002:000064b8       ??_C@_1M@EOHDJGDD@?$AAf?$AAr?$AA?9?$AAm?$AAc?$AA?$AA@ 000000018004e4b8     libucrt:lcidtoname_downlevel.obj
 0002:000064c8       ??_C@_1M@FAPLLOPF@?$AAg?$AAl?$AA?9?$AAe?$AAs?$AA?$AA@ 000000018004e4c8     libucrt:lcidtoname_downlevel.obj
 0002:000064d8       ??_C@_1M@FOPBFLOO@?$AAg?$AAu?$AA?9?$AAi?$AAn?$AA?$AA@ 000000018004e4d8     libucrt:lcidtoname_downlevel.obj
 0002:000064e8       ??_C@_1M@KBMCINPM@?$AAh?$AAe?$AA?9?$AAi?$AAl?$AA?$AA@ 000000018004e4e8     libucrt:lcidtoname_downlevel.obj
 0002:000064f8       ??_C@_1M@BBPHKFPJ@?$AAh?$AAi?$AA?9?$AAi?$AAn?$AA?$AA@ 000000018004e4f8     libucrt:lcidtoname_downlevel.obj
 0002:00006508       ??_C@_1M@PMBNDPHD@?$AAh?$AAr?$AA?9?$AAb?$AAa?$AA?$AA@ 000000018004e508     libucrt:lcidtoname_downlevel.obj
 0002:00006518       ??_C@_1M@BPCKOEGE@?$AAh?$AAr?$AA?9?$AAh?$AAr?$AA?$AA@ 000000018004e518     libucrt:lcidtoname_downlevel.obj
 0002:00006528       ??_C@_1M@GACBMHKE@?$AAh?$AAu?$AA?9?$AAh?$AAu?$AA?$AA@ 000000018004e528     libucrt:lcidtoname_downlevel.obj
 0002:00006538       ??_C@_1M@MILPAJJC@?$AAh?$AAy?$AA?9?$AAa?$AAm?$AA?$AA@ 000000018004e538     libucrt:lcidtoname_downlevel.obj
 0002:00006548       ??_C@_1M@BABBICEC@?$AAi?$AAd?$AA?9?$AAi?$AAd?$AA?$AA@ 000000018004e548     libucrt:lcidtoname_downlevel.obj
 0002:00006558       ??_C@_1M@BIKNHHPF@?$AAi?$AAs?$AA?9?$AAi?$AAs?$AA?$AA@ 000000018004e558     libucrt:lcidtoname_downlevel.obj
 0002:00006568       ??_C@_1M@NMPCJPHE@?$AAi?$AAt?$AA?9?$AAc?$AAh?$AA?$AA@ 000000018004e568     libucrt:lcidtoname_downlevel.obj
 0002:00006578       ??_C@_1M@GHKGFEDF@?$AAi?$AAt?$AA?9?$AAi?$AAt?$AA?$AA@ 000000018004e578     libucrt:lcidtoname_downlevel.obj
 0002:00006588       ??_C@_1M@NIEJCJJA@?$AAj?$AAa?$AA?9?$AAj?$AAp?$AA?$AA@ 000000018004e588     libucrt:lcidtoname_downlevel.obj
 0002:00006598       ??_C@_1M@JILFNBIM@?$AAk?$AAa?$AA?9?$AAg?$AAe?$AA?$AA@ 000000018004e598     libucrt:lcidtoname_downlevel.obj
 0002:000065a8       ??_C@_1M@PACPMGPH@?$AAk?$AAk?$AA?9?$AAk?$AAz?$AA?$AA@ 000000018004e5a8     libucrt:lcidtoname_downlevel.obj
 0002:000065b8       ??_C@_1M@IELFGMHA@?$AAk?$AAn?$AA?9?$AAi?$AAn?$AA?$AA@ 000000018004e5b8     libucrt:lcidtoname_downlevel.obj
 0002:000065c8       ??_C@_1O@IBBJHCH@?$AAk?$AAo?$AAk?$AA?9?$AAi?$AAn?$AA?$AA@ 000000018004e5c8     libucrt:lcidtoname_downlevel.obj
 0002:000065d8       ??_C@_1M@DMHAEOGC@?$AAk?$AAo?$AA?9?$AAk?$AAr?$AA?$AA@ 000000018004e5d8     libucrt:lcidtoname_downlevel.obj
 0002:000065e8       ??_C@_1M@HBAHBIGA@?$AAk?$AAy?$AA?9?$AAk?$AAg?$AA?$AA@ 000000018004e5e8     libucrt:lcidtoname_downlevel.obj
 0002:000065f8       ??_C@_1M@KPMILCJG@?$AAl?$AAt?$AA?9?$AAl?$AAt?$AA?$AA@ 000000018004e5f8     libucrt:lcidtoname_downlevel.obj
 0002:00006608       ??_C@_1M@BDEKKCA@?$AAl?$AAv?$AA?9?$AAl?$AAv?$AA?$AA@ 000000018004e608     libucrt:lcidtoname_downlevel.obj
 0002:00006618       ??_C@_1M@ELCKCCJJ@?$AAm?$AAi?$AA?9?$AAn?$AAz?$AA?$AA@ 000000018004e618     libucrt:lcidtoname_downlevel.obj
 0002:00006628       ??_C@_1M@CBOOLAPA@?$AAm?$AAk?$AA?9?$AAm?$AAk?$AA?$AA@ 000000018004e628     libucrt:lcidtoname_downlevel.obj
 0002:00006638       ??_C@_1M@GPHNBJKN@?$AAm?$AAl?$AA?9?$AAi?$AAn?$AA?$AA@ 000000018004e638     libucrt:lcidtoname_downlevel.obj
 0002:00006648       ??_C@_1M@PABJILIG@?$AAm?$AAn?$AA?9?$AAm?$AAn?$AA?$AA@ 000000018004e648     libucrt:lcidtoname_downlevel.obj
 0002:00006658       ??_C@_1M@FGBKKIPG@?$AAm?$AAr?$AA?9?$AAi?$AAn?$AA?$AA@ 000000018004e658     libucrt:lcidtoname_downlevel.obj
 0002:00006668       ??_C@_1M@NDBPDDAL@?$AAm?$AAs?$AA?9?$AAb?$AAn?$AA?$AA@ 000000018004e668     libucrt:lcidtoname_downlevel.obj
 0002:00006678       ??_C@_1M@OPIHOOPI@?$AAm?$AAs?$AA?9?$AAm?$AAy?$AA?$AA@ 000000018004e678     libucrt:lcidtoname_downlevel.obj
 0002:00006688       ??_C@_1M@PPDBCNFM@?$AAm?$AAt?$AA?9?$AAm?$AAt?$AA?$AA@ 000000018004e688     libucrt:lcidtoname_downlevel.obj
 0002:00006698       ??_C@_1M@KDJDKMDD@?$AAn?$AAb?$AA?9?$AAn?$AAo?$AA?$AA@ 000000018004e698     libucrt:lcidtoname_downlevel.obj
 0002:000066a8       ??_C@_1M@KFCFLMJP@?$AAn?$AAl?$AA?9?$AAb?$AAe?$AA?$AA@ 000000018004e6a8     libucrt:lcidtoname_downlevel.obj
 0002:000066b8       ??_C@_1M@KPOPDDGO@?$AAn?$AAl?$AA?9?$AAn?$AAl?$AA?$AA@ 000000018004e6b8     libucrt:lcidtoname_downlevel.obj
 0002:000066c8       ??_C@_1M@LJKPEMLN@?$AAn?$AAn?$AA?9?$AAn?$AAo?$AA?$AA@ 000000018004e6c8     libucrt:lcidtoname_downlevel.obj
 0002:000066d8       ??_C@_1M@BDGHHBFL@?$AAn?$AAs?$AA?9?$AAz?$AAa?$AA?$AA@ 000000018004e6d8     libucrt:lcidtoname_downlevel.obj
 0002:000066e8       ??_C@_1M@IDEHOAP@?$AAp?$AAa?$AA?9?$AAi?$AAn?$AA?$AA@ 000000018004e6e8     libucrt:lcidtoname_downlevel.obj
 0002:000066f8       ??_C@_1M@HDBKGOGH@?$AAp?$AAl?$AA?9?$AAp?$AAl?$AA?$AA@ 000000018004e6f8     libucrt:lcidtoname_downlevel.obj
 0002:00006708       ??_C@_1M@LJLLCMEH@?$AAp?$AAt?$AA?9?$AAb?$AAr?$AA?$AA@ 000000018004e708     libucrt:lcidtoname_downlevel.obj
 0002:00006718       ??_C@_1M@NCMONAAL@?$AAp?$AAt?$AA?9?$AAp?$AAt?$AA?$AA@ 000000018004e718     libucrt:lcidtoname_downlevel.obj
 0002:00006728       ??_C@_1O@EAKMAJDN@?$AAq?$AAu?$AAz?$AA?9?$AAb?$AAo?$AA?$AA@ 000000018004e728     libucrt:lcidtoname_downlevel.obj
 0002:00006738       ??_C@_1O@BHHPIGDN@?$AAq?$AAu?$AAz?$AA?9?$AAe?$AAc?$AA?$AA@ 000000018004e738     libucrt:lcidtoname_downlevel.obj
 0002:00006748       ??_C@_1O@GBAPEKMJ@?$AAq?$AAu?$AAz?$AA?9?$AAp?$AAe?$AA?$AA@ 000000018004e748     libucrt:lcidtoname_downlevel.obj
 0002:00006758       ??_C@_1M@CLGLEFBO@?$AAr?$AAo?$AA?9?$AAr?$AAo?$AA?$AA@ 000000018004e758     libucrt:lcidtoname_downlevel.obj
 0002:00006768       ??_C@_1M@CEEDODME@?$AAr?$AAu?$AA?9?$AAr?$AAu?$AA?$AA@ 000000018004e768     libucrt:lcidtoname_downlevel.obj
 0002:00006778       ??_C@_1M@HPKKKMPP@?$AAs?$AAa?$AA?9?$AAi?$AAn?$AA?$AA@ 000000018004e778     libucrt:lcidtoname_downlevel.obj
 0002:00006788       ??_C@_1M@BKMAIGOJ@?$AAs?$AAe?$AA?9?$AAf?$AAi?$AA?$AA@ 000000018004e788     libucrt:lcidtoname_downlevel.obj
 0002:00006798       ??_C@_1M@NDPIFLFI@?$AAs?$AAe?$AA?9?$AAn?$AAo?$AA?$AA@ 000000018004e798     libucrt:lcidtoname_downlevel.obj
 0002:000067a8       ??_C@_1M@DANKKHJ@?$AAs?$AAe?$AA?9?$AAs?$AAe?$AA?$AA@ 000000018004e7a8     libucrt:lcidtoname_downlevel.obj
 0002:000067b8       ??_C@_1M@PNBLONPJ@?$AAs?$AAk?$AA?9?$AAs?$AAk?$AA?$AA@ 000000018004e7b8     libucrt:lcidtoname_downlevel.obj
 0002:000067c8       ??_C@_1M@LFMODOAL@?$AAs?$AAl?$AA?9?$AAs?$AAi?$AA?$AA@ 000000018004e7c8     libucrt:lcidtoname_downlevel.obj
 0002:000067d8       ??_C@_1O@DFKOMPG@?$AAs?$AAm?$AAa?$AA?9?$AAn?$AAo?$AA?$AA@ 000000018004e7d8     libucrt:lcidtoname_downlevel.obj
 0002:000067e8       ??_C@_1O@NDKPBNNH@?$AAs?$AAm?$AAa?$AA?9?$AAs?$AAe?$AA?$AA@ 000000018004e7e8     libucrt:lcidtoname_downlevel.obj
 0002:000067f8       ??_C@_1O@PLLKBHAB@?$AAs?$AAm?$AAj?$AA?9?$AAn?$AAo?$AA?$AA@ 000000018004e7f8     libucrt:lcidtoname_downlevel.obj
 0002:00006808       ??_C@_1O@CLEPOGCA@?$AAs?$AAm?$AAj?$AA?9?$AAs?$AAe?$AA?$AA@ 000000018004e808     libucrt:lcidtoname_downlevel.obj
 0002:00006818       ??_C@_1O@DLGJGKMK@?$AAs?$AAm?$AAn?$AA?9?$AAf?$AAi?$AA?$AA@ 000000018004e818     libucrt:lcidtoname_downlevel.obj
 0002:00006828       ??_C@_1O@OJDJGAJC@?$AAs?$AAm?$AAs?$AA?9?$AAf?$AAi?$AA?$AA@ 000000018004e828     libucrt:lcidtoname_downlevel.obj
 0002:00006838       ??_C@_1M@BOFOGHPB@?$AAs?$AAq?$AA?9?$AAa?$AAl?$AA?$AA@ 000000018004e838     libucrt:lcidtoname_downlevel.obj
 0002:00006848       ??_C@_1BG@LJBBIPGB@?$AAs?$AAr?$AA?9?$AAb?$AAa?$AA?9?$AAc?$AAy?$AAr?$AAl?$AA?$AA@ 000000018004e848     libucrt:lcidtoname_downlevel.obj
 0002:00006860       ??_C@_1BG@JLBENFOE@?$AAs?$AAr?$AA?9?$AAb?$AAa?$AA?9?$AAl?$AAa?$AAt?$AAn?$AA?$AA@ 000000018004e860     libucrt:lcidtoname_downlevel.obj
 0002:00006878       ??_C@_1BG@KODPNHE@?$AAs?$AAr?$AA?9?$AAs?$AAp?$AA?9?$AAc?$AAy?$AAr?$AAl?$AA?$AA@ 000000018004e878     libucrt:lcidtoname_downlevel.obj
 0002:00006890       ??_C@_1BG@CIOGKHPB@?$AAs?$AAr?$AA?9?$AAs?$AAp?$AA?9?$AAl?$AAa?$AAt?$AAn?$AA?$AA@ 000000018004e890     libucrt:lcidtoname_downlevel.obj
 0002:000068a8       ??_C@_1M@NGFJLMAC@?$AAs?$AAv?$AA?9?$AAf?$AAi?$AA?$AA@ 000000018004e8a8     libucrt:lcidtoname_downlevel.obj
 0002:000068b8       ??_C@_1M@MPJEJAJC@?$AAs?$AAv?$AA?9?$AAs?$AAe?$AA?$AA@ 000000018004e8b8     libucrt:lcidtoname_downlevel.obj
 0002:000068c8       ??_C@_1M@MPNDHLFK@?$AAs?$AAw?$AA?9?$AAk?$AAe?$AA?$AA@ 000000018004e8c8     libucrt:lcidtoname_downlevel.obj
 0002:000068d8       ??_C@_1O@KOHBJJI@?$AAs?$AAy?$AAr?$AA?9?$AAs?$AAy?$AA?$AA@ 000000018004e8d8     libucrt:lcidtoname_downlevel.obj
 0002:000068e8       ??_C@_1M@LDCEFHA@?$AAt?$AAa?$AA?9?$AAi?$AAn?$AA?$AA@ 000000018004e8e8     libucrt:lcidtoname_downlevel.obj
 0002:000068f8       ??_C@_1M@CNJOFAK@?$AAt?$AAe?$AA?9?$AAi?$AAn?$AA?$AA@ 000000018004e8f8     libucrt:lcidtoname_downlevel.obj
 0002:00006908       ??_C@_1M@GNAECACD@?$AAt?$AAh?$AA?9?$AAt?$AAh?$AA?$AA@ 000000018004e908     libucrt:lcidtoname_downlevel.obj
 0002:00006918       ??_C@_1M@CHBIHOJO@?$AAt?$AAn?$AA?9?$AAz?$AAa?$AA?$AA@ 000000018004e918     libucrt:lcidtoname_downlevel.obj
 0002:00006928       ??_C@_1M@GCCMIGPJ@?$AAt?$AAr?$AA?9?$AAt?$AAr?$AA?$AA@ 000000018004e928     libucrt:lcidtoname_downlevel.obj
 0002:00006938       ??_C@_1M@CELMCNBK@?$AAt?$AAt?$AA?9?$AAr?$AAu?$AA?$AA@ 000000018004e938     libucrt:lcidtoname_downlevel.obj
 0002:00006948       ??_C@_1M@KLMCELGA@?$AAu?$AAk?$AA?9?$AAu?$AAa?$AA?$AA@ 000000018004e948     libucrt:lcidtoname_downlevel.obj
 0002:00006958       ??_C@_1M@EPAJJAJF@?$AAu?$AAr?$AA?9?$AAp?$AAk?$AA?$AA@ 000000018004e958     libucrt:lcidtoname_downlevel.obj
 0002:00006968       ??_C@_1BG@GEGPMCDJ@?$AAu?$AAz?$AA?9?$AAu?$AAz?$AA?9?$AAc?$AAy?$AAr?$AAl?$AA?$AA@ 000000018004e968     libucrt:lcidtoname_downlevel.obj
 0002:00006980       ??_C@_1BG@EGGKJILM@?$AAu?$AAz?$AA?9?$AAu?$AAz?$AA?9?$AAl?$AAa?$AAt?$AAn?$AA?$AA@ 000000018004e980     libucrt:lcidtoname_downlevel.obj
 0002:00006998       ??_C@_1M@GFOCLFF@?$AAv?$AAi?$AA?9?$AAv?$AAn?$AA?$AA@ 000000018004e998     libucrt:lcidtoname_downlevel.obj
 0002:000069a8       ??_C@_1M@CPAMEDFI@?$AAx?$AAh?$AA?9?$AAz?$AAa?$AA?$AA@ 000000018004e9a8     libucrt:lcidtoname_downlevel.obj
 0002:000069b8       ??_C@_1O@EBKIFIGN@?$AAz?$AAh?$AA?9?$AAc?$AAh?$AAs?$AA?$AA@ 000000018004e9b8     libucrt:lcidtoname_downlevel.obj
 0002:000069c8       ??_C@_1O@NMHPGANE@?$AAz?$AAh?$AA?9?$AAc?$AAh?$AAt?$AA?$AA@ 000000018004e9c8     libucrt:lcidtoname_downlevel.obj
 0002:000069d8       ??_C@_1M@LPINJOMC@?$AAz?$AAh?$AA?9?$AAc?$AAn?$AA?$AA@ 000000018004e9d8     libucrt:lcidtoname_downlevel.obj
 0002:000069e8       ??_C@_1M@OCJEJODD@?$AAz?$AAh?$AA?9?$AAh?$AAk?$AA?$AA@ 000000018004e9e8     libucrt:lcidtoname_downlevel.obj
 0002:000069f8       ??_C@_1M@DNDLJINH@?$AAz?$AAh?$AA?9?$AAm?$AAo?$AA?$AA@ 000000018004e9f8     libucrt:lcidtoname_downlevel.obj
 0002:00006a08       ??_C@_1M@MBFDNDND@?$AAz?$AAh?$AA?9?$AAs?$AAg?$AA?$AA@ 000000018004ea08     libucrt:lcidtoname_downlevel.obj
 0002:00006a18       ??_C@_1M@IMEPLEPE@?$AAz?$AAh?$AA?9?$AAt?$AAw?$AA?$AA@ 000000018004ea18     libucrt:lcidtoname_downlevel.obj
 0002:00006a28       ??_C@_1M@BBGHNHJP@?$AAz?$AAu?$AA?9?$AAz?$AAa?$AA?$AA@ 000000018004ea28     libucrt:lcidtoname_downlevel.obj
 0002:00006a38       __real@3ff0000000000000    000000018004ea38     libucrt:ceil.obj
 0002:00006ca0       ??_C@_1BA@BALFACEM@?$AAC?$AAO?$AAN?$AAO?$AAU?$AAT?$AA$?$AA?$AA@ 000000018004eca0     libucrt:initcon.obj
 0002:00006cb0       __log10_256_lead           000000018004ecb0     libucrt:log10_256_lead_tail_table.obj
 0002:000074c0       __log10_256_tail           000000018004f4c0     libucrt:log10_256_lead_tail_table.obj
 0002:00007cd0       __log_F_inv_qword          000000018004fcd0     libucrt:log_f_inv_qword_table.obj
 0002:000084e0       ??_C@_05HGHHAHAP@log10?$AA@ 00000001800504e0     libucrt:log_special.obj
 0002:000084e8       ??_C@_1BK@DBDEIDLH@?$AAK?$AAE?$AAR?$AAN?$AAE?$AAL?$AA3?$AA2?$AA?4?$AAD?$AAL?$AAL?$AA?$AA@ 00000001800504e8     DelayImp:delayhlp.obj
 0002:00008508       ??_C@_0BI@OMNLIJDB@AcquireSRWLockExclusive?$AA@ 0000000180050508     DelayImp:delayhlp.obj
 0002:00008520       ??_C@_0BI@HMIEPCNJ@ReleaseSRWLockExclusive?$AA@ 0000000180050520     DelayImp:delayhlp.obj
 0002:00008538       __pfnDliFailureHook2       0000000180050538     DelayImp:delayhk1.obj
 0002:00008540       _load_config_used          0000000180050540     LIBCMT:loadcfg.obj
 0002:000085d8       ??_C@_0BA@JFNIOLAK@string?5too?5long?$AA@ 00000001800505d8     njsCommon.obj
 0002:000085f0       ??_C@_1LI@BNEDJCOI@?$AAd?$AA?3?$AA?2?$AAl?$AAo?$AAi?$AAc?$AAd?$AAe?$AAl?$AAa?$AAu?$AAn?$AAa?$AAy?$AA?2?$AAm?$AAd?$AAl?$AA?2?$AAm?$AAa?$AAi?$AAs?$AAo?$AAn?$AAd?$AAe?$AAs?$AAl?$AAi?$AAg@ 00000001800505f0     njsCommon.obj
 0002:000086b0       ??_C@_1FK@CBGIJHDF@?$AAv?$AAa?$AAl?$AAu?$AAe?$AA?4?$AAs?$AAi?$AAz?$AAe?$AA?$CI?$AA?$CJ?$AA?5?$AA?$DM?$AA?$DN?$AA?5?$AAI?$AAN?$AAT?$AA_?$AAM?$AAA?$AAX?$AA?5?$AA?$CG?$AA?$CG?$AA?5?$AA?$CC?$AAs?$AAt?$AAr?$AAi@ 00000001800506b0     njsCommon.obj
 0002:00008710       ??_C@_1KE@NDHAKLCO@?$AAd?$AA?3?$AA?2?$AAl?$AAo?$AAi?$AAc?$AAd?$AAe?$AAl?$AAa?$AAu?$AAn?$AAa?$AAy?$AA?2?$AAm?$AAd?$AAl?$AA?2?$AAm?$AAa?$AAi?$AAs?$AAo?$AAn?$AAd?$AAe?$AAs?$AAl?$AAi?$AAg@ 0000000180050710     njsCommon.obj
 0002:000087c0       ??_C@_1EC@MGGLMBLC@?$AAo?$AAb?$AAj?$AAe?$AAc?$AAt?$AA?9?$AA?$DO?$AAI?$AAn?$AAt?$AAe?$AAr?$AAn?$AAa?$AAl?$AAF?$AAi?$AAe?$AAl?$AAd?$AAC?$AAo?$AAu?$AAn?$AAt?$AA?$CI?$AA?$CJ?$AA?5?$AA?$DO?$AA?5?$AA0@ 00000001800507c0     njsCommon.obj
 0002:00008808       ??_C@_08BJJCOGCK@errorNum?$AA@ 0000000180050808     njsCommon.obj
 0002:00008814       ??_C@_06KLHHMIGM@offset?$AA@ 0000000180050814     njsCommon.obj
 0002:00008820       ??_C@_0O@BEGDKJHM@uv_queue_work?$AA@ 0000000180050820     njsCommon.obj
 0002:00008830       ??_C@_0BI@CFPLBAOH@invalid?5string?5position?$AA@ 0000000180050830     njsCommon.obj
 0002:00008848       ??_C@_1CE@LNAGEONJ@?$AA?$CB?$AAo?$AAb?$AAj?$AAe?$AAc?$AAt?$AA?4?$AAI?$AAs?$AAE?$AAm?$AAp?$AAt?$AAy?$AA?$CI?$AA?$CJ?$AA?$AA@ 0000000180050848     njsCommon.obj
 0002:0000886c       ??_C@_00CNPNBAHC@?$AA@     000000018005086c     njsOracle.obj
 0002:00008870       ??_C@_1DG@OKCGPKIB@?$AAp?$AAe?$AAr?$AAs?$AAi?$AAs?$AAt?$AAe?$AAn?$AAt?$AA?$CI?$AA?$CJ?$AA?4?$AAI?$AAs?$AAN?$AAe?$AAa?$AAr?$AAD?$AAe?$AAa?$AAt?$AAh?$AA?$CI?$AA?$CJ?$AA?$AA@ 0000000180050870     njsOracle.obj
 0002:000088a8       ??_C@_1CO@EGNPJLKI@?$AAp?$AAe?$AAr?$AAs?$AAi?$AAs?$AAt?$AAe?$AAn?$AAt?$AA?$CI?$AA?$CJ?$AA?4?$AAI?$AAs?$AAE?$AAm?$AAp?$AAt?$AAy?$AA?$CI?$AA?$CJ?$AA?$AA@ 00000001800508a8     njsOracle.obj
 0002:000088d8       ??_C@_1DA@FBGAEOIO@?$AA?$CB?$AAp?$AAe?$AAr?$AAs?$AAi?$AAs?$AAt?$AAe?$AAn?$AAt?$AA?$CI?$AA?$CJ?$AA?4?$AAI?$AAs?$AAE?$AAm?$AAp?$AAt?$AAy?$AA?$CI?$AA?$CJ?$AA?$AA@ 00000001800508d8     njsOracle.obj
 0002:00008908       ??_C@_1CO@JCKLEFMA@?$AA?$CB?$AAp?$AAe?$AAr?$AAs?$AAi?$AAs?$AAt?$AAe?$AAn?$AAt?$AA?$CI?$AA?$CJ?$AA?4?$AAI?$AAs?$AAW?$AAe?$AAa?$AAk?$AA?$CI?$AA?$CJ?$AA?$AA@ 0000000180050908     njsOracle.obj
 0002:00008938       ??_C@_1BE@GMLLOIPJ@?$AAr?$AAe?$AAf?$AAs?$AA_?$AA?5?$AA?$DO?$AA?5?$AA0?$AA?$AA@ 0000000180050938     njsOracle.obj
 0002:00008950       ??_C@_1CC@GBFLAAPF@?$AAw?$AAr?$AAa?$AAp?$AA?9?$AA?$DO?$AAr?$AAe?$AAf?$AAs?$AA_?$AA?5?$AA?$DN?$AA?$DN?$AA?5?$AA0?$AA?$AA@ 0000000180050950     njsOracle.obj
 0002:00008978       ??_C@_1DI@ELDBKNAK@?$AAw?$AAr?$AAa?$AAp?$AA?9?$AA?$DO?$AAh?$AAa?$AAn?$AAd?$AAl?$AAe?$AA_?$AA?4?$AAI?$AAs?$AAN?$AAe?$AAa?$AAr?$AAD?$AAe?$AAa?$AAt?$AAh?$AA?$CI?$AA?$CJ?$AA?$AA@ 0000000180050978     njsOracle.obj
 0002:000089b0       ??_C@_08BNCGHMGL@Oracledb?$AA@ 00000001800509b0     njsOracle.obj
 0002:000089c0       ??_C@_0O@GICFJCLP@getConnection?$AA@ 00000001800509c0     njsOracle.obj
 0002:000089d0       ??_C@_0L@DEMMGFLI@createPool?$AA@ 00000001800509d0     njsOracle.obj
 0002:000089e0       ??_C@_07CJJOHIMA@poolMax?$AA@ 00000001800509e0     njsOracle.obj
 0002:000089e8       ??_C@_07DLBFJMKP@poolMin?$AA@ 00000001800509e8     njsOracle.obj
 0002:000089f0       ??_C@_0O@CEEKNGK@poolIncrement?$AA@ 00000001800509f0     njsOracle.obj
 0002:00008a00       ??_C@_0M@KJCBBGHI@poolTimeout?$AA@ 0000000180050a00     njsOracle.obj
 0002:00008a10       ??_C@_0O@MCOBCHKC@stmtCacheSize?$AA@ 0000000180050a10     njsOracle.obj
 0002:00008a20       ??_C@_0P@LHMFCGFE@fetchArraySize?$AA@ 0000000180050a20     njsOracle.obj
 0002:00008a30       ??_C@_0L@JJDMGLON@autoCommit?$AA@ 0000000180050a30     njsOracle.obj
 0002:00008a40       ??_C@_0BB@NCBAEODJ@extendedMetaData?$AA@ 0000000180050a40     njsOracle.obj
 0002:00008a58       ??_C@_07GPLJHCBP@maxRows?$AA@ 0000000180050a58     njsOracle.obj
 0002:00008a60       ??_C@_09DINGKNNM@outFormat?$AA@ 0000000180050a60     njsOracle.obj
 0002:00008a70       ??_C@_07CPCPJPKL@version?$AA@ 0000000180050a70     njsOracle.obj
 0002:00008a78       ??_C@_0O@MEIKEDMI@versionString?$AA@ 0000000180050a78     njsOracle.obj
 0002:00008a88       ??_C@_0O@KMAKJGC@versionSuffix?$AA@ 0000000180050a88     njsOracle.obj
 0002:00008a98       ??_C@_0BA@GPOPFKB@connectionClass?$AA@ 0000000180050a98     njsOracle.obj
 0002:00008aa8       ??_C@_07KAFNIMJP@edition?$AA@ 0000000180050aa8     njsOracle.obj
 0002:00008ab0       ??_C@_0N@DGEJBIKB@externalAuth?$AA@ 0000000180050ab0     njsOracle.obj
 0002:00008ac0       ??_C@_0O@KBLMAIHK@fetchAsString?$AA@ 0000000180050ac0     njsOracle.obj
 0002:00008ad0       ??_C@_0O@FNKKGEEE@fetchAsBuffer?$AA@ 0000000180050ad0     njsOracle.obj
 0002:00008ae0       ??_C@_0BA@NCMFLOHA@lobPrefetchSize?$AA@ 0000000180050ae0     njsOracle.obj
 0002:00008af0       ??_C@_0BE@HLPLDCII@oracleClientVersion?$AA@ 0000000180050af0     njsOracle.obj
 0002:00008b08       ??_C@_0BK@PIGMHNF@oracleClientVersionString?$AA@ 0000000180050b08     njsOracle.obj
 0002:00008b28       ??_C@_0BB@GCCMNFHO@poolPingInterval?$AA@ 0000000180050b28     njsOracle.obj
 0002:00008b3c       ??_C@_06LLKHDPKL@events?$AA@ 0000000180050b3c     njsOracle.obj
 0002:00008b44       ??_C@_05EGJIMALK@UTF?98?$AA@ 0000000180050b44     njsOracle.obj
 0002:00008b50       ??_C@_0BG@EFEBDOON@node?9oracledb?5?3?52?42?40?$AA@ 0000000180050b50     njsOracle.obj
 0002:00008b68       ??_C@_05MOMJAEKM@2?42?40?$AA@ 0000000180050b68     njsOracle.obj
 0002:00008b70       ??_C@_0P@DJOANNIK@?$CFd?4?$CFd?4?$CFd?4?$CFd?4?$CFd?$AA@ 0000000180050b70     njsOracle.obj
 0002:00008b80       ??_C@_04CCHAHKJA@user?$AA@ 0000000180050b80     njsOracle.obj
 0002:00008b88       ??_C@_08NLHBPEGP@password?$AA@ 0000000180050b88     njsOracle.obj
 0002:00008b98       ??_C@_0O@GBMHGACH@connectString?$AA@ 0000000180050b98     njsOracle.obj
 0002:00008ba8       ??_C@_0M@DACJLPIA@newPassword?$AA@ 0000000180050ba8     njsOracle.obj
 0002:00008bb8       ??_C@_09FOKGCGGL@privilege?$AA@ 0000000180050bb8     njsOracle.obj
 0002:00008bc8       ??_C@_0O@KFEBOKGH@GetConnection?$AA@ 0000000180050bc8     njsOracle.obj
 0002:00008bd8       ??_C@_0L@LCFAOKGP@CreatePool?$AA@ 0000000180050bd8     njsOracle.obj
 0002:00008be8       ??_C@_0BF@LFDFHDLI@?4?4?2src?2njsOracle?4cpp?$AA@ 0000000180050be8     njsOracle.obj
 0002:00008c00       ??_C@_08JPNHPOMI@oracledb?$AA@ 0000000180050c00     njsOracle.obj
 0002:00008c10       ??_7njsOracledb@@6B@       0000000180050c10     njsOracle.obj
 0002:00008c38       ??_7ObjectWrap@Nan@@6B@    0000000180050c38     njsOracle.obj
 0002:00008c50       ??_C@_04OIEIIIMK@Pool?$AA@ 0000000180050c50     njsPool.obj
 0002:00008c58       ??_C@_05LBOHBHFK@close?$AA@ 0000000180050c58     njsPool.obj
 0002:00008c60       ??_C@_0BA@ILIHCEPM@connectionsOpen?$AA@ 0000000180050c60     njsPool.obj
 0002:00008c70       ??_C@_0BB@EBFGKEIN@connectionsInUse?$AA@ 0000000180050c70     njsPool.obj
 0002:00008c84       ??_C@_05LGELBCGM@Close?$AA@ 0000000180050c84     njsPool.obj
 0002:00008c90       ??_7njsPool@@6B@           0000000180050c90     njsPool.obj
 0002:00008cc0       ??_C@_1IM@FJEEKDPJ@?$AAD?$AA?3?$AA?2?$AAL?$AAo?$AAi?$AAc?$AAD?$AAE?$AAL?$AAA?$AAU?$AAN?$AAA?$AAY?$AA?2?$AAM?$AAd?$AAl?$AA?2?$AAM?$AAa?$AAi?$AAs?$AAo?$AAn?$AAD?$AAe?$AAs?$AAL?$AAi?$AAg@ 0000000180050cc0     njsConnection.obj
 0002:00008d50       ??_C@_1FM@LOELJOFK@?$AAs?$AAi?$AAz?$AAe?$AA?5?$AA?$DM?$AA?$DN?$AA?5?$AAi?$AAm?$AAp?$AA?3?$AA?3?$AAk?$AAM?$AAa?$AAx?$AAL?$AAe?$AAn?$AAg?$AAt?$AAh?$AA?5?$AA?$CG?$AA?$CG?$AA?5?$AA?$CC?$AAt?$AAo?$AAo?$AA?5@ 0000000180050d50     njsConnection.obj
 0002:00008db0       ??_C@_0L@PJJKMLL@Connection?$AA@ 0000000180050db0     njsConnection.obj
 0002:00008dc0       ??_C@_07EMGJIMLB@execute?$AA@ 0000000180050dc0     njsConnection.obj
 0002:00008dc8       ??_C@_0M@BJPJDOEF@executeMany?$AA@ 0000000180050dc8     njsConnection.obj
 0002:00008dd8       ??_C@_0BB@BPICDGJO@getStatementInfo?$AA@ 0000000180050dd8     njsConnection.obj
 0002:00008dec       ??_C@_06IFNEBLAJ@commit?$AA@ 0000000180050dec     njsConnection.obj
 0002:00008df8       ??_C@_08FBLICIPL@rollback?$AA@ 0000000180050df8     njsConnection.obj
 0002:00008e04       ??_C@_05ELPHFHOI@break?$AA@ 0000000180050e04     njsConnection.obj
 0002:00008e10       ??_C@_09EJNJPPHA@createLob?$AA@ 0000000180050e10     njsConnection.obj
 0002:00008e20       ??_C@_0P@NILKCPEC@changePassword?$AA@ 0000000180050e20     njsConnection.obj
 0002:00008e30       ??_C@_04OONEELOO@ping?$AA@ 0000000180050e30     njsConnection.obj
 0002:00008e38       ??_C@_08BMOJCBA@clientId?$AA@ 0000000180050e38     njsConnection.obj
 0002:00008e44       ??_C@_06BIEEJMKO@module?$AA@ 0000000180050e44     njsConnection.obj
 0002:00008e4c       ??_C@_06DDLLCOJG@action?$AA@ 0000000180050e4c     njsConnection.obj
 0002:00008e58       ??_C@_0BE@FLLIGNEJ@oracleServerVersion?$AA@ 0000000180050e58     njsConnection.obj
 0002:00008e70       ??_C@_0BK@NOJNODON@oracleServerVersionString?$AA@ 0000000180050e70     njsConnection.obj
 0002:00008e8c       ??_C@_04MEMAJGDJ@name?$AA@ 0000000180050e8c     njsConnection.obj
 0002:00008e98       ??_C@_09DHEEBCNP@fetchType?$AA@ 0000000180050e98     njsConnection.obj
 0002:00008ea4       ??_C@_06MPIJJHIJ@dbType?$AA@ 0000000180050ea4     njsConnection.obj
 0002:00008eb0       ??_C@_08DGPNALPA@nullable?$AA@ 0000000180050eb0     njsConnection.obj
 0002:00008ec0       ??_C@_08OABDNNOP@byteSize?$AA@ 0000000180050ec0     njsConnection.obj
 0002:00008ed0       ??_C@_09HJGOLHNF@precision?$AA@ 0000000180050ed0     njsConnection.obj
 0002:00008edc       ??_C@_05MHMEBBGO@scale?$AA@ 0000000180050edc     njsConnection.obj
 0002:00008ee4       ??_C@_04GPMDFGEJ@type?$AA@ 0000000180050ee4     njsConnection.obj
 0002:00008ef0       ??_C@_07GDPCCCPH@maxSize?$AA@ 0000000180050ef0     njsConnection.obj
 0002:00008ef8       ??_C@_03BALCFKBP@val?$AA@  0000000180050ef8     njsConnection.obj
 0002:00008efc       ??_C@_03DAPAKLGM@dir?$AA@  0000000180050efc     njsConnection.obj
 0002:00008f00       ??_C@_0N@HGIHOFAC@maxArraySize?$AA@ 0000000180050f00     njsConnection.obj
 0002:00008f10       ??_C@_08FOIOHAI@bindDefs?$AA@ 0000000180050f10     njsConnection.obj
 0002:00008f1c       ??_C@_01JLIPDDHJ@?3?$AA@   0000000180050f1c     njsConnection.obj
 0002:00008f20       ??_C@_09MLCBPDGD@resultSet?$AA@ 0000000180050f20     njsConnection.obj
 0002:00008f30       ??_C@_09IALOBJIC@fetchInfo?$AA@ 0000000180050f30     njsConnection.obj
 0002:00008f40       ??_C@_0M@KLLCJFJH@batchErrors?$AA@ 0000000180050f40     njsConnection.obj
 0002:00008f50       ??_C@_0N@HLDMDHHI@dmlRowCounts?$AA@ 0000000180050f50     njsConnection.obj
 0002:00008f60       ??_C@_06GPFDNHLC@newLob?$AA@ 0000000180050f60     njsConnection.obj
 0002:00008f68       ??_C@_07LFBPOOOH@Execute?$AA@ 0000000180050f68     njsConnection.obj
 0002:00008f70       ??_C@_08CADMLJEK@outBinds?$AA@ 0000000180050f70     njsConnection.obj
 0002:00008f80       ??_C@_0N@KAPCDOFA@rowsAffected?$AA@ 0000000180050f80     njsConnection.obj
 0002:00008f90       ??_C@_08PGKJPPDP@metaData?$AA@ 0000000180050f90     njsConnection.obj
 0002:00008f9c       ??_C@_04IMCGAIPI@rows?$AA@ 0000000180050f9c     njsConnection.obj
 0002:00008fa8       ??_C@_0M@BMIOFLN@ExecuteMany?$AA@ 0000000180050fa8     njsConnection.obj
 0002:00008fb8       ??_C@_0BB@DBCBAEGE@GetStatementInfo?$AA@ 0000000180050fb8     njsConnection.obj
 0002:00008fd0       ??_C@_09JBHNJHIF@bindNames?$AA@ 0000000180050fd0     njsConnection.obj
 0002:00008fe0       ??_C@_0O@OBAHAJHK@statementType?$AA@ 0000000180050fe0     njsConnection.obj
 0002:00008ff0       ??_C@_06EKGJCCJF@Commit?$AA@ 0000000180050ff0     njsConnection.obj
 0002:00008ff8       ??_C@_08NDEJKKFI@Rollback?$AA@ 0000000180050ff8     njsConnection.obj
 0002:00009004       ??_C@_05EMFLFCNO@Break?$AA@ 0000000180051004     njsConnection.obj
 0002:00009010       ??_C@_09GIEPMKA@CreateLob?$AA@ 0000000180051010     njsConnection.obj
 0002:00009020       ??_C@_0P@FAHPBBNM@ChangePassword?$AA@ 0000000180051020     njsConnection.obj
 0002:00009030       ??_C@_04CPBFGEOK@Ping?$AA@ 0000000180051030     njsConnection.obj
 0002:00009038       ??_7njsConnection@@6B@     0000000180051038     njsConnection.obj
 0002:00009060       ??_C@_09IEHMPALD@ResultSet?$AA@ 0000000180051060     njsResultSet.obj
 0002:00009070       ??_C@_07HNPEIKLP@getRows?$AA@ 0000000180051070     njsResultSet.obj
 0002:00009078       ??_C@_07IEICOIOJ@GetRows?$AA@ 0000000180051078     njsResultSet.obj
 0002:00009080       ??_7njsResultSet@@6B@      0000000180051080     njsResultSet.obj
 0002:000090a8       ??_C@_0BB@EBPPLLMA@NJS?9000?3?5success?$AA@ 00000001800510a8     njsMessages.obj
 0002:000090c0       ??_C@_0CN@EAPPLFIE@NJS?9001?3?5expected?5callback?5as?5la@ 00000001800510c0     njsMessages.obj
 0002:000090f0       ??_C@_0BG@CPODOMNC@NJS?9002?3?5invalid?5pool?$AA@ 00000001800510f0     njsMessages.obj
 0002:00009108       ??_C@_0BM@JFAMIHMB@NJS?9003?3?5invalid?5connection?$AA@ 0000000180051108     njsMessages.obj
 0002:00009128       ??_C@_0CH@LDFPEIAC@NJS?9004?3?5invalid?5value?5for?5prope@ 0000000180051128     njsMessages.obj
 0002:00009150       ??_C@_0CI@LJKIPLLG@NJS?9005?3?5invalid?5value?5for?5param@ 0000000180051150     njsMessages.obj
 0002:00009178       ??_C@_0CH@LNEBGLBI@NJS?9006?3?5invalid?5type?5for?5parame@ 0000000180051178     njsMessages.obj
 0002:000091a0       ??_C@_0DA@LLNCMIBF@NJS?9007?3?5invalid?5value?5for?5?$CC?$CFs?$CC?5@ 00000001800511a0     njsMessages.obj
 0002:000091d0       ??_C@_0CP@IGIOFNIJ@NJS?9008?3?5invalid?5type?5for?5?$CC?$CFs?$CC?5i@ 00000001800511d0     njsMessages.obj
 0002:00009200       ??_C@_0CG@NEDBOLL@NJS?9009?3?5invalid?5number?5of?5param@ 0000000180051200     njsMessages.obj
 0002:00009228       ??_C@_0CP@PIMAJCAD@NJS?9010?3?5unsupported?5data?5type?5?$CF@ 0000000180051228     njsMessages.obj
 0002:00009258       ??_C@_0DC@DBADFPDA@NJS?9011?3?5encountered?5bind?5value?5@ 0000000180051258     njsMessages.obj
 0002:00009290       ??_C@_0DM@ODFBBPME@NJS?9012?3?5encountered?5invalid?5bin@ 0000000180051290     njsMessages.obj
 0002:000092d0       ??_C@_0CA@BACDJBHC@NJS?9013?3?5invalid?5bind?5direction?$AA@ 00000001800512d0     njsMessages.obj
 0002:000092f0       ??_C@_0CE@JHOFBEHB@NJS?9014?3?5?$CFs?5is?5a?5read?9only?5prope@ 00000001800512f0     njsMessages.obj
 0002:00009318       ??_C@_0CP@JOOECMDP@NJS?9015?3?5type?5was?5not?5specified?5@ 0000000180051318     njsMessages.obj
 0002:00009348       ??_C@_0CL@LPGLEDEI@NJS?9016?3?5buffer?5is?5too?5small?5for@ 0000000180051348     njsMessages.obj
 0002:00009378       ??_C@_0DM@BJIOPMLG@NJS?9017?3?5concurrent?5operations?5o@ 0000000180051378     njsMessages.obj
 0002:000093b8       ??_C@_0BL@KIHNNALH@NJS?9018?3?5invalid?5ResultSet?$AA@ 00000001800513b8     njsMessages.obj
 0002:000093d8       ??_C@_0DP@HMGLKLNL@NJS?9019?3?5ResultSet?5cannot?5be?5ret@ 00000001800513d8     njsMessages.obj
 0002:00009418       ??_C@_0CP@EDPFAMJK@NJS?9021?3?5invalid?5type?5for?5conver@ 0000000180051418     njsMessages.obj
 0002:00009448       ??_C@_0BF@EAGHGEHI@NJS?9022?3?5invalid?5Lob?$AA@ 0000000180051448     njsMessages.obj
 0002:00009460       ??_C@_0DG@BCLPOMFP@NJS?9023?3?5concurrent?5operations?5o@ 0000000180051460     njsMessages.obj
 0002:00009498       ??_C@_0CC@HFOJMIAK@NJS?9024?3?5memory?5allocation?5faile@ 0000000180051498     njsMessages.obj
 0002:000094c0       ??_C@_0DF@FGHOJMEN@NJS?9025?3?5overflow?5when?5calculati@ 00000001800514c0     njsMessages.obj
 0002:000094f8       ??_C@_0CL@CJKMEINN@NJS?9026?3?5maxRows?5must?5be?5greater@ 00000001800514f8     njsMessages.obj
 0002:00009528       ??_C@_0CG@GKLPAPFN@NJS?9027?3?5unexpected?5SQL?5parsing?5@ 0000000180051528     njsMessages.obj
 0002:00009550       ??_C@_0CI@GNLLBCJN@NJS?9029?3?5invalid?5object?5from?5Jav@ 0000000180051550     njsMessages.obj
 0002:00009580       ??_C@_0EO@LBKHOOCH@NJS?9030?3?5connection?5cannot?5be?5re@ 0000000180051580     njsMessages.obj
 0002:000095d0       ??_C@_0FE@IIHCGNKK@NJS?9031?3?5connection?5cannot?5be?5re@ 00000001800515d0     njsMessages.obj
 0002:00009630       ??_C@_0EO@IIBEDJAF@NJS?9032?3?5connection?5cannot?5be?5re@ 0000000180051630     njsMessages.obj
 0002:00009680       ??_C@_0CO@BBIFBNCF@NJS?9033?3?5an?5internal?5error?5occur@ 0000000180051680     njsMessages.obj
 0002:000096b0       ??_C@_0DB@LPMKGDAI@NJS?9034?3?5data?5type?5is?5unsupporte@ 00000001800516b0     njsMessages.obj
 0002:000096e8       ??_C@_0DI@GIABIGIA@NJS?9035?3?5maxArraySize?5is?5require@ 00000001800516e8     njsMessages.obj
 0002:00009720       ??_C@_0DK@CJKKNDFP@NJS?9036?3?5given?5array?5is?5of?5size?5@ 0000000180051720     njsMessages.obj
 0002:00009760       ??_C@_0DL@OEKBIKCP@NJS?9037?3?5invalid?5data?5type?5at?5ar@ 0000000180051760     njsMessages.obj
 0002:000097a0       ??_C@_0DI@IPDIHFKI@NJS?9038?3?5maxArraySize?5value?5shou@ 00000001800517a0     njsMessages.obj
 0002:000097d8       ??_C@_0CE@LNNNGBGB@NJS?9040?3?5connection?5request?5time@ 00000001800517d8     njsMessages.obj
 0002:00009800       ??_C@_0EI@HKOKPOIO@NJS?9041?3?5cannot?5convert?5ResultSe@ 0000000180051800     njsMessages.obj
 0002:00009850       ??_C@_0EJ@EGFNABEI@NJS?9042?3?5cannot?5invoke?5ResultSet@ 0000000180051850     njsMessages.obj
 0002:000098a0       ??_C@_0DE@NMIFCHOP@NJS?9043?3?5ResultSet?5already?5conve@ 00000001800518a0     njsMessages.obj
 0002:000098d8       ??_C@_0DL@HIIGKHG@NJS?9044?3?5named?5JSON?5object?5is?5no@ 00000001800518d8     njsMessages.obj
 0002:00009918       ??_C@_0DA@OIEKOIC@NJS?9045?3?5cannot?5load?5the?5oracled@ 0000000180051918     njsMessages.obj
 0002:00009950       ??_C@_0EF@ICDLGKFG@NJS?9046?3?5pool?5alias?5?$CC?$CFs?$CC?5already@ 0000000180051950     njsMessages.obj
 0002:00009998       ??_C@_0DM@JAMEDFKC@NJS?9047?3?5pool?5alias?5?$CC?$CFs?$CC?5not?5fou@ 0000000180051998     njsMessages.obj
 0002:000099e0       ??_C@_0EC@NMPEHBDL@NJS?9052?3?5invalid?5data?5type?5at?5ar@ 00000001800519e0     njsMessages.obj
 0002:00009a28       ??_C@_0DK@OOJKKNAO@NJS?9053?3?5array?5value?5expected?0?5a@ 0000000180051a28     njsMessages.obj
 0002:00009a70       ??_C@_0EG@HNEELOOK@NJS?9054?3?5Binary?5build?1Release?1or@ 0000000180051a70     njsMessages.obj
 0002:00009ab8       ??_C@_0DG@HKFLECGN@NJS?9055?3?5Binding?5by?5position?5and@ 0000000180051ab8     njsMessages.obj
 0002:00009af0       ??_C@_0EF@CJALDHAK@NJS?9056?3?5maxSize?5must?5be?5specifi@ 0000000180051af0     njsMessages.obj
 0002:00009b38       ??_C@_0DO@NBIBADLO@NJS?9057?3?5maxSize?5must?5be?5specifi@ 0000000180051b38     njsMessages.obj
 0002:00009b80       ??_C@_0EF@NDPDEHBB@NJS?9058?3?5maxSize?5of?5?$CFu?5is?5too?5sm@ 0000000180051b80     njsMessages.obj
 0002:00009bc8       ??_C@_0DF@MFKEEOGE@NJS?9059?3?5type?5must?5be?5specified?5@ 0000000180051bc8     njsMessages.obj
 0002:00009c00       ??_C@_0CO@EAIOCGML@NJS?9060?3?5type?5must?5be?5specified?5@ 0000000180051c00     njsMessages.obj
 0002:00009de8       __pfnDliNotifyHook2        0000000180051de8     win_delay_load_hook.obj
 0002:0000a478       ??_C@_04KJLMFAGH@ILob?$AA@ 0000000180052478     njsIntLob.obj
 0002:0000a480       ??_C@_04POLDLDMI@read?$AA@ 0000000180052480     njsIntLob.obj
 0002:0000a488       ??_C@_05NGFEDHGN@write?$AA@ 0000000180052488     njsIntLob.obj
 0002:0000a490       ??_C@_09OEGFCDGF@chunkSize?$AA@ 0000000180052490     njsIntLob.obj
 0002:0000a49c       ??_C@_06IJDLPEM@length?$AA@ 000000018005249c     njsIntLob.obj
 0002:0000a4a8       ??_C@_09BIOBDMFG@pieceSize?$AA@ 00000001800524a8     njsIntLob.obj
 0002:0000a4b8       ??_C@_0N@PFFDGBBL@autoCloseLob?$AA@ 00000001800524b8     njsIntLob.obj
 0002:0000a4c8       ??_C@_05HDPIMK@valid?$AA@  00000001800524c8     njsIntLob.obj
 0002:0000a4d0       ??_C@_04GIHNHPGD@iLob?$AA@ 00000001800524d0     njsIntLob.obj
 0002:0000a4d8       ??_C@_04DPHCJMMM@Read?$AA@ 00000001800524d8     njsIntLob.obj
 0002:0000a4e0       ??_C@_05NBPIDCFL@Write?$AA@ 00000001800524e0     njsIntLob.obj
 0002:0000a4e8       ??_7njsILob@@6B@           00000001800524e8     njsIntLob.obj
 0002:0000a510       ??_C@_0BA@GAPIGDFO@check?5connected?$AA@ 0000000180052510     dpiConn.obj
 0002:0000a520       ??_C@_0BD@MILODBG@DPI_LAST_TIME_USED?$AA@ 0000000180052520     dpiConn.obj
 0002:0000a538       ??_C@_0BC@IKBFNKOE@get?5server?5status?$AA@ 0000000180052538     dpiConn.obj
 0002:0000a550       ??_C@_0BH@FGICMEBG@allocate?5server?5handle?$AA@ 0000000180052550     dpiConn.obj
 0002:0000a568       ??_C@_0CA@DFEADKNH@allocate?5service?5context?5handle?$AA@ 0000000180052568     dpiConn.obj
 0002:0000a588       ??_C@_0BC@EEPKOHIA@set?5server?5handle?$AA@ 0000000180052588     dpiConn.obj
 0002:0000a5a0       ??_C@_0BI@HJEEGDHH@allocate?5session?5handle?$AA@ 00000001800525a0     dpiConn.obj
 0002:0000a5b8       ??_C@_0BD@GADKCNCF@set?5session?5handle?$AA@ 00000001800525b8     dpiConn.obj
 0002:0000a5d0       ??_C@_0M@GOIHKFFN@check?5proxy?$AA@ 00000001800525d0     dpiConn.obj
 0002:0000a5e0       ??_C@_0BJ@IGFHOGI@allocate?5authinfo?5handle?$AA@ 00000001800525e0     dpiConn.obj
 0002:0000a5fc       ??_C@_05MFEJDJP@value?$AA@ 00000001800525fc     dpiConn.obj
 0002:0000a608       ??_C@_0BG@HDABALFB@check?5parameter?5value?$AA@ 0000000180052608     dpiConn.obj
 0002:0000a620       ??_C@_0M@JCFODOJG@valueLength?$AA@ 0000000180052620     dpiConn.obj
 0002:0000a630       ??_C@_0BM@PLLEPNHO@check?5parameter?5valueLength?$AA@ 0000000180052630     dpiConn.obj
 0002:0000a650       ??_C@_0BD@JKBABLMN@get?5session?5handle?$AA@ 0000000180052650     dpiConn.obj
 0002:0000a668       ??_C@_0BC@GBPBGMJO@get?5server?5handle?$AA@ 0000000180052668     dpiConn.obj
 0002:0000a680       ??_C@_0BG@OKHICFAI@get?5server?5charset?5id?$AA@ 0000000180052680     dpiConn.obj
 0002:0000a698       ??_C@_0BI@OFODNCDM@allocate?5release?5string?$AA@ 0000000180052698     dpiConn.obj
 0002:0000a6b0       ??_C@_0BF@BONOEJJD@set?5app?5context?5size?$AA@ 00000001800526b0     dpiConn.obj
 0002:0000a6c8       ??_C@_0BI@HNIBDLMH@get?5context?5list?5handle?$AA@ 00000001800526c8     dpiConn.obj
 0002:0000a6e0       ??_C@_0BJ@KENBNNL@get?5context?5entry?5handle?$AA@ 00000001800526e0     dpiConn.obj
 0002:0000a700       ??_C@_0BD@BNKGMDPC@set?5namespace?5name?$AA@ 0000000180052700     dpiConn.obj
 0002:0000a718       ??_C@_08KKEFNFEL@set?5name?$AA@ 0000000180052718     dpiConn.obj
 0002:0000a728       ??_C@_09LCDBAGMM@set?5value?$AA@ 0000000180052728     dpiConn.obj
 0002:0000a738       ??_C@_0O@MKEFAJEL@set?5user?5name?$AA@ 0000000180052738     dpiConn.obj
 0002:0000a748       ??_C@_0N@IEGFIPLA@set?5password?$AA@ 0000000180052748     dpiConn.obj
 0002:0000a758       ??_C@_0BF@PPBLAAEA@set?5connection?5class?$AA@ 0000000180052758     dpiConn.obj
 0002:0000a770       ??_C@_0L@EPPBAABG@set?5purity?$AA@ 0000000180052770     dpiConn.obj
 0002:0000a780       ??_C@_0BB@NELAONMC@set?5sharding?5key?$AA@ 0000000180052780     dpiConn.obj
 0002:0000a798       ??_C@_0BH@LBLNKHBF@set?5super?5sharding?5key?$AA@ 0000000180052798     dpiConn.obj
 0002:0000a7b0       ??_C@_0BC@OIIILMCG@set?5session?5value?$AA@ 00000001800527b0     dpiConn.obj
 0002:0000a7c8       ??_C@_0BD@OEHLEGAF@set?5attribute?5text?$AA@ 00000001800527c8     dpiConn.obj
 0002:0000a7e0       ??_C@_0BG@BLHKCLJL@allocate?5sharding?5key?$AA@ 00000001800527e0     dpiConn.obj
 0002:0000a7f8       ??_C@_0L@PONNKJP@check?5type?$AA@ 00000001800527f8     dpiConn.obj
 0002:0000a808       ??_C@_0P@BOJGOOFJ@dpiConn_addRef?$AA@ 0000000180052808     dpiConn.obj
 0002:0000a818       ??_C@_0BH@KGBGLLH@dpiConn_breakExecution?$AA@ 0000000180052818     dpiConn.obj
 0002:0000a830       ??_C@_0BH@HAELJOGP@dpiConn_changePassword?$AA@ 0000000180052830     dpiConn.obj
 0002:0000a848       ??_C@_08CCKFIFOP@userName?$AA@ 0000000180052848     dpiConn.obj
 0002:0000a858       ??_C@_0BJ@BLANJLLD@check?5parameter?5userName?$AA@ 0000000180052858     dpiConn.obj
 0002:0000a878       ??_C@_0M@BMFIPHIB@oldPassword?$AA@ 0000000180052878     dpiConn.obj
 0002:0000a888       ??_C@_0BM@HFLCDEGJ@check?5parameter?5oldPassword?$AA@ 0000000180052888     dpiConn.obj
 0002:0000a8a8       ??_C@_0BM@FJMDHMGI@check?5parameter?5newPassword?$AA@ 00000001800528a8     dpiConn.obj
 0002:0000a8c8       ??_C@_0O@KAPLLEOD@dpiConn_close?$AA@ 00000001800528c8     dpiConn.obj
 0002:0000a8d8       ??_C@_0P@EFLKBFLI@check?5external?$AA@ 00000001800528d8     dpiConn.obj
 0002:0000a8e8       ??_C@_0O@CDEALGGG@check?5closing?$AA@ 00000001800528e8     dpiConn.obj
 0002:0000a8f8       ??_C@_0P@DHHIAMIC@dpiConn_commit?$AA@ 00000001800528f8     dpiConn.obj
 0002:0000a908       ??_C@_0P@LFLBPKIN@dpiConn_create?$AA@ 0000000180052908     dpiConn.obj
 0002:0000a918       ??_C@_04DNDNECCJ@conn?$AA@ 0000000180052918     dpiConn.obj
 0002:0000a920       ??_C@_0BF@CKIDHGF@check?5parameter?5conn?$AA@ 0000000180052920     dpiConn.obj
 0002:0000a938       ??_C@_0BJ@OCNJOKDD@check?5parameter?5password?$AA@ 0000000180052938     dpiConn.obj
 0002:0000a958       ??_C@_0BO@PFANODCD@check?5parameter?5connectString?$AA@ 0000000180052958     dpiConn.obj
 0002:0000a978       ??_C@_0BI@ECEEDGJF@check?5mixed?5credentials?$AA@ 0000000180052978     dpiConn.obj
 0002:0000a990       ??_C@_0BJ@EGKHHBMH@check?5edition?1conn?5class?$AA@ 0000000180052990     dpiConn.obj
 0002:0000a9b0       ??_C@_0BL@NDOFGAA@check?5edition?1new?5password?$AA@ 00000001800529b0     dpiConn.obj
 0002:0000a9d0       ??_C@_0M@BECONDHK@verify?5pool?$AA@ 00000001800529d0     dpiConn.obj
 0002:0000a9e0       ??_C@_0L@EJKHCLBI@check?5pool?$AA@ 00000001800529e0     dpiConn.obj
 0002:0000a9f0       ??_C@_0BF@PLFFODHF@check?5parameter?5name?$AA@ 00000001800529f0     dpiConn.obj
 0002:0000aa08       ??_C@_0BJ@HMCOFPMH@allocate?5describe?5handle?$AA@ 0000000180052a08     dpiConn.obj
 0002:0000aa28       ??_C@_0BJ@FFMECIB@dpiConn_getServerVersion?$AA@ 0000000180052a28     dpiConn.obj
 0002:0000aa48       ??_C@_0O@HKAFBBHO@releaseString?$AA@ 0000000180052a48     dpiConn.obj
 0002:0000aa58       ??_C@_0BO@OOMPJCHK@check?5parameter?5releaseString?$AA@ 0000000180052a58     dpiConn.obj
 0002:0000aa78       ??_C@_0BE@KHKNGJGG@releaseStringLength?$AA@ 0000000180052a78     dpiConn.obj
 0002:0000aa90       ??_C@_0CE@CJJAPPHM@check?5parameter?5releaseStringLen@ 0000000180052a90     dpiConn.obj
 0002:0000aab8       ??_C@_0M@PFMNBOAP@versionInfo?$AA@ 0000000180052ab8     dpiConn.obj
 0002:0000aac8       ??_C@_0BM@JMCHNNOH@check?5parameter?5versionInfo?$AA@ 0000000180052ac8     dpiConn.obj
 0002:0000aae8       ??_C@_0BJ@BHNCGCBP@dpiConn_getStmtCacheSize?$AA@ 0000000180052ae8     dpiConn.obj
 0002:0000ab08       ??_C@_09KLMIPJNI@cacheSize?$AA@ 0000000180052b08     dpiConn.obj
 0002:0000ab18       ??_C@_0BK@MJCMEMBJ@check?5parameter?5cacheSize?$AA@ 0000000180052b18     dpiConn.obj
 0002:0000ab38       ??_C@_0BE@FCLLHBOM@get?5stmt?5cache?5size?$AA@ 0000000180052b38     dpiConn.obj
 0002:0000ab50       ??_C@_0BD@LBOCDHAH@dpiConn_newTempLob?$AA@ 0000000180052b50     dpiConn.obj
 0002:0000ab64       ??_C@_03LLALONGA@lob?$AA@  0000000180052b64     dpiConn.obj
 0002:0000ab68       ??_C@_0BE@JLHIHMMG@check?5parameter?5lob?$AA@ 0000000180052b68     dpiConn.obj
 0002:0000ab80       ??_C@_0P@EKFEEBHC@check?5lob?5type?$AA@ 0000000180052b80     dpiConn.obj
 0002:0000ab90       ??_C@_06JMGHNNK@params?$AA@ 0000000180052b90     dpiConn.obj
 0002:0000ab98       ??_C@_0BH@HFGFMHPF@check?5parameter?5params?$AA@ 0000000180052b98     dpiConn.obj
 0002:0000abb0       ??_C@_0P@KCAHEIJJ@dpiConn_newVar?$AA@ 0000000180052bb0     dpiConn.obj
 0002:0000abc0       ??_C@_03MEPDGFMA@var?$AA@  0000000180052bc0     dpiConn.obj
 0002:0000abc8       ??_C@_0BE@OEIAPEGG@check?5parameter?5var?$AA@ 0000000180052bc8     dpiConn.obj
 0002:0000abdc       ??_C@_04PJOLNDGD@data?$AA@ 0000000180052bdc     dpiConn.obj
 0002:0000abe8       ??_C@_0BF@MGHOKGCP@check?5parameter?5data?$AA@ 0000000180052be8     dpiConn.obj
 0002:0000ac00       ??_C@_0N@PDHMKODF@dpiConn_ping?$AA@ 0000000180052c00     dpiConn.obj
 0002:0000ac10       ??_C@_0BE@GDBHEALD@dpiConn_prepareStmt?$AA@ 0000000180052c10     dpiConn.obj
 0002:0000ac24       ??_C@_03DLEKAJFN@sql?$AA@  0000000180052c24     dpiConn.obj
 0002:0000ac28       ??_C@_0BE@BLDJJIPL@check?5parameter?5sql?$AA@ 0000000180052c28     dpiConn.obj
 0002:0000ac40       ??_C@_0BA@DELNMNBH@dpiConn_release?$AA@ 0000000180052c40     dpiConn.obj
 0002:0000ac50       ??_C@_0BB@KBMFOBA@dpiConn_rollback?$AA@ 0000000180052c50     dpiConn.obj
 0002:0000ac68       ??_C@_0BC@JGPDFKJO@dpiConn_setAction?$AA@ 0000000180052c68     dpiConn.obj
 0002:0000ac80       ??_C@_0BM@KEBNADOF@dpiConn_setClientIdentifier?$AA@ 0000000180052c80     dpiConn.obj
 0002:0000aca0       ??_C@_0BC@LNAMOIKG@dpiConn_setModule?$AA@ 0000000180052ca0     dpiConn.obj
 0002:0000acb8       ??_C@_0BJ@HDILNMKN@dpiConn_setStmtCacheSize?$AA@ 0000000180052cb8     dpiConn.obj
 0002:0000acd8       ??_C@_0BE@PMJADBJA@set?5stmt?5cache?5size?$AA@ 0000000180052cd8     dpiConn.obj
 0002:0000acf0       ??_C@_0BC@KGEFGFFC@dpiContext_create?$AA@ 0000000180052cf0     dpiContext.obj
 0002:0000ad08       ??_C@_0N@KECDEAAG@fn?5start?5?$CFs?6?$AA@ 0000000180052d08     dpiContext.obj
 0002:0000ad18       ??_C@_0BB@MIEONENB@fn?5end?5?$CFs?5?9?$DO?5?$CFd?6?$AA@ 0000000180052d18     dpiContext.obj
 0002:0000ad2c       ??_C@_03OFAPEBGM@?$CFs?6?$AA@ 0000000180052d2c     dpiContext.obj
 0002:0000ad30       ??_C@_0BM@LDDONIII@dpiContext_getClientVersion?$AA@ 0000000180052d30     dpiContext.obj
 0002:0000ad50       ??_C@_0N@OBAPDHJO@check?5handle?$AA@ 0000000180052d50     dpiContext.obj
 0002:0000ad60       ??_C@_0CC@DODHKMIB@dpiContext_initCommonCreateParam@ 0000000180052d60     dpiContext.obj
 0002:0000ad88       ??_C@_0CA@PPADGAOP@dpiContext_initConnCreateParams?$AA@ 0000000180052d88     dpiContext.obj
 0002:0000ada8       ??_C@_0CA@ODFNLNFD@dpiContext_initPoolCreateParams?$AA@ 0000000180052da8     dpiContext.obj
 0002:0000adc8       ??_C@_0BK@KPOKEFBH@check?5number?5to?5text?5size?$AA@ 0000000180052dc8     dpiData.obj
 0002:0000ade8       ??_C@_0P@FIBDJNG@alloc?5interval?$AA@ 0000000180052de8     dpiData.obj
 0002:0000adf8       ??_C@_0CA@PJLFADJI@convert?5double?5to?5Oracle?5number?$AA@ 0000000180052df8     dpiData.obj
 0002:0000ae18       ??_C@_0M@FMILALPN@?$CFc?$CF?42d?3?$CF?42d?$AA@ 0000000180052e18     dpiData.obj
 0002:0000ae28       ??_C@_08NKEAKDLC@add?5date?$AA@ 0000000180052e28     dpiData.obj
 0002:0000ae34       ??_C@_06MJAEJCEG@?$CF?45llu?$AA@ 0000000180052e34     dpiDebug.obj
 0002:0000ae40       ??_C@_0P@LLNLBPNE@?$CF?44d?9?$CF?42d?9?$CF?42d?$AA@ 0000000180052e40     dpiDebug.obj
 0002:0000ae50       ??_C@_0BE@DDFLHBIB@?$CF?42d?3?$CF?42d?3?$CF?42d?4?$CF?43d?$AA@ 0000000180052e50     dpiDebug.obj
 0002:0000ae68       ??_C@_0BA@EKMALKEO@DPI_DEBUG_LEVEL?$AA@ 0000000180052e68     dpiDebug.obj
 0002:0000ae78       ??_C@_0BB@GONPDPLP@DPI_DEBUG_PREFIX?$AA@ 0000000180052e78     dpiDebug.obj
 0002:0000ae8c       ??_C@_05HGHFGDMJ@2?43?40?$AA@ 0000000180052e8c     dpiDebug.obj
 0002:0000ae98       ??_C@_0L@NPMKPCEF@ODPI?9C?5?$CFs?6?$AA@ 0000000180052e98     dpiDebug.obj
 0002:0000aea8       ??_C@_0CN@BDCFKCCB@debugging?5messages?5initialized?5a@ 0000000180052ea8     dpiDebug.obj
 0002:0000aed8       ??_C@_0BE@DLLDHEFN@allocate?5descriptor?$AA@ 0000000180052ed8     dpiDeqOptions.obj
 0002:0000aef0       ??_C@_0BE@KANOPNGD@get?5attribute?5value?$AA@ 0000000180052ef0     dpiDeqOptions.obj
 0002:0000af08       ??_C@_0BE@OPFLNBP@set?5attribute?5value?$AA@ 0000000180052f08     dpiDeqOptions.obj
 0002:0000af20       ??_C@_0BA@JKAJADED@get?5environment?$AA@ 0000000180052f20     dpiEnv.obj
 0002:0000af30       ??_C@_0BL@DNJJPIHN@alloc?5base?5date?5descriptor?$AA@ 0000000180052f30     dpiEnv.obj
 0002:0000af4c       ??_C@_06GOMJDJGK@?$CL00?300?$AA@ 0000000180052f4c     dpiEnv.obj
 0002:0000af58       ??_C@_0BD@IBCNKNJ@allocate?5OCI?5error?$AA@ 0000000180052f58     dpiEnv.obj
 0002:0000af70       ??_C@_0BD@GJDGNFEE@DPI?91000?3?5no?5error?$AA@ 0000000180052f70     dpiError.obj
 0002:0000af88       ??_C@_0BI@JFLCFBHL@DPI?91001?3?5out?5of?5memory?$AA@ 0000000180052f88     dpiError.obj
 0002:0000afa0       ??_C@_0BM@DMEINPDP@DPI?91002?3?5invalid?5?$CFs?5handle?$AA@ 0000000180052fa0     dpiError.obj
 0002:0000afc0       ??_C@_0CO@JNFBJGCA@DPI?91003?3?5OCI?5error?5handle?5is?5no@ 0000000180052fc0     dpiError.obj
 0002:0000aff0       ??_C@_0CG@IPDJHCIL@DPI?91004?3?5unable?5to?5get?5error?5me@ 0000000180052ff0     dpiError.obj
 0002:0000b018       ??_C@_0DG@IMHDCBPB@DPI?91005?3?5unable?5to?5acquire?5Orac@ 0000000180053018     dpiError.obj
 0002:0000b050       ??_C@_0DK@FPAAGCOO@DPI?91006?3?5unable?5to?5convert?5text@ 0000000180053050     dpiError.obj
 0002:0000b090       ??_C@_0CF@JAFADMBJ@DPI?91007?3?5no?5query?5has?5been?5exec@ 0000000180053090     dpiError.obj
 0002:0000b0b8       ??_C@_0CI@BBHEEFFJ@DPI?91008?3?5data?5type?5?$CFd?5is?5not?5su@ 00000001800530b8     dpiError.obj
 0002:0000b0e0       ??_C@_0EI@KJNNDHCC@DPI?91009?3?5zero?9based?5position?5?$CFu@ 00000001800530e0     dpiError.obj
 0002:0000b128       ??_C@_0BI@ILFMCGNC@DPI?91010?3?5not?5connected?$AA@ 0000000180053128     dpiError.obj
 0002:0000b140       ??_C@_0DK@BGOIJFOA@DPI?91011?3?5connection?5was?5not?5acq@ 0000000180053140     dpiError.obj
 0002:0000b180       ??_C@_0EG@OAFOIGNF@DPI?91012?3?5proxy?5authentication?5i@ 0000000180053180     dpiError.obj
 0002:0000b1c8       ??_C@_0BI@GEENGNIP@DPI?91013?3?5not?5supported?$AA@ 00000001800531c8     dpiError.obj
 0002:0000b1e0       ??_C@_0FC@IKEGECFI@DPI?91014?3?5conversion?5between?5Ora@ 00000001800531e0     dpiError.obj
 0002:0000b238       ??_C@_0CI@LEAHPCAM@DPI?91015?3?5array?5size?5of?5?$CFu?5is?5to@ 0000000180053238     dpiError.obj
 0002:0000b260       ??_C@_0BH@CLIPHIKI@DPI?91016?3?5invalid?5date?$AA@ 0000000180053260     dpiError.obj
 0002:0000b278       ??_C@_0BI@NPHGFPBN@DPI?91017?3?5value?5is?5null?$AA@ 0000000180053278     dpiError.obj
 0002:0000b290       ??_C@_0CI@JNJBFBHM@DPI?91018?3?5array?5size?5of?5?$CFu?5is?5to@ 0000000180053290     dpiError.obj
 0002:0000b2b8       ??_C@_0CJ@OLAHIIFP@DPI?91019?3?5buffer?5size?5of?5?$CFu?5is?5t@ 00000001800532b8     dpiError.obj
 0002:0000b2f0       ??_C@_0EJ@OEKLKMDC@DPI?91020?3?5version?5?$CFd?4?$CFd?5is?5not?5s@ 00000001800532f0     dpiError.obj
 0002:0000b340       ??_C@_0CE@NNFFMEI@DPI?91021?3?5Oracle?5type?5?$CFu?5is?5inva@ 0000000180053340     dpiError.obj
 0002:0000b368       ??_C@_0DO@OCNFEHKH@DPI?91022?3?5attribute?5?$CF?4?$CKs?5is?5not?5@ 0000000180053368     dpiError.obj
 0002:0000b3a8       ??_C@_0CP@JDALKAPN@DPI?91023?3?5object?5?$CF?4?$CKs?4?$CF?4?$CKs?5is?5no@ 00000001800533a8     dpiError.obj
 0002:0000b3d8       ??_C@_0CN@BEJBOGCH@DPI?91024?3?5element?5at?5index?5?$CFd?5do@ 00000001800533d8     dpiError.obj
 0002:0000b408       ??_C@_0DH@HFMBDBPF@DPI?91025?3?5no?5object?5type?5specifi@ 0000000180053408     dpiError.obj
 0002:0000b440       ??_C@_0CD@MADIFIAA@DPI?91026?3?5invalid?5character?5set?5@ 0000000180053440     dpiError.obj
 0002:0000b468       ??_C@_0DK@BCCJOLDF@DPI?91027?3?5scroll?5operation?5would@ 0000000180053468     dpiError.obj
 0002:0000b4a8       ??_C@_0CH@PDPAAABE@DPI?91028?3?5query?5position?5?$CFu?5is?5i@ 00000001800534a8     dpiError.obj
 0002:0000b4d0       ??_C@_0CD@INDAEKOP@DPI?91029?3?5no?5row?5currently?5fetch@ 00000001800534d0     dpiError.obj
 0002:0000b500       ??_C@_0EI@BBMDJIGN@DPI?91030?3?5unable?5to?5get?5or?5set?5e@ 0000000180053500     dpiError.obj
 0002:0000b548       ??_C@_0CE@JJALPJKA@DPI?91031?3?5array?5size?5cannot?5be?5z@ 0000000180053548     dpiError.obj
 0002:0000b570       ??_C@_0FC@MNBHPCEF@DPI?91032?3?5user?5name?5and?5password@ 0000000180053570     dpiError.obj
 0002:0000b5c8       ??_C@_0CD@OFBDDFJJ@DPI?91033?3?5unable?5to?5get?5row?5offs@ 00000001800535c8     dpiError.obj
 0002:0000b5f0       ??_C@_0ED@NMBPNDDH@DPI?91034?3?5connection?5created?5fro@ 00000001800535f0     dpiError.obj
 0002:0000b640       ??_C@_0EA@BNOCBGNM@DPI?91035?3?5size?5of?5the?5transactio@ 0000000180053640     dpiError.obj
 0002:0000b680       ??_C@_0DL@BBECEKDD@DPI?91036?3?5size?5of?5the?5branch?5ID?5@ 0000000180053680     dpiError.obj
 0002:0000b6c0       ??_C@_0DM@MAKBNDGL@DPI?91037?3?5column?5at?5array?5positi@ 00000001800536c0     dpiError.obj
 0002:0000b700       ??_C@_0CH@IMMOGPEG@DPI?91039?3?5statement?5was?5already?5@ 0000000180053700     dpiError.obj
 0002:0000b728       ??_C@_0CB@KHODLEKK@DPI?91040?3?5LOB?5was?5already?5closed@ 0000000180053728     dpiError.obj
 0002:0000b750       ??_C@_0CG@OOHOGBJ@DPI?91041?3?5invalid?5character?5set?5@ 0000000180053750     dpiError.obj
 0002:0000b778       ??_C@_0BN@JKJOKNF@DPI?91042?3?5invalid?5OCI?5number?$AA@ 0000000180053778     dpiError.obj
 0002:0000b798       ??_C@_0BJ@HNHFMIAL@DPI?91043?3?5invalid?5number?$AA@ 0000000180053798     dpiError.obj
 0002:0000b7b8       ??_C@_0BL@IEKDJKAG@DPI?91044?3?5number?5too?5large?$AA@ 00000001800537b8     dpiError.obj
 0002:0000b7e0       ??_C@_0EN@IKADPHJM@DPI?91045?3?5strings?5converted?5to?5n@ 00000001800537e0     dpiError.obj
 0002:0000b830       ??_C@_0DA@PKELJCCA@DPI?91046?3?5parameter?5?$CFs?5cannot?5be@ 0000000180053830     dpiError.obj
 0002:0000b860       ??_C@_0ID@HNGKEEOD@DPI?91047?3?5?$CFs?9bit?5Oracle?5Client?5l@ 0000000180053860     dpiError.obj
 0002:0000b8e8       ??_C@_0CN@NNAHKOEG@DPI?91049?3?5symbol?5?$CFs?5not?5found?5in@ 00000001800538e8     dpiError.obj
 0002:0000b920       ??_C@_0EC@LFDNEKAO@DPI?91050?3?5Oracle?5Client?5library?5@ 0000000180053920     dpiError.obj
 0002:0000b968       ??_C@_0DB@BHPACPBP@DPI?91052?3?5unable?5to?5get?5NLS?5envi@ 0000000180053968     dpiError.obj
 0002:0000b9a0       ??_C@_0GB@OPAEGMDA@DPI?91053?3?5parameter?5?$CFs?5cannot?5be@ 00000001800539a0     dpiError.obj
 0002:0000ba10       ??_C@_0EL@LJKIILGP@DPI?91055?3?5value?5is?5not?5a?5number?5@ 0000000180053a10     dpiError.obj
 0002:0000ba60       ??_C@_0FB@BKMCPJE@DPI?91056?3?5found?5object?5of?5type?5?$CF@ 0000000180053a60     dpiError.obj
 0002:0000bab8       ??_C@_0DC@KONCCPAL@DPI?91057?3?5buffer?5size?5of?5?$CFu?5is?5t@ 0000000180053ab8     dpiError.obj
 0002:0000baf0       ??_C@_0DG@JPJELOMP@DPI?91058?3?5edition?5not?5supported?5@ 0000000180053af0     dpiError.obj
 0002:0000bb28       ??_C@_0DN@IHDJIANL@DPI?91059?3?5bind?5variables?5are?5not@ 0000000180053b28     dpiError.obj
 0002:0000bb68       ??_C@_0CK@CBHIFNGE@DPI?91060?3?5subscription?5was?5alrea@ 0000000180053b68     dpiError.obj
 0002:0000bba0       ??_C@_0EE@CGKGEDGP@DPI?91061?3?5edition?5is?5not?5support@ 0000000180053ba0     dpiError.obj
 0002:0000bbe8       ??_C@_0DI@MCICBIHK@DPI?91062?3?5unexpected?5OCI?5return?5@ 0000000180053be8     dpiError.obj
 0002:0000bc20       ??_C@_03EOKLKPFN@OCI?$AA@  0000000180053c20     dpiError.obj
 0002:0000bc28       ??_C@_0BK@MENNIHPA@OCI?5error?5?$CF?4?$CKs?5?$CI?$CFs?5?1?5?$CFs?$CJ?6?$AA@ 0000000180053c28     dpiError.obj
 0002:0000bc44       ??_C@_05BKJEOBKM@42S02?$AA@ 0000000180053c44     dpiError.obj
 0002:0000bc4c       ??_C@_05OPDGIBIH@01002?$AA@ 0000000180053c4c     dpiError.obj
 0002:0000bc54       ??_C@_05OAGAMKLF@00000?$AA@ 0000000180053c54     dpiError.obj
 0002:0000bc5c       ??_C@_05JDDDFACF@HY000?$AA@ 0000000180053c5c     dpiError.obj
 0002:0000bc68       ??_C@_0BP@NFFPPOPI@internal?5error?5?$CF?4?$CKs?5?$CI?$CFs?5?1?5?$CFs?$CJ?6?$AA@ 0000000180053c68     dpiError.obj
 0002:0000bc88       ??_C@_07MIMOGFKB@dpiConn?$AA@ 0000000180053c88     dpiGen.obj
 0002:0000bc90       ??_C@_07NMHKIAEG@dpiPool?$AA@ 0000000180053c90     dpiGen.obj
 0002:0000bc98       ??_C@_07JNFNGGDP@dpiStmt?$AA@ 0000000180053c98     dpiGen.obj
 0002:0000bca0       ??_C@_06DIBALKJH@dpiVar?$AA@ 0000000180053ca0     dpiGen.obj
 0002:0000bca8       ??_C@_06EHOIDCDH@dpiLob?$AA@ 0000000180053ca8     dpiGen.obj
 0002:0000bcb0       ??_C@_09NCLJEBFB@dpiObject?$AA@ 0000000180053cb0     dpiGen.obj
 0002:0000bcc0       ??_C@_0O@MIOMFIJG@dpiObjectType?$AA@ 0000000180053cc0     dpiGen.obj
 0002:0000bcd0       ??_C@_0O@JAAMLEPD@dpiObjectAttr?$AA@ 0000000180053cd0     dpiGen.obj
 0002:0000bce0       ??_C@_09HPEMGBMM@dpiSubscr?$AA@ 0000000180053ce0     dpiGen.obj
 0002:0000bcf0       ??_C@_0O@DPOHKPBD@dpiDeqOptions?$AA@ 0000000180053cf0     dpiGen.obj
 0002:0000bd00       ??_C@_0O@GIJILCE@dpiEnqOptions?$AA@ 0000000180053d00     dpiGen.obj
 0002:0000bd10       ??_C@_0M@IDIHANIO@dpiMsgProps?$AA@ 0000000180053d10     dpiGen.obj
 0002:0000bd20       ??_C@_08EAFMCMBG@dpiRowid?$AA@ 0000000180053d20     dpiGen.obj
 0002:0000bd30       ??_C@_0L@ILPFEKMC@dpiContext?$AA@ 0000000180053d30     dpiGen.obj
 0002:0000bd40       ??_C@_0BA@GCELPLCI@allocate?5handle?$AA@ 0000000180053d40     dpiGen.obj
 0002:0000bd50       ??_C@_0N@LLDAKHNH@allocate?5env?$AA@ 0000000180053d50     dpiGen.obj
 0002:0000bd60       ??_C@_0BI@FAOLEADF@ref?5?$CFp?5?$CI?$CFs?$CJ?5?9?$DO?51?5?$FLNEW?$FN?6?$AA@ 0000000180053d60     dpiGen.obj
 0002:0000bd78       ??_C@_0BF@JKLGPNOB@fn?5end?5?$CFs?$CI?$CFp?$CJ?5?9?$DO?5?$CFd?6?$AA@ 0000000180053d78     dpiGen.obj
 0002:0000bd90       ??_C@_0BD@FLKLPIGH@ref?5?$CFp?5?$CI?$CFs?$CJ?5?9?$DO?5?$CFd?6?$AA@ 0000000180053d90     dpiGen.obj
 0002:0000bda8       ??_C@_0BB@NPOKPDLM@fn?5start?5?$CFs?$CI?$CFp?$CJ?6?$AA@ 0000000180053da8     dpiGen.obj
 0002:0000bdc0       ??_C@_0BC@LHOOFEEN@check?5main?5handle?$AA@ 0000000180053dc0     dpiGen.obj
 0002:0000bdd8       ??_C@_0BE@DDJNLHDN@create?5global?5error?$AA@ 0000000180053dd8     dpiGlobal.obj
 0002:0000bdf0       ??_C@_0BG@KKGIHILF@allocate?5error?5buffer?$AA@ 0000000180053df0     dpiGlobal.obj
 0002:0000be08       ??_C@_05FAGFPHJG@start?$AA@ 0000000180053e08     dpiGlobal.obj
 0002:0000be10       ??_C@_06KNDPGIKI@UTF?916?$AA@ 0000000180053e10     dpiGlobal.obj
 0002:0000be18       ??_C@_05CCNLIHFO@ASCII?$AA@ 0000000180053e18     dpiGlobal.obj
 0002:0000be20       ??_C@_08NBDJLNFA@UTF?916LE?$AA@ 0000000180053e20     dpiGlobal.obj
 0002:0000be30       ??_C@_08NLKHJAFK@UTF?916BE?$AA@ 0000000180053e30     dpiGlobal.obj
 0002:0000be40       ??_C@_0P@GGFDGIFP@check?5encoding?$AA@ 0000000180053e40     dpiGlobal.obj
 0002:0000be50       ??_C@_0P@KEGCGFOG@lookup?5charset?$AA@ 0000000180053e50     dpiGlobal.obj
 0002:0000be60       ??_C@_0CB@FNEFPCCF@lookup?5Oracle?5character?5set?5name@ 0000000180053e60     dpiGlobal.obj
 0002:0000be88       ??_C@_0BB@DIIECGHP@lookup?5IANA?5name?$AA@ 0000000180053e88     dpiGlobal.obj
 0002:0000bea0       ??_C@_0P@FDHPJOOJ@allocate?5slots?$AA@ 0000000180053ea0     dpiHandleList.obj
 0002:0000beb0       ??_C@_0BF@ILHGNDGP@allocate?5handle?5list?$AA@ 0000000180053eb0     dpiHandleList.obj
 0002:0000bec8       ??_C@_0BL@LOKFGCHE@allocate?5handle?5list?5slots?$AA@ 0000000180053ec8     dpiHandleList.obj
 0002:0000bee8       ??_C@_0BF@JMCKDEHN@allocate?5handle?5pool?$AA@ 0000000180053ee8     dpiHandlePool.obj
 0002:0000bf00       ??_C@_0BL@PCPNNPME@allocate?5handle?5pool?5slots?$AA@ 0000000180053f00     dpiHandlePool.obj
 0002:0000bf20       ??_C@_0N@LJPCDMOC@check?5closed?$AA@ 0000000180053f20     dpiLob.obj
 0002:0000bf30       ??_C@_0BB@DBEOJCOA@check?5connection?$AA@ 0000000180053f30     dpiLob.obj
 0002:0000bf48       ??_C@_0O@HILOOJNJ@dpiLob_addRef?$AA@ 0000000180053f48     dpiLob.obj
 0002:0000bf58       ??_C@_0N@IOMHPODJ@dpiLob_close?$AA@ 0000000180053f58     dpiLob.obj
 0002:0000bf68       ??_C@_0M@LLOJPGGD@dpiLob_copy?$AA@ 0000000180053f68     dpiLob.obj
 0002:0000bf78       ??_C@_09OGAINDPA@copiedLob?$AA@ 0000000180053f78     dpiLob.obj
 0002:0000bf88       ??_C@_0BK@IEOMGGDB@check?5parameter?5copiedLob?$AA@ 0000000180053f88     dpiLob.obj
 0002:0000bfa8       ??_C@_0BF@FPOJBBHE@dpiLob_getBufferSize?$AA@ 0000000180053fa8     dpiLob.obj
 0002:0000bfc0       ??_C@_0M@POKCMAAB@sizeInBytes?$AA@ 0000000180053fc0     dpiLob.obj
 0002:0000bfd0       ??_C@_0BM@JHEIADOJ@check?5parameter?5sizeInBytes?$AA@ 0000000180053fd0     dpiLob.obj
 0002:0000bff0       ??_C@_0BE@CINADDOP@dpiLob_getChunkSize?$AA@ 0000000180053ff0     dpiLob.obj
 0002:0000c004       ??_C@_04IAGNFIBA@size?$AA@ 0000000180054004     dpiLob.obj
 0002:0000c010       ??_C@_0BF@LPPICNFM@check?5parameter?5size?$AA@ 0000000180054010     dpiLob.obj
 0002:0000c028       ??_C@_0P@OGLJIHMP@dpiLob_getSize?$AA@ 0000000180054028     dpiLob.obj
 0002:0000c038       ??_C@_0BB@CPMGEJKF@dpiLob_readBytes?$AA@ 0000000180054038     dpiLob.obj
 0002:0000c050       ??_C@_0P@NJGDGGDA@dpiLob_release?$AA@ 0000000180054050     dpiLob.obj
 0002:0000c060       ??_C@_0BC@LNPOMFAO@dpiLob_writeBytes?$AA@ 0000000180054060     dpiLob.obj
 0002:0000c078       ??_C@_08FLGJMGDG@get?5name?$AA@ 0000000180054078     dpiObjectAttr.obj
 0002:0000c084       ??_C@_04NIDJFNBE@info?$AA@ 0000000180054084     dpiObjectAttr.obj
 0002:0000c090       ??_C@_0BF@OHKMCIFI@check?5parameter?5info?$AA@ 0000000180054090     dpiObjectAttr.obj
 0002:0000c0a8       ??_C@_0BI@COOOJFPN@get?5top?5level?5parameter?$AA@ 00000001800540a8     dpiObjectType.obj
 0002:0000c0c0       ??_C@_0O@EOALEOJO@get?5type?5code?$AA@ 00000001800540c0     dpiObjectType.obj
 0002:0000c0d0       ??_C@_0BJ@FFFFIDJB@get?5number?5of?5attributes?$AA@ 00000001800540d0     dpiObjectType.obj
 0002:0000c0f0       ??_C@_0BK@EDKCEKP@get?5collection?5descriptor?$AA@ 00000001800540f0     dpiObjectType.obj
 0002:0000c110       ??_C@_0L@EENDHMHJ@get?5schema?$AA@ 0000000180054110     dpiObjectType.obj
 0002:0000c120       ??_C@_0BC@KILIPFIF@get?5TDO?5reference?$AA@ 0000000180054120     dpiObjectType.obj
 0002:0000c138       ??_C@_07EEIDHNLF@oci?4dll?$AA@ 0000000180054138     dpiOci.obj
 0002:0000c140       ??_C@_0BO@NJNIFMPH@OCI?5allocated?5?$CFu?5bytes?5at?5?$CFp?6?$AA@ 0000000180054140     dpiOci.obj
 0002:0000c160       ??_C@_0BI@GBFFPIHE@OCIArrayDescriptorAlloc?$AA@ 0000000180054160     dpiOci.obj
 0002:0000c178       ??_C@_0BF@BBPDLEAI@allocate?5descriptors?$AA@ 0000000180054178     dpiOci.obj
 0002:0000c190       ??_C@_0BH@BNGELIIF@OCIArrayDescriptorFree?$AA@ 0000000180054190     dpiOci.obj
 0002:0000c1a8       ??_C@_0DB@EKADKCOM@free?5array?5descriptors?5?$CFp?0?5handl@ 00000001800541a8     dpiOci.obj
 0002:0000c1e0       ??_C@_0O@DEFHEHFO@OCIBindByName?$AA@ 00000001800541e0     dpiOci.obj
 0002:0000c1f0       ??_C@_0N@GCAPLCLF@bind?5by?5name?$AA@ 00000001800541f0     dpiOci.obj
 0002:0000c200       ??_C@_0P@GBJHHPMF@OCIBindByName2?$AA@ 0000000180054200     dpiOci.obj
 0002:0000c210       ??_C@_0N@GKFPAFMH@OCIBindByPos?$AA@ 0000000180054210     dpiOci.obj
 0002:0000c220       ??_C@_0BB@LHABAOG@bind?5by?5position?$AA@ 0000000180054220     dpiOci.obj
 0002:0000c238       ??_C@_0O@OIBKFMGH@OCIBindByPos2?$AA@ 0000000180054238     dpiOci.obj
 0002:0000c248       ??_C@_0P@KOOOGAF@OCIBindDynamic?$AA@ 0000000180054248     dpiOci.obj
 0002:0000c258       ??_C@_0N@IOHPHBN@bind?5dynamic?$AA@ 0000000180054258     dpiOci.obj
 0002:0000c268       ??_C@_0O@NOPFMEEP@OCIBindObject?$AA@ 0000000180054268     dpiOci.obj
 0002:0000c278       ??_C@_0M@LKHHNGIM@bind?5object?$AA@ 0000000180054278     dpiOci.obj
 0002:0000c288       ??_C@_08GMDKNOKB@OCIBreak?$AA@ 0000000180054288     dpiOci.obj
 0002:0000c298       ??_C@_0BA@PALOCMKD@break?5execution?$AA@ 0000000180054298     dpiOci.obj
 0002:0000c2a8       ??_C@_0BD@BPDIHJAA@OCIContextGetValue?$AA@ 00000001800542a8     dpiOci.obj
 0002:0000c2c0       ??_C@_0BC@BFAEHGDG@get?5context?5value?$AA@ 00000001800542c0     dpiOci.obj
 0002:0000c2d8       ??_C@_0BD@OOBEGKHN@OCIContextSetValue?$AA@ 00000001800542d8     dpiOci.obj
 0002:0000c2f0       ??_C@_0BC@DAAPPNCI@set?5context?5value?$AA@ 00000001800542f0     dpiOci.obj
 0002:0000c308       ??_C@_0BF@LABGHHEH@OCIDateTimeConstruct?$AA@ 0000000180054308     dpiOci.obj
 0002:0000c320       ??_C@_0P@OFCBNHCK@construct?5date?$AA@ 0000000180054320     dpiOci.obj
 0002:0000c330       ??_C@_0BD@IPPJCFDN@OCIDateTimeGetDate?$AA@ 0000000180054330     dpiOci.obj
 0002:0000c348       ??_C@_0BB@IEIPHLCM@get?5date?5portion?$AA@ 0000000180054348     dpiOci.obj
 0002:0000c360       ??_C@_0BD@DJFKACKP@OCIDateTimeGetTime?$AA@ 0000000180054360     dpiOci.obj
 0002:0000c378       ??_C@_0BB@ODDPFBEG@get?5time?5portion?$AA@ 0000000180054378     dpiOci.obj
 0002:0000c390       ??_C@_0BN@DPLGIJJA@OCIDateTimeGetTimeZoneOffset?$AA@ 0000000180054390     dpiOci.obj
 0002:0000c3b0       ??_C@_0BG@GNAHBIEH@get?5time?5zone?5portion?$AA@ 00000001800543b0     dpiOci.obj
 0002:0000c3c8       ??_C@_0BH@BEDLKPDE@OCIDateTimeIntervalAdd?$AA@ 00000001800543c8     dpiOci.obj
 0002:0000c3e0       ??_C@_0BF@EMDAGJLG@add?5interval?5to?5date?$AA@ 00000001800543e0     dpiOci.obj
 0002:0000c3f8       ??_C@_0BE@NKFNLDIE@OCIDateTimeSubtract?$AA@ 00000001800543f8     dpiOci.obj
 0002:0000c410       ??_C@_0O@MJBCIEEG@subtract?5date?$AA@ 0000000180054410     dpiOci.obj
 0002:0000c420       ??_C@_0P@KJGJKJDE@OCIDefineByPos?$AA@ 0000000180054420     dpiOci.obj
 0002:0000c430       ??_C@_06EPMMJFDC@define?$AA@ 0000000180054430     dpiOci.obj
 0002:0000c438       ??_C@_0BA@MMGNMJGN@OCIDefineByPos2?$AA@ 0000000180054438     dpiOci.obj
 0002:0000c448       ??_C@_0BB@OKBPHIIO@OCIDefineDynamic?$AA@ 0000000180054448     dpiOci.obj
 0002:0000c460       ??_C@_0P@DPAHHCBE@define?5dynamic?$AA@ 0000000180054460     dpiOci.obj
 0002:0000c470       ??_C@_0BA@PKICFBEF@OCIDefineObject?$AA@ 0000000180054470     dpiOci.obj
 0002:0000c480       ??_C@_0O@ICMJCPGH@define?5object?$AA@ 0000000180054480     dpiOci.obj
 0002:0000c490       ??_C@_0P@KAEAOKOE@OCIDescribeAny?$AA@ 0000000180054490     dpiOci.obj
 0002:0000c4a0       ??_C@_0O@CKIFLBDJ@describe?5type?$AA@ 00000001800544a0     dpiOci.obj
 0002:0000c4b0       ??_C@_0BD@MHOFANID@OCIDescriptorAlloc?$AA@ 00000001800544b0     dpiOci.obj
 0002:0000c4c8       ??_C@_0BC@BBMGCICA@OCIDescriptorFree?$AA@ 00000001800544c8     dpiOci.obj
 0002:0000c4e0       ??_C@_0CE@OEIHLDCH@free?5descriptor?5?$CFp?0?5type?5?$CFd?5fail@ 00000001800544e0     dpiOci.obj
 0002:0000c508       ??_C@_0BA@ECCHBOAK@OCIEnvNlsCreate?$AA@ 0000000180054508     dpiOci.obj
 0002:0000c518       ??_C@_0L@BDEMPFPP@create?5env?$AA@ 0000000180054518     dpiOci.obj
 0002:0000c528       ??_C@_0M@JDGDIIKP@OCIErrorGet?$AA@ 0000000180054528     dpiOci.obj
 0002:0000c538       ??_C@_0BE@ENOBCLEH@OCI?5freed?5ptr?5at?5?$CFp?$AA@ 0000000180054538     dpiOci.obj
 0002:0000c550       ??_C@_0P@GCKMAIPN@OCIHandleAlloc?$AA@ 0000000180054550     dpiOci.obj
 0002:0000c560       ??_C@_0O@FCHGDNAH@OCIHandleFree?$AA@ 0000000180054560     dpiOci.obj
 0002:0000c570       ??_C@_0CG@ODMAIHNM@free?5handle?5?$CFp?0?5handleType?5?$CFd?5fa@ 0000000180054570     dpiOci.obj
 0002:0000c598       ??_C@_0BI@OAGECCHB@OCIIntervalGetDaySecond?$AA@ 0000000180054598     dpiOci.obj
 0002:0000c5b0       ??_C@_0BI@PPAMKKIJ@get?5interval?5components?$AA@ 00000001800545b0     dpiOci.obj
 0002:0000c5c8       ??_C@_0BI@ICPLAFAG@OCIIntervalGetYearMonth?$AA@ 00000001800545c8     dpiOci.obj
 0002:0000c5e0       ??_C@_0BI@JENKOODN@OCIIntervalSetDaySecond?$AA@ 00000001800545e0     dpiOci.obj
 0002:0000c5f8       ??_C@_0BI@OJGBELOL@set?5interval?5components?$AA@ 00000001800545f8     dpiOci.obj
 0002:0000c610       ??_C@_0BI@PGEFMJEK@OCIIntervalSetYearMonth?$AA@ 0000000180054610     dpiOci.obj
 0002:0000c628       ??_C@_02JDPG@rb?$AA@       0000000180054628     dpiOci.obj
 0002:0000c62c       ??_C@_01KICIPPFI@?2?$AA@   000000018005462c     dpiOci.obj
 0002:0000c630       ??_C@_04HBHDLLBA@PATH?$AA@ 0000000180054630     dpiOci.obj
 0002:0000c638       ??_C@_07BHMDKMAO@?$CF?4?$CKs?2?$CFs?$AA@ 0000000180054638     dpiOci.obj
 0002:0000c640       ??_C@_0CD@JCAADACI@?$CFs?5is?5not?5the?5correct?5architectu@ 0000000180054640     dpiOci.obj
 0002:0000c668       ??_C@_0CC@MDGPNLAH@DLL?5load?5failed?3?5Windows?5Error?5?$CF@ 0000000180054668     dpiOci.obj
 0002:0000c68c       ??_C@_02JLHCEMDI@64?$AA@   000000018005468c     dpiOci.obj
 0002:0000c690       ??_C@_07EKMDLNDL@windows?$AA@ 0000000180054690     dpiOci.obj
 0002:0000c698       ??_C@_0N@IAPFAJCL@load?5library?$AA@ 0000000180054698     dpiOci.obj
 0002:0000c6a8       ??_C@_0BB@FOHNAGE@OCIClientVersion?$AA@ 00000001800546a8     dpiOci.obj
 0002:0000c6c0       ??_C@_0BD@BAIEDOD@get?5client?5version?$AA@ 00000001800546c0     dpiOci.obj
 0002:0000c6d8       ??_C@_0BG@KHJNFAEG@check?5library?5version?$AA@ 00000001800546d8     dpiOci.obj
 0002:0000c6f0       ??_C@_0BF@GGMEIKBI@OCIThreadProcessInit?$AA@ 00000001800546f0     dpiOci.obj
 0002:0000c708       ??_C@_0L@DLEJLFEL@OCIAttrGet?$AA@ 0000000180054708     dpiOci.obj
 0002:0000c718       ??_C@_0L@OEDCHFID@OCIAttrSet?$AA@ 0000000180054718     dpiOci.obj
 0002:0000c728       ??_C@_0BA@HJGIMAH@OCIThreadKeyGet?$AA@ 0000000180054728     dpiOci.obj
 0002:0000c738       ??_C@_0L@FIDEAGO@get?5symbol?$AA@ 0000000180054738     dpiOci.obj
 0002:0000c748       ??_C@_0M@DOOKBBGN@OCILobClose?$AA@ 0000000180054748     dpiOci.obj
 0002:0000c758       ??_C@_09LJAKJDPJ@close?5LOB?$AA@ 0000000180054758     dpiOci.obj
 0002:0000c768       ??_C@_0BG@DNICIMNC@OCILobCreateTemporary?$AA@ 0000000180054768     dpiOci.obj
 0002:0000c780       ??_C@_0BF@JGFGNPPD@create?5temporary?5LOB?$AA@ 0000000180054780     dpiOci.obj
 0002:0000c798       ??_C@_0BE@CDFOJGJG@OCILobFreeTemporary?$AA@ 0000000180054798     dpiOci.obj
 0002:0000c7b0       ??_C@_0BD@OHOFEBIE@free?5temporary?5LOB?$AA@ 00000001800547b0     dpiOci.obj
 0002:0000c7c8       ??_C@_0BD@DMHLPCDD@OCILobGetChunkSize?$AA@ 00000001800547c8     dpiOci.obj
 0002:0000c7e0       ??_C@_0P@NIOPFHDK@get?5chunk?5size?$AA@ 00000001800547e0     dpiOci.obj
 0002:0000c7f0       ??_C@_0BB@EAGDEGN@OCILobGetLength2?$AA@ 00000001800547f0     dpiOci.obj
 0002:0000c808       ??_C@_0L@OEGAGNNO@get?5length?$AA@ 0000000180054808     dpiOci.obj
 0002:0000c818       ??_C@_0N@ENMHNODH@OCILobIsOpen?$AA@ 0000000180054818     dpiOci.obj
 0002:0000c828       ??_C@_0O@IIIOMIAO@check?5is?5open?$AA@ 0000000180054828     dpiOci.obj
 0002:0000c838       ??_C@_0BC@IJACHKHB@OCILobIsTemporary?$AA@ 0000000180054838     dpiOci.obj
 0002:0000c850       ??_C@_0BD@JJIHDNIB@check?5is?5temporary?$AA@ 0000000180054850     dpiOci.obj
 0002:0000c868       ??_C@_0BE@LPPEHOFG@OCILobLocatorAssign?$AA@ 0000000180054868     dpiOci.obj
 0002:0000c880       ??_C@_0P@KJEFINNG@assign?5locator?$AA@ 0000000180054880     dpiOci.obj
 0002:0000c890       ??_C@_0L@JEHKMPNM@OCILobOpen?$AA@ 0000000180054890     dpiOci.obj
 0002:0000c8a0       ??_C@_0M@PHDMKLHH@OCILobRead2?$AA@ 00000001800548a0     dpiOci.obj
 0002:0000c8b0       ??_C@_0O@ILCMDPCA@read?5from?5LOB?$AA@ 00000001800548b0     dpiOci.obj
 0002:0000c8c0       ??_C@_0M@DJMABAJI@OCILobTrim2?$AA@ 00000001800548c0     dpiOci.obj
 0002:0000c8d0       ??_C@_08FJACNFCM@trim?5LOB?$AA@ 00000001800548d0     dpiOci.obj
 0002:0000c8e0       ??_C@_0N@GGJHLFKK@OCILobWrite2?$AA@ 00000001800548e0     dpiOci.obj
 0002:0000c8f0       ??_C@_0N@IMMLJBGE@write?5to?5LOB?$AA@ 00000001800548f0     dpiOci.obj
 0002:0000c900       ??_C@_0P@OKPLPMBC@OCIMemoryAlloc?$AA@ 0000000180054900     dpiOci.obj
 0002:0000c910       ??_C@_0BA@MLIMLIGP@allocate?5memory?$AA@ 0000000180054910     dpiOci.obj
 0002:0000c920       ??_C@_0O@NNIDENP@OCIMemoryFree?$AA@ 0000000180054920     dpiOci.obj
 0002:0000c930       ??_C@_0BF@DGHDMBAG@OCINlsCharSetConvert?$AA@ 0000000180054930     dpiOci.obj
 0002:0000c948       ??_C@_0N@BGJANDFJ@convert?5text?$AA@ 0000000180054948     dpiOci.obj
 0002:0000c958       ??_C@_0BG@PGBLAIAK@OCINlsCharSetIdToName?$AA@ 0000000180054958     dpiOci.obj
 0002:0000c970       ??_C@_0BG@KKCKIPCN@OCINlsCharSetNameToId?$AA@ 0000000180054970     dpiOci.obj
 0002:0000c988       ??_C@_0BN@BCFDANEA@OCINlsEnvironmentVariableGet?$AA@ 0000000180054988     dpiOci.obj
 0002:0000c9a8       ??_C@_0BN@KMOPMJB@get?5NLS?5environment?5variable?$AA@ 00000001800549a8     dpiOci.obj
 0002:0000c9c8       ??_C@_0O@OJBFLHAK@OCINlsNameMap?$AA@ 00000001800549c8     dpiOci.obj
 0002:0000c9d8       ??_C@_0BF@MJMGGPDG@OCINlsNumericInfoGet?$AA@ 00000001800549d8     dpiOci.obj
 0002:0000c9f0       ??_C@_0N@KOELPABP@get?5NLS?5info?$AA@ 00000001800549f0     dpiOci.obj
 0002:0000ca00       ??_C@_0BB@IPMPDEJD@OCINumberFromInt?$AA@ 0000000180054a00     dpiOci.obj
 0002:0000ca18       ??_C@_0BE@DAIGODDA@number?5from?5integer?$AA@ 0000000180054a18     dpiOci.obj
 0002:0000ca30       ??_C@_0BC@HKBNGJGI@OCINumberFromReal?$AA@ 0000000180054a30     dpiOci.obj
 0002:0000ca48       ??_C@_0BB@MGEBHOAN@number?5from?5real?$AA@ 0000000180054a48     dpiOci.obj
 0002:0000ca60       ??_C@_0P@DBLDDJOD@OCINumberToInt?$AA@ 0000000180054a60     dpiOci.obj
 0002:0000ca70       ??_C@_0BC@CKACBKKD@number?5to?5integer?$AA@ 0000000180054a70     dpiOci.obj
 0002:0000ca88       ??_C@_0BA@CKKGGEFJ@OCINumberToReal?$AA@ 0000000180054a88     dpiOci.obj
 0002:0000ca98       ??_C@_0P@GICKEOBP@number?5to?5real?$AA@ 0000000180054a98     dpiOci.obj
 0002:0000caa8       ??_C@_0O@DPPOGDMC@OCIObjectFree?$AA@ 0000000180054aa8     dpiOci.obj
 0002:0000cab8       ??_C@_0BA@GBGPGFHK@OCIObjectGetInd?$AA@ 0000000180054ab8     dpiOci.obj
 0002:0000cac8       ??_C@_0O@BGGJKOJA@get?5indicator?$AA@ 0000000180054ac8     dpiOci.obj
 0002:0000cad8       ??_C@_0N@NCJEGHLI@OCIObjectNew?$AA@ 0000000180054ad8     dpiOci.obj
 0002:0000cae8       ??_C@_0O@NDKBAHLB@create?5object?$AA@ 0000000180054ae8     dpiOci.obj
 0002:0000caf8       ??_C@_0N@PAEIBHGI@OCIObjectPin?$AA@ 0000000180054af8     dpiOci.obj
 0002:0000cb08       ??_C@_0O@LPCKLAGG@pin?5reference?$AA@ 0000000180054b08     dpiOci.obj
 0002:0000cb18       ??_C@_0O@BBFLJKDH@set?5attribute?$AA@ 0000000180054b18     dpiOci.obj
 0002:0000cb28       ??_C@_0BC@CEJCMIAL@OCIPasswordChange?$AA@ 0000000180054b28     dpiOci.obj
 0002:0000cb40       ??_C@_0BA@JLCOBPBJ@change?5password?$AA@ 0000000180054b40     dpiOci.obj
 0002:0000cb50       ??_C@_0M@FPLKNIHK@OCIParamGet?$AA@ 0000000180054b50     dpiOci.obj
 0002:0000cb60       ??_C@_07CBBMKIJP@OCIPing?$AA@ 0000000180054b60     dpiOci.obj
 0002:0000cb68       ??_C@_0BK@OGNJOBOM@OCI?5reallocated?5ptr?5at?5?$CFp?$AA@ 0000000180054b68     dpiOci.obj
 0002:0000cb88       ??_C@_0BG@DNOHJEJE@?$CFs?5to?5?$CFu?5bytes?5at?5?$CFp?6?$AA@ 0000000180054b88     dpiOci.obj
 0002:0000cba0       ??_C@_0P@IJOCJLJO@OCIRowidToChar?$AA@ 0000000180054ba0     dpiOci.obj
 0002:0000cbb0       ??_C@_0BE@IMPEDCFM@get?5rowid?5as?5string?$AA@ 0000000180054bb0     dpiOci.obj
 0002:0000cbc8       ??_C@_0BA@DMCCEDDG@OCIServerAttach?$AA@ 0000000180054bc8     dpiOci.obj
 0002:0000cbd8       ??_C@_0O@LAJCPCDI@server?5attach?$AA@ 0000000180054bd8     dpiOci.obj
 0002:0000cbe8       ??_C@_0BA@KGJALNKP@OCIServerDetach?$AA@ 0000000180054be8     dpiOci.obj
 0002:0000cbf8       ??_C@_0BE@KINFMONA@detatch?5from?5server?$AA@ 0000000180054bf8     dpiOci.obj
 0002:0000cc10       ??_C@_0BB@EEOOCLKG@OCIServerRelease?$AA@ 0000000180054c10     dpiOci.obj
 0002:0000cc28       ??_C@_0BD@ONELPCJK@get?5server?5version?$AA@ 0000000180054c28     dpiOci.obj
 0002:0000cc40       ??_C@_0BA@NCPPOOCH@OCISessionBegin?$AA@ 0000000180054c40     dpiOci.obj
 0002:0000cc50       ??_C@_0O@FMOJFNFH@begin?5session?$AA@ 0000000180054c50     dpiOci.obj
 0002:0000cc60       ??_C@_0O@IHBLDFFK@OCISessionEnd?$AA@ 0000000180054c60     dpiOci.obj
 0002:0000cc70       ??_C@_0M@FKMKNLOD@end?5session?$AA@ 0000000180054c70     dpiOci.obj
 0002:0000cc80       ??_C@_0O@GLIFAAGB@OCISessionGet?$AA@ 0000000180054c80     dpiOci.obj
 0002:0000cc90       ??_C@_0M@LCHOEDNA@get?5session?$AA@ 0000000180054c90     dpiOci.obj
 0002:0000cca0       ??_C@_0BF@CLONNEHD@OCISessionPoolCreate?$AA@ 0000000180054ca0     dpiOci.obj
 0002:0000ccb8       ??_C@_0M@OHBCGALL@create?5pool?$AA@ 0000000180054cb8     dpiOci.obj
 0002:0000ccc8       ??_C@_0BG@MKBFIHMK@OCISessionPoolDestroy?$AA@ 0000000180054cc8     dpiOci.obj
 0002:0000cce0       ??_C@_0N@KPMEGFBL@destroy?5pool?$AA@ 0000000180054ce0     dpiOci.obj
 0002:0000ccf0       ??_C@_0BC@FIKFNKLB@OCISessionRelease?$AA@ 0000000180054cf0     dpiOci.obj
 0002:0000cd08       ??_C@_0BA@NIIJJFAP@release?5session?$AA@ 0000000180054d08     dpiOci.obj
 0002:0000cd18       ??_C@_0BI@HFHHNGNH@OCIShardingKeyColumnAdd?$AA@ 0000000180054d18     dpiOci.obj
 0002:0000cd30       ??_C@_0BE@LMDHEGDJ@add?5sharding?5column?$AA@ 0000000180054d30     dpiOci.obj
 0002:0000cd48       ??_C@_0P@BCBFHHHE@OCIStmtExecute?$AA@ 0000000180054d48     dpiOci.obj
 0002:0000cd58       ??_C@_0O@POLLNMME@OCIStmtFetch2?$AA@ 0000000180054d58     dpiOci.obj
 0002:0000cd68       ??_C@_05MCKKOJDL@fetch?$AA@ 0000000180054d68     dpiOci.obj
 0002:0000cd70       ??_C@_0BD@KGJDPLJE@OCIStmtGetBindInfo?$AA@ 0000000180054d70     dpiOci.obj
 0002:0000cd88       ??_C@_0O@MFKJGMN@get?5bind?5info?$AA@ 0000000180054d88     dpiOci.obj
 0002:0000cd98       ??_C@_0BA@PINEPBHO@OCIStmtPrepare2?$AA@ 0000000180054d98     dpiOci.obj
 0002:0000cda8       ??_C@_0M@NHAHGLLP@prepare?5SQL?$AA@ 0000000180054da8     dpiOci.obj
 0002:0000cdb8       ??_C@_0P@BABJMAGN@OCIStmtRelease?$AA@ 0000000180054db8     dpiOci.obj
 0002:0000cdc8       ??_C@_0BC@JEGGLDKF@release?5statement?$AA@ 0000000180054dc8     dpiOci.obj
 0002:0000cde0       ??_C@_0BK@DCMDMGMH@OCISubscriptionUnRegister?$AA@ 0000000180054de0     dpiOci.obj
 0002:0000ce00       ??_C@_0L@PKKNFCHP@unregister?$AA@ 0000000180054e00     dpiOci.obj
 0002:0000ce10       ??_C@_0BE@CPBPDFID@OCIThreadKeyDestroy?$AA@ 0000000180054e10     dpiOci.obj
 0002:0000ce28       ??_C@_0O@KNIKDGGA@get?5TLS?5error?$AA@ 0000000180054e28     dpiOci.obj
 0002:0000ce38       ??_C@_0BB@KJPPLGJO@OCIThreadKeyInit?$AA@ 0000000180054e38     dpiOci.obj
 0002:0000ce50       ??_C@_0BG@NGLDENDB@initialize?5thread?5key?$AA@ 0000000180054e50     dpiOci.obj
 0002:0000ce68       ??_C@_0BA@NIONEMMP@OCIThreadKeySet?$AA@ 0000000180054e68     dpiOci.obj
 0002:0000ce78       ??_C@_0O@NCJEIFBH@set?5TLS?5error?$AA@ 0000000180054e78     dpiOci.obj
 0002:0000ce88       ??_C@_0P@IIANCGMP@OCITransCommit?$AA@ 0000000180054e88     dpiOci.obj
 0002:0000ce98       ??_C@_0BB@JEHABJPL@OCITransRollback?$AA@ 0000000180054e98     dpiOci.obj
 0002:0000ceb0       ??_C@_0O@LCCFENIL@get?5data?5type?$AA@ 0000000180054eb0     dpiOracleType.obj
 0002:0000cec0       ??_C@_0BB@CFAFGOBH@get?5charset?5form?$AA@ 0000000180054ec0     dpiOracleType.obj
 0002:0000ced8       ??_C@_09FHOEKFKP@get?5scale?$AA@ 0000000180054ed8     dpiOracleType.obj
 0002:0000cee8       ??_C@_0O@BAEDNPJM@get?5precision?$AA@ 0000000180054ee8     dpiOracleType.obj
 0002:0000cef8       ??_C@_0BB@HEIAMDEI@get?5size?5?$CIbytes?$CJ?$AA@ 0000000180054ef8     dpiOracleType.obj
 0002:0000cf10       ??_C@_0BB@HPLDGOBG@get?5size?5?$CIchars?$CJ?$AA@ 0000000180054f10     dpiOracleType.obj
 0002:0000cf28       ??_C@_0BF@JAOGIJAG@allocate?5pool?5handle?$AA@ 0000000180054f28     dpiPool.obj
 0002:0000cf40       ??_C@_0O@PIFMGIEL@set?5auth?5info?$AA@ 0000000180054f40     dpiPool.obj
 0002:0000cf50       ??_C@_0N@KMNDILIF@set?5get?5mode?$AA@ 0000000180054f50     dpiPool.obj
 0002:0000cf60       ??_C@_0BK@CJGIGDL@dpiPool_acquireConnection?$AA@ 0000000180054f60     dpiPool.obj
 0002:0000cf80       ??_C@_0P@KECEJCON@dpiPool_addRef?$AA@ 0000000180054f80     dpiPool.obj
 0002:0000cf90       ??_C@_0O@MCLBAFBH@dpiPool_close?$AA@ 0000000180054f90     dpiPool.obj
 0002:0000cfa0       ??_C@_0P@PADIGDJ@dpiPool_create?$AA@ 0000000180054fa0     dpiPool.obj
 0002:0000cfb0       ??_C@_04CJIJKHMO@pool?$AA@ 0000000180054fb0     dpiPool.obj
 0002:0000cfb8       ??_C@_0BF@BGBMNCIC@check?5parameter?5pool?$AA@ 0000000180054fb8     dpiPool.obj
 0002:0000cfd0       ??_C@_0BF@GEBLBNIG@dpiPool_getBusyCount?$AA@ 0000000180054fd0     dpiPool.obj
 0002:0000cfe8       ??_C@_0BF@MDNPEJJF@dpiPool_getOpenCount?$AA@ 0000000180054fe8     dpiPool.obj
 0002:0000d000       ??_C@_0BA@PIALAIPO@dpiPool_release?$AA@ 0000000180055000     dpiPool.obj
 0002:0000d010       ??_C@_0BJ@PCNHAGBL@dpiPool_setStmtCacheSize?$AA@ 0000000180055010     dpiPool.obj
 0002:0000d030       ??_C@_0BD@PLPLNHI@dpiPool_setTimeout?$AA@ 0000000180055030     dpiPool.obj
 0002:0000d048       ??_C@_0BI@GDCEKAD@dpiRowid_getStringValue?$AA@ 0000000180055048     dpiRowid.obj
 0002:0000d060       ??_C@_0BG@FCDINDNL@allocate?5rowid?5buffer?$AA@ 0000000180055060     dpiRowid.obj
 0002:0000d078       ??_C@_0BG@EIGANPDK@bind?5zero?5length?5name?$AA@ 0000000180055078     dpiStmt.obj
 0002:0000d090       ??_C@_0BD@DMFKEKN@allocate?5bind?5vars?$AA@ 0000000180055090     dpiStmt.obj
 0002:0000d0a8       ??_C@_0BJ@FKPJPOJA@allocate?5memory?5for?5name?$AA@ 00000001800550a8     dpiStmt.obj
 0002:0000d0c8       ??_C@_0BB@EBFMNAKF@set?5charset?5form?$AA@ 00000001800550c8     dpiStmt.obj
 0002:0000d0e0       ??_C@_0BC@NLJIDLHM@set?5max?5data?5size?$AA@ 00000001800550e0     dpiStmt.obj
 0002:0000d0f8       ??_C@_0BE@OENBIDBF@get?5parameter?5count?$AA@ 00000001800550f8     dpiStmt.obj
 0002:0000d110       ??_C@_0BE@GDEFMLED@allocate?5query?5vars?$AA@ 0000000180055110     dpiStmt.obj
 0002:0000d128       ??_C@_0BE@CEMOINLH@allocate?5query?5info?$AA@ 0000000180055128     dpiStmt.obj
 0002:0000d140       ??_C@_0N@OBCINOHN@bind?5to?5self?$AA@ 0000000180055140     dpiStmt.obj
 0002:0000d150       ??_C@_0BC@EJGPMDOI@set?5prefetch?5rows?$AA@ 0000000180055150     dpiStmt.obj
 0002:0000d168       ??_C@_0BB@JHDHMLCJ@set?5parse?5offset?$AA@ 0000000180055168     dpiStmt.obj
 0002:0000d180       ??_C@_0BB@JPPHIDMP@get?5rows?5fetched?$AA@ 0000000180055180     dpiStmt.obj
 0002:0000d198       ??_C@_0BG@PNCFAOMH@get?5batch?5error?5count?$AA@ 0000000180055198     dpiStmt.obj
 0002:0000d1b0       ??_C@_0BA@POOPCMPC@allocate?5errors?$AA@ 00000001800551b0     dpiStmt.obj
 0002:0000d1c0       ??_C@_0CA@OOKHHKFJ@allocate?5parameter?5error?5handle?$AA@ 00000001800551c0     dpiStmt.obj
 0002:0000d1e0       ??_C@_0BM@IADLNAMO@allocate?5batch?5error?5handle?$AA@ 00000001800551e0     dpiStmt.obj
 0002:0000d200       ??_C@_0BA@KBKLDONN@get?5batch?5error?$AA@ 0000000180055200     dpiStmt.obj
 0002:0000d210       ??_C@_0P@LJODAKCH@get?5row?5offset?$AA@ 0000000180055210     dpiStmt.obj
 0002:0000d220       ??_C@_0O@FJENPPMO@get?5parameter?$AA@ 0000000180055220     dpiStmt.obj
 0002:0000d230       ??_C@_0M@LJEFKIAL@get?5null?5ok?$AA@ 0000000180055230     dpiStmt.obj
 0002:0000d240       ??_C@_0BD@IIKGEFDH@get?5statement?5type?$AA@ 0000000180055240     dpiStmt.obj
 0002:0000d258       ??_C@_0BB@HCEIJGJ@get?5is?5returning?$AA@ 0000000180055258     dpiStmt.obj
 0002:0000d270       ??_C@_0BB@EKCNGIII@check?5array?5size?$AA@ 0000000180055270     dpiStmt.obj
 0002:0000d288       ??_C@_09NALHGFPA@SQL?5?$CF?4?$CKs?6?$AA@ 0000000180055288     dpiStmt.obj
 0002:0000d298       ??_C@_0O@PNHGHHGD@get?5statement?$AA@ 0000000180055298     dpiStmt.obj
 0002:0000d2a8       ??_C@_0P@ENIADDMG@dpiStmt_addRef?$AA@ 00000001800552a8     dpiStmt.obj
 0002:0000d2b8       ??_C@_0BD@DIDDHECD@dpiStmt_bindByName?$AA@ 00000001800552b8     dpiStmt.obj
 0002:0000d2d0       ??_C@_0BC@LIHHEAAM@dpiStmt_bindByPos?$AA@ 00000001800552d0     dpiStmt.obj
 0002:0000d2e8       ??_C@_0M@IBGOMNPC@bind?5by?5pos?$AA@ 00000001800552e8     dpiStmt.obj
 0002:0000d2f8       ??_C@_0O@FLFBLBB@dpiStmt_close?$AA@ 00000001800552f8     dpiStmt.obj
 0002:0000d308       ??_C@_0P@KOHGFPCG@dpiStmt_define?$AA@ 0000000180055308     dpiStmt.obj
 0002:0000d318       ??_C@_0BF@KEGGNIHE@check?5query?5position?$AA@ 0000000180055318     dpiStmt.obj
 0002:0000d330       ??_C@_0P@BDJNMOLN@check?5variable?$AA@ 0000000180055330     dpiStmt.obj
 0002:0000d340       ??_C@_0BA@FGFCOCAG@dpiStmt_execute?$AA@ 0000000180055340     dpiStmt.obj
 0002:0000d350       ??_C@_0BE@BKMFLIAO@dpiStmt_executeMany?$AA@ 0000000180055350     dpiStmt.obj
 0002:0000d368       ??_C@_0BF@BCFJJFGK@check?5statement?5type?$AA@ 0000000180055368     dpiStmt.obj
 0002:0000d380       ??_C@_0P@HJFFELFN@bufferRowIndex?$AA@ 0000000180055380     dpiStmt.obj
 0002:0000d390       ??_C@_0BP@HOKMEFMH@check?5parameter?5bufferRowIndex?$AA@ 0000000180055390     dpiStmt.obj
 0002:0000d3b0       ??_C@_0BC@NFCPCCHF@dpiStmt_fetchRows?$AA@ 00000001800553b0     dpiStmt.obj
 0002:0000d3c8       ??_C@_0P@KHOHJDPM@numRowsFetched?$AA@ 00000001800553c8     dpiStmt.obj
 0002:0000d3d8       ??_C@_0BP@KABOJNGG@check?5parameter?5numRowsFetched?$AA@ 00000001800553d8     dpiStmt.obj
 0002:0000d3f8       ??_C@_08OKOFEPEA@moreRows?$AA@ 00000001800553f8     dpiStmt.obj
 0002:0000d408       ??_C@_0BJ@NDENFBBM@check?5parameter?5moreRows?$AA@ 0000000180055408     dpiStmt.obj
 0002:0000d428       ??_C@_0BL@OKGJHMAP@dpiStmt_getBatchErrorCount?$AA@ 0000000180055428     dpiStmt.obj
 0002:0000d444       ??_C@_05IOMEMJEC@count?$AA@ 0000000180055444     dpiStmt.obj
 0002:0000d450       ??_C@_0BG@PBJBFBIM@check?5parameter?5count?$AA@ 0000000180055450     dpiStmt.obj
 0002:0000d468       ??_C@_0BH@IKPABHCA@dpiStmt_getBatchErrors?$AA@ 0000000180055468     dpiStmt.obj
 0002:0000d480       ??_C@_06EOMHCNPI@errors?$AA@ 0000000180055480     dpiStmt.obj
 0002:0000d488       ??_C@_0BH@DCGEJHNH@check?5parameter?5errors?$AA@ 0000000180055488     dpiStmt.obj
 0002:0000d4a0       ??_C@_0BB@EGPPAFKB@check?5num?5errors?$AA@ 00000001800554a0     dpiStmt.obj
 0002:0000d4b8       ??_C@_0BF@ILEOFDLJ@dpiStmt_getBindCount?$AA@ 00000001800554b8     dpiStmt.obj
 0002:0000d4d0       ??_C@_0P@HBBPMAPJ@get?5bind?5count?$AA@ 00000001800554d0     dpiStmt.obj
 0002:0000d4e0       ??_C@_0BF@FOFJPIFA@dpiStmt_getBindNames?$AA@ 00000001800554e0     dpiStmt.obj
 0002:0000d4f8       ??_C@_0N@OBGCEBJE@numBindNames?$AA@ 00000001800554f8     dpiStmt.obj
 0002:0000d508       ??_C@_0BN@EPNKMBBN@check?5parameter?5numBindNames?$AA@ 0000000180055508     dpiStmt.obj
 0002:0000d528       ??_C@_0BK@PDJJCCEE@check?5parameter?5bindNames?$AA@ 0000000180055528     dpiStmt.obj
 0002:0000d548       ??_C@_0BA@HCNLLEGP@bindNameLengths?$AA@ 0000000180055548     dpiStmt.obj
 0002:0000d558       ??_C@_0CA@GCAGDHDL@check?5parameter?5bindNameLengths?$AA@ 0000000180055558     dpiStmt.obj
 0002:0000d578       ??_C@_0BF@DCHONMPF@check?5num?5bind?5names?$AA@ 0000000180055578     dpiStmt.obj
 0002:0000d590       ??_C@_0BK@CJJILFFD@unsupported?5Oracle?5client?$AA@ 0000000180055590     dpiStmt.obj
 0002:0000d5b0       ??_C@_0BA@DDNALBOE@dpiStmt_getInfo?$AA@ 00000001800555b0     dpiStmt.obj
 0002:0000d5c0       ??_C@_0BL@BEHMGINL@dpiStmt_getNumQueryColumns?$AA@ 00000001800555c0     dpiStmt.obj
 0002:0000d5e0       ??_C@_0BA@PIEOOMMP@numQueryColumns?$AA@ 00000001800555e0     dpiStmt.obj
 0002:0000d5f0       ??_C@_0CA@OIJDGPJL@check?5parameter?5numQueryColumns?$AA@ 00000001800555f0     dpiStmt.obj
 0002:0000d610       ??_C@_0BF@JPBKNJEG@dpiStmt_getQueryInfo?$AA@ 0000000180055610     dpiStmt.obj
 0002:0000d628       ??_C@_0BE@LOAIICKO@dpiStmt_getRowCount?$AA@ 0000000180055628     dpiStmt.obj
 0002:0000d640       ??_C@_0O@KNOPNCBL@get?5row?5count?$AA@ 0000000180055640     dpiStmt.obj
 0002:0000d650       ??_C@_0BF@DFMCKMFI@dpiStmt_getRowCounts?$AA@ 0000000180055650     dpiStmt.obj
 0002:0000d668       ??_C@_0N@IKPJBFJM@numRowCounts?$AA@ 0000000180055668     dpiStmt.obj
 0002:0000d678       ??_C@_0BN@CEEBJFBF@check?5parameter?5numRowCounts?$AA@ 0000000180055678     dpiStmt.obj
 0002:0000d698       ??_C@_09PKOGMDIN@rowCounts?$AA@ 0000000180055698     dpiStmt.obj
 0002:0000d6a8       ??_C@_0BK@JIACHGEM@check?5parameter?5rowCounts?$AA@ 00000001800556a8     dpiStmt.obj
 0002:0000d6c8       ??_C@_0P@IONKAMAL@get?5row?5counts?$AA@ 00000001800556c8     dpiStmt.obj
 0002:0000d6d8       ??_C@_0BA@FEFOFFBP@dpiStmt_release?$AA@ 00000001800556d8     dpiStmt.obj
 0002:0000d6e8       ??_C@_0BK@MDLIJPIL@dpiStmt_setFetchArraySize?$AA@ 00000001800556e8     dpiStmt.obj
 0002:0000d708       ??_C@_0BP@JCBFIGND@allocated?5?$CFu?5bytes?5at?5?$CFp?5?$CI?$CFs?$CJ?6?$AA@ 0000000180055708     dpiUtils.obj
 0002:0000d728       ??_C@_0BB@HGFJAPGC@freed?5ptr?5at?5?$CFp?6?$AA@ 0000000180055728     dpiUtils.obj
 0002:0000d740       ??_C@_0M@IJMEIMDE@zero?5length?$AA@ 0000000180055740     dpiUtils.obj
 0002:0000d750       ??_C@_0N@DLPPHCPA@check?5length?$AA@ 0000000180055750     dpiUtils.obj
 0002:0000d760       ??_C@_0BE@BCLGALFJ@convert?5from?5UTF?916?$AA@ 0000000180055760     dpiUtils.obj
 0002:0000d778       ??_C@_0CC@BJPJPDG@check?5digits?5before?5decimal?5poin@ 0000000180055778     dpiUtils.obj
 0002:0000d7a0       ??_C@_0CB@POAJNNKM@check?5digits?5after?5decimal?5point@ 00000001800557a0     dpiUtils.obj
 0002:0000d7c8       ??_C@_0BJ@MGBHIJGI@check?5digits?5in?5exponent?$AA@ 00000001800557c8     dpiUtils.obj
 0002:0000d7e8       ??_C@_0BK@CMPHJPEC@check?5exponent?5digits?5?$DO?53?$AA@ 00000001800557e8     dpiUtils.obj
 0002:0000d808       ??_C@_0BG@MPCLOGJE@no?5digits?5in?5exponent?$AA@ 0000000180055808     dpiUtils.obj
 0002:0000d820       ??_C@_0BC@PECGKPHE@check?5string?5used?$AA@ 0000000180055820     dpiUtils.obj
 0002:0000d838       ??_C@_0BM@LOHLNDEL@check?5number?5of?5digits?5?$DO?540?$AA@ 0000000180055838     dpiUtils.obj
 0002:0000d858       ??_C@_0BE@HNPKGGIE@check?5size?5of?5value?$AA@ 0000000180055858     dpiUtils.obj
 0002:0000d870       ??_C@_0BG@HDKBCPLF@check?5mantissa?5length?$AA@ 0000000180055870     dpiUtils.obj
 0002:0000d888       ??_C@_0P@BDIGDBGO@ODPI?9C?5?3?52?43?40?$AA@ 0000000180055888     dpiUtils.obj
 0002:0000d898       ??_C@_0BA@OOPCOCBC@set?5driver?5name?$AA@ 0000000180055898     dpiUtils.obj
 0002:0000d8a8       ??_C@_0M@LBKOFLKG@set?5edition?$AA@ 00000001800558a8     dpiUtils.obj
 0002:0000d8b8       ??_C@_0BF@KMDCHGHK@check?5max?5array?5size?$AA@ 00000001800558b8     dpiVar.obj
 0002:0000d8d0       ??_C@_0BG@OLPEKDEN@check?5can?5be?5in?5array?$AA@ 00000001800558d0     dpiVar.obj
 0002:0000d8e8       ??_C@_0O@KMPKOPPK@check?5boolean?$AA@ 00000001800558e8     dpiVar.obj
 0002:0000d8f8       ??_C@_0BC@PFCCDJAF@check?5object?5type?$AA@ 00000001800558f8     dpiVar.obj
 0002:0000d910       ??_C@_0BA@CGBJBLLP@allocate?5chunks?$AA@ 0000000180055910     dpiVar.obj
 0002:0000d920       ??_C@_0P@JCHDDLG@allocate?5chunk?$AA@ 0000000180055920     dpiVar.obj
 0002:0000d930       ??_C@_0BD@LFGCADPH@allocate?5statement?$AA@ 0000000180055930     dpiVar.obj
 0002:0000d948       ??_C@_0BC@BECLIJPG@check?5return?5code?$AA@ 0000000180055948     dpiVar.obj
 0002:0000d960       ??_C@_0BH@PCPLOBN@allocate?5dynamic?5bytes?$AA@ 0000000180055960     dpiVar.obj
 0002:0000d978       ??_C@_0BA@MOFHNILI@allocate?5buffer?$AA@ 0000000180055978     dpiVar.obj
 0002:0000d988       ??_C@_0BD@FOHNNKAE@allocate?5indicator?$AA@ 0000000180055988     dpiVar.obj
 0002:0000d9a0       ??_C@_0BH@LAHNFMBM@allocate?5actual?5length?$AA@ 00000001800559a0     dpiVar.obj
 0002:0000d9b8       ??_C@_0BF@NAAKMLGI@allocate?5return?5code?$AA@ 00000001800559b8     dpiVar.obj
 0002:0000d9d0       ??_C@_0BF@JDFCKIDF@allocate?5temp?5buffer?$AA@ 00000001800559d0     dpiVar.obj
 0002:0000d9e8       ??_C@_0BH@LCDNLJEA@allocate?5external?5data?$AA@ 00000001800559e8     dpiVar.obj
 0002:0000da00       ??_C@_0BE@CMJIEGEF@allocate?5references?$AA@ 0000000180055a00     dpiVar.obj
 0002:0000da18       ??_C@_0BK@GLLOHLJJ@allocate?5object?5indicator?$AA@ 0000000180055a18     dpiVar.obj
 0002:0000da38       ??_C@_0BP@NPCCEKO@allocate?5DML?5returning?5buffers?$AA@ 0000000180055a38     dpiVar.obj
 0002:0000da58       ??_C@_0BC@NCOFBGOP@get?5rows?5returned?$AA@ 0000000180055a58     dpiVar.obj
 0002:0000da70       ??_C@_0BF@JCLCBIAO@allocate?511g?5lengths?$AA@ 0000000180055a70     dpiVar.obj
 0002:0000da88       ??_C@_0BM@EJJODPFB@allocate?5consolidated?5chunk?$AA@ 0000000180055a88     dpiVar.obj
 0002:0000daa8       ??_C@_0BB@FBFLNHLI@check?5max?5length?$AA@ 0000000180055aa8     dpiVar.obj
 0002:0000dac0       ??_C@_0BE@MAMDGBKF@check?5source?5length?$AA@ 0000000180055ac0     dpiVar.obj
 0002:0000dad8       ??_C@_09CIPCCDID@check?5LOB?$AA@ 0000000180055ad8     dpiVar.obj
 0002:0000dae8       ??_C@_0P@FNHLGIEA@validate?5types?$AA@ 0000000180055ae8     dpiVar.obj
 0002:0000daf8       ??_C@_0M@ENEBOJDJ@numElements?$AA@ 0000000180055af8     dpiVar.obj
 0002:0000db08       ??_C@_0BM@CEKLCKNB@check?5parameter?5numElements?$AA@ 0000000180055b08     dpiVar.obj
 0002:0000db28       ??_C@_0BN@JFODGMMA@dpiVar_getNumElementsInArray?$AA@ 0000000180055b28     dpiVar.obj
 0002:0000db48       ??_C@_0BH@IEAHANAL@dpiVar_getReturnedData?$AA@ 0000000180055b48     dpiVar.obj
 0002:0000db60       ??_C@_0P@EKJEMJED@dpiVar_release?$AA@ 0000000180055b60     dpiVar.obj
 0002:0000db70       ??_C@_0BE@BMOEFJDF@dpiVar_setFromBytes?$AA@ 0000000180055b70     dpiVar.obj
 0002:0000db88       ??_C@_0M@DJHCHNKL@native?5type?$AA@ 0000000180055b88     dpiVar.obj
 0002:0000db98       ??_C@_0N@ENBDBEAO@check?5buffer?$AA@ 0000000180055b98     dpiVar.obj
 0002:0000dba8       ??_C@_0BC@OJDJDPFK@dpiVar_setFromLob?$AA@ 0000000180055ba8     dpiVar.obj
 0002:0000dbc0       ??_C@_0BN@GALFLFIB@dpiVar_setNumElementsInArray?$AA@ 0000000180055bc0     dpiVar.obj
 0002:0000dbe0       ??_C@_0BD@GGKPDBOD@check?5num?5elements?$AA@ 0000000180055be0     dpiVar.obj
 0002:0000dbf8       ??_C@_08HCOMDCCD@iojs?4exe?$AA@ 0000000180055bf8     win_delay_load_hook.obj
 0002:0000dc08       ??_C@_08JDDNMFDB@node?4exe?$AA@ 0000000180055c08     win_delay_load_hook.obj
 0002:0000e190       __real@408f400000000000    0000000180056190     dpiData.obj
 0002:0000e198       __real@40ed4c0000000000    0000000180056198     dpiData.obj
 0002:0000e1a0       __real@412e848000000000    00000001800561a0     dpiData.obj
 0002:0000e1a8       __real@414b774000000000    00000001800561a8     dpiData.obj
 0002:0000e1b0       __real@4194997000000000    00000001800561b0     dpiData.obj
 0002:0000e1b8       __real@43f0000000000000    00000001800561b8     njsIntLob.obj
 0002:0000e1c0       __xmm@00000001000000010000000100000001 00000001800561c0     njsCommon.obj
 0002:0000e1d0       __xmm@00000bb900000bb900000bb900000bb9 00000001800561d0     njsCommon.obj
 0002:0000efc0       ??_R4exception@std@@6B@    0000000180056fc0     libcpmt:xthrow.obj
 0002:0000efe8       ??_R3exception@std@@8      0000000180056fe8     libcpmt:xthrow.obj
 0002:0000f000       ??_R2exception@std@@8      0000000180057000     libcpmt:xthrow.obj
 0002:0000f010       ??_R1A@?0A@EA@exception@std@@8 0000000180057010     libcpmt:xthrow.obj
 0002:0000f038       ??_R4bad_alloc@std@@6B@    0000000180057038     libcpmt:xthrow.obj
 0002:0000f060       ??_R3bad_alloc@std@@8      0000000180057060     libcpmt:xthrow.obj
 0002:0000f078       ??_R2bad_alloc@std@@8      0000000180057078     libcpmt:xthrow.obj
 0002:0000f090       ??_R1A@?0A@EA@bad_alloc@std@@8 0000000180057090     libcpmt:xthrow.obj
 0002:0000f0b8       ??_R4logic_error@std@@6B@  00000001800570b8     libcpmt:xthrow.obj
 0002:0000f0e0       ??_R3logic_error@std@@8    00000001800570e0     libcpmt:xthrow.obj
 0002:0000f0f8       ??_R2logic_error@std@@8    00000001800570f8     libcpmt:xthrow.obj
 0002:0000f110       ??_R1A@?0A@EA@logic_error@std@@8 0000000180057110     libcpmt:xthrow.obj
 0002:0000f138       ??_R4length_error@std@@6B@ 0000000180057138     libcpmt:xthrow.obj
 0002:0000f160       ??_R3length_error@std@@8   0000000180057160     libcpmt:xthrow.obj
 0002:0000f178       ??_R2length_error@std@@8   0000000180057178     libcpmt:xthrow.obj
 0002:0000f198       ??_R1A@?0A@EA@length_error@std@@8 0000000180057198     libcpmt:xthrow.obj
 0002:0000f1c0       ??_R4out_of_range@std@@6B@ 00000001800571c0     libcpmt:xthrow.obj
 0002:0000f1e8       ??_R3out_of_range@std@@8   00000001800571e8     libcpmt:xthrow.obj
 0002:0000f200       ??_R2out_of_range@std@@8   0000000180057200     libcpmt:xthrow.obj
 0002:0000f220       ??_R1A@?0A@EA@out_of_range@std@@8 0000000180057220     libcpmt:xthrow.obj
 0002:0000f248       ??_R4type_info@@6B@        0000000180057248     LIBCMT:std_type_info_static.obj
 0002:0000f270       ??_R3type_info@@8          0000000180057270     LIBCMT:std_type_info_static.obj
 0002:0000f288       ??_R2type_info@@8          0000000180057288     LIBCMT:std_type_info_static.obj
 0002:0000f298       ??_R1A@?0A@EA@type_info@@8 0000000180057298     LIBCMT:std_type_info_static.obj
 0002:0000f2c0       ??_R4bad_array_new_length@std@@6B@ 00000001800572c0     LIBCMT:throw_bad_alloc.obj
 0002:0000f2e8       ??_R3bad_array_new_length@std@@8 00000001800572e8     LIBCMT:throw_bad_alloc.obj
 0002:0000f300       ??_R2bad_array_new_length@std@@8 0000000180057300     LIBCMT:throw_bad_alloc.obj
 0002:0000f320       ??_R1A@?0A@EA@bad_array_new_length@std@@8 0000000180057320     LIBCMT:throw_bad_alloc.obj
 0002:0000f348       ??_R4bad_exception@std@@6B@ 0000000180057348     libvcruntime:frame.obj
 0002:0000f370       ??_R3bad_exception@std@@8  0000000180057370     libvcruntime:frame.obj
 0002:0000f388       ??_R2bad_exception@std@@8  0000000180057388     libvcruntime:frame.obj
 0002:0000f3a0       ??_R1A@?0A@EA@bad_exception@std@@8 00000001800573a0     libvcruntime:frame.obj
 0002:0000f7e0       __rtc_iaa                  00000001800577e0     LIBCMT:_initsect_.obj
 0002:0000f7e8       __rtc_izz                  00000001800577e8     LIBCMT:_initsect_.obj
 0002:0000f7f0       __rtc_taa                  00000001800577f0     LIBCMT:_initsect_.obj
 0002:0000f7f8       __rtc_tzz                  00000001800577f8     LIBCMT:_initsect_.obj
 0002:00014690       _TI2?AVbad_alloc@std@@     000000018005c690     libcpmt:xthrow.obj
 0002:000146b0       _CTA2?AVbad_alloc@std@@    000000018005c6b0     libcpmt:xthrow.obj
 0002:000146c8       _CT??_R0?AVbad_alloc@std@@@8??0bad_alloc@std@@QEAA@AEBV01@@Z24 000000018005c6c8     libcpmt:xthrow.obj
 0002:000146f0       _CT??_R0?AVexception@std@@@8??0exception@std@@QEAA@AEBV01@@Z24 000000018005c6f0     libcpmt:xthrow.obj
 0002:00014718       _CT??_R0?AVlogic_error@std@@@8??0logic_error@std@@QEAA@AEBV01@@Z24 000000018005c718     libcpmt:xthrow.obj
 0002:00014740       _TI3?AVlength_error@std@@  000000018005c740     libcpmt:xthrow.obj
 0002:00014760       _CTA3?AVlength_error@std@@ 000000018005c760     libcpmt:xthrow.obj
 0002:00014780       _CT??_R0?AVlength_error@std@@@8??0length_error@std@@QEAA@AEBV01@@Z24 000000018005c780     libcpmt:xthrow.obj
 0002:000147a8       _TI3?AVout_of_range@std@@  000000018005c7a8     libcpmt:xthrow.obj
 0002:000147c8       _CTA3?AVout_of_range@std@@ 000000018005c7c8     libcpmt:xthrow.obj
 0002:000147e8       _CT??_R0?AVout_of_range@std@@@8??0out_of_range@std@@QEAA@AEBV01@@Z24 000000018005c7e8     libcpmt:xthrow.obj
 0002:00014810       _TI3?AVbad_array_new_length@std@@ 000000018005c810     LIBCMT:throw_bad_alloc.obj
 0002:00014830       _CTA3?AVbad_array_new_length@std@@ 000000018005c830     LIBCMT:throw_bad_alloc.obj
 0002:00014850       _CT??_R0?AVbad_array_new_length@std@@@8??0bad_array_new_length@std@@QEAA@AEBV01@@Z24 000000018005c850     LIBCMT:throw_bad_alloc.obj
 0002:00014878       _TI2?AVbad_exception@std@@ 000000018005c878     libvcruntime:frame.obj
 0002:00014898       _CTA2?AVbad_exception@std@@ 000000018005c898     libvcruntime:frame.obj
 0002:000148b0       _CT??_R0?AVbad_exception@std@@@8??0bad_exception@std@@QEAA@AEBV01@@Z24 000000018005c8b0     libvcruntime:frame.obj
 0002:000148d4       __DELAY_IMPORT_DESCRIPTOR_node_exe 000000018005c8d4     node:node.exe
 0002:000148f4       __NULL_DELAY_IMPORT_DESCRIPTOR 000000018005c8f4     node:node.exe
 0002:00014be0       \177node_NULL_THUNK_DATA_DLN 000000018005cbe0     node:node.exe
 0002:000162d0       \177node_NULL_THUNK_DATA_DLB 000000018005e2d0     node:node.exe
 0002:000165f4       __IMPORT_DESCRIPTOR_KERNEL32 000000018005e5f4     kernel32:KERNEL32.dll
 0002:00016608       __NULL_IMPORT_DESCRIPTOR   000000018005e608     kernel32:KERNEL32.dll
 0003:00000000       __scrt_native_dllmain_reason 000000018005f000     LIBCMT:utility.obj
 0003:00000008       __security_cookie          000000018005f008     LIBCMT:gs_cookie.obj
 0003:00000010       __security_cookie_complement 000000018005f010     LIBCMT:gs_cookie.obj
 0003:00000018       __isa_available            000000018005f018     LIBCMT:_cpu_disp_.obj
 0003:0000001c       __isa_enabled              000000018005f01c     LIBCMT:_cpu_disp_.obj
 0003:00000020       __memcpy_nt_iters          000000018005f020     LIBCMT:_cpu_disp_.obj
 0003:00000040       _iob                       000000018005f040     libucrt:_file.obj
 0003:00000150       __abort_behavior           000000018005f150     libucrt:abort.obj
 0003:00000160       __acrt_initial_locale_data 000000018005f160     libucrt:nlsdata.obj
 0003:000002b8       __acrt_initial_locale_pointers 000000018005f2b8     libucrt:nlsdata.obj
 0003:000002c8       __acrt_wide_c_locale_string 000000018005f2c8     libucrt:nlsdata.obj
 0003:000002d0       __badioinfo                000000018005f2d0     libucrt:ioinit.obj
 0003:00000310       _pwctype                   000000018005f310     libucrt:ctype.obj
 0003:00000320       _lookuptrailbytes          000000018005f320     libucrt:read.obj
 0003:00000420       __acrt_initial_multibyte_data 000000018005f420     libucrt:mbctype.obj
 0003:00000648       __acrt_current_multibyte_data 000000018005f648     libucrt:mbctype.obj
 0003:00000750       _mbctype                   000000018005f750     libucrt:mbctype.obj
 0003:00000860       _mbcasemap                 000000018005f860     libucrt:mbctype.obj
 0003:00000960       __globallocalestatus       000000018005f960     libucrt:glstatus.obj
 0003:00000970       __acrt_lconv_c             000000018005f970     libucrt:localeconv.obj
 0003:00000a08       __acrt_lconv_static_decimal 000000018005fa08     libucrt:localeconv.obj
 0003:00000a0c       __acrt_lconv_static_W_decimal 000000018005fa0c     libucrt:localeconv.obj
 0003:00000a20       __dcrt_lowio_console_output_handle 000000018005fa20     libucrt:initcon.obj
 0003:00000a34       _fltused                   000000018005fa34     LIBCMT:fltused.obj
 0003:00000ac0       ??_R0?AVbad_alloc@std@@@8  000000018005fac0     libcpmt:xthrow.obj
 0003:00000ae8       ??_R0?AVexception@std@@@8  000000018005fae8     libcpmt:xthrow.obj
 0003:00000b10       ??_R0?AVlogic_error@std@@@8 000000018005fb10     libcpmt:xthrow.obj
 0003:00000b38       ??_R0?AVlength_error@std@@@8 000000018005fb38     libcpmt:xthrow.obj
 0003:00000b60       ??_R0?AVout_of_range@std@@@8 000000018005fb60     libcpmt:xthrow.obj
 0003:00000b88       ??_R0?AVtype_info@@@8      000000018005fb88     LIBCMT:std_type_info_static.obj
 0003:00000ba8       ??_R0?AVbad_array_new_length@std@@@8 000000018005fba8     LIBCMT:throw_bad_alloc.obj
 0003:00000bd8       ??_R0?AVbad_exception@std@@@8 000000018005fbd8     libvcruntime:frame.obj
 0003:00000c00       __imp_uv_queue_work        000000018005fc00     node:node.exe
 0003:00000c08       __imp_?Global@Context@v8@@QEAA?AV?$Local@VObject@v8@@@2@XZ 000000018005fc08     node:node.exe
 0003:00000c10       __imp_?ThrowException@Isolate@v8@@QEAA?AV?$Local@VValue@v8@@@2@V32@@Z 000000018005fc10     node:node.exe
 0003:00000c18       __imp_?GetCurrentContext@Isolate@v8@@QEAA?AV?$Local@VContext@v8@@@2@XZ 000000018005fc18     node:node.exe
 0003:00000c20       __imp_?GetCurrent@Isolate@v8@@SAPEAV12@XZ 000000018005fc20     node:node.exe
 0003:00000c28       __imp_?CreateHandle@HandleScope@v8@@KAPEAPEAVObject@internal@2@PEAVIsolate@42@PEAV342@@Z 000000018005fc28     node:node.exe
 0003:00000c30       __imp_??1HandleScope@v8@@QEAA@XZ 000000018005fc30     node:node.exe
 0003:00000c38       __imp_??0HandleScope@v8@@QEAA@PEAVIsolate@1@@Z 000000018005fc38     node:node.exe
 0003:00000c40       __imp_?Error@Exception@v8@@SA?AV?$Local@VValue@v8@@@2@V?$Local@VString@v8@@@2@@Z 000000018005fc40     node:node.exe
 0003:00000c48       __imp_?Value@Boolean@v8@@QEBA_NXZ 000000018005fc48     node:node.exe
 0003:00000c50       __imp_?ToLocalEmpty@V8@v8@@CAXXZ 000000018005fc50     node:node.exe
 0003:00000c58       __imp_?FromJustIsNothing@V8@v8@@CAXXZ 000000018005fc58     node:node.exe
 0003:00000c60       __imp_?DisposeGlobal@V8@v8@@CAXPEAPEAVObject@internal@2@@Z 000000018005fc60     node:node.exe
 0003:00000c68       __imp_?GlobalizeReference@V8@v8@@CAPEAPEAVObject@internal@2@PEAVIsolate@42@PEAPEAV342@@Z 000000018005fc68     node:node.exe
 0003:00000c70       __imp_?Int32Value@Value@v8@@QEBA?AV?$Maybe@H@2@V?$Local@VContext@v8@@@2@@Z 000000018005fc70     node:node.exe
 0003:00000c78       __imp_?Uint32Value@Value@v8@@QEBA?AV?$Maybe@I@2@V?$Local@VContext@v8@@@2@@Z 000000018005fc78     node:node.exe
 0003:00000c80       __imp_?IsUint32@Value@v8@@QEBA_NXZ 000000018005fc80     node:node.exe
 0003:00000c88       __imp_?IsInt32@Value@v8@@QEBA_NXZ 000000018005fc88     node:node.exe
 0003:00000c90       __imp_?IsNumber@Value@v8@@QEBA_NXZ 000000018005fc90     node:node.exe
 0003:00000c98       __imp_?IsBoolean@Value@v8@@QEBA_NXZ 000000018005fc98     node:node.exe
 0003:00000ca0       __imp_?IsObject@Value@v8@@QEBA_NXZ 000000018005fca0     node:node.exe
 0003:00000ca8       __imp_?IsFunction@Value@v8@@QEBA_NXZ 000000018005fca8     node:node.exe
 0003:00000cb0       __imp_?Get@Message@v8@@QEBA?AV?$Local@VString@v8@@@2@XZ 000000018005fcb0     node:node.exe
 0003:00000cb8       __imp_?Reset@TryCatch@v8@@QEAAXXZ 000000018005fcb8     node:node.exe
 0003:00000cc0       __imp_?Message@TryCatch@v8@@QEBA?AV?$Local@VMessage@v8@@@2@XZ 000000018005fcc0     node:node.exe
 0003:00000cc8       __imp_?HasCaught@TryCatch@v8@@QEBA_NXZ 000000018005fcc8     node:node.exe
 0003:00000cd0       __imp_??1TryCatch@v8@@QEAA@XZ 000000018005fcd0     node:node.exe
 0003:00000cd8       __imp_??0TryCatch@v8@@QEAA@PEAVIsolate@1@@Z 000000018005fcd8     node:node.exe
 0003:00000ce0       __imp_?Escape@EscapableHandleScope@v8@@AEAAPEAPEAVObject@internal@2@PEAPEAV342@@Z 000000018005fce0     node:node.exe
 0003:00000ce8       __imp_??0EscapableHandleScope@v8@@QEAA@PEAVIsolate@1@@Z 000000018005fce8     node:node.exe
 0003:00000cf0       __imp_??1Utf8Value@String@v8@@QEAA@XZ 000000018005fcf0     node:node.exe
 0003:00000cf8       __imp_??0Utf8Value@String@v8@@QEAA@V?$Local@VValue@v8@@@2@@Z 000000018005fcf8     node:node.exe
 0003:00000d00       __imp_?NewFromUtf8@String@v8@@SA?AV?$MaybeLocal@VString@v8@@@2@PEAVIsolate@2@PEBDW4NewStringType@2@H@Z 000000018005fd00     node:node.exe
 0003:00000d08       __imp_?New@Number@v8@@SA?AV?$Local@VNumber@v8@@@2@PEAVIsolate@2@N@Z 000000018005fd08     node:node.exe
 0003:00000d10       __imp_?SlowGetAlignedPointerFromInternalField@Object@v8@@AEAAPEAXH@Z 000000018005fd10     node:node.exe
 0003:00000d18       __imp_?InternalFieldCount@Object@v8@@QEAAHXZ 000000018005fd18     node:node.exe
 0003:00000d20       __imp_?Get@Object@v8@@QEAA?AV?$MaybeLocal@VValue@v8@@@2@V?$Local@VContext@v8@@@2@V?$Local@VValue@v8@@@2@@Z 000000018005fd20     node:node.exe
 0003:00000d28       __imp_?Set@Object@v8@@QEAA?AV?$Maybe@_N@2@V?$Local@VContext@v8@@@2@V?$Local@VValue@v8@@@2@1@Z 000000018005fd28     node:node.exe
 0003:00000d30       __imp_?FatalException@node@@YAXPEAVIsolate@v8@@AEBVTryCatch@3@@Z 000000018005fd30     node:node.exe
 0003:00000d38       __imp_?MakeCallback@node@@YA?AV?$Local@VValue@v8@@@v8@@PEAVIsolate@3@V?$Local@VObject@v8@@@3@V?$Local@VFunction@v8@@@3@HPEAV23@@Z 000000018005fd38     node:node.exe
 0003:00000d40       __imp_uv_default_loop      000000018005fd40     node:node.exe
 0003:00000d48       __imp_?ToObject@Value@v8@@QEBA?AV?$Local@VObject@v8@@@2@XZ 000000018005fd48     node:node.exe
 0003:00000d50       __imp_?ToString@Value@v8@@QEBA?AV?$Local@VString@v8@@@2@XZ 000000018005fd50     node:node.exe
 0003:00000d58       __imp_?ToBoolean@Value@v8@@QEBA?AV?$Local@VBoolean@v8@@@2@XZ 000000018005fd58     node:node.exe
 0003:00000d60       __imp_??1EscapableHandleScope@v8@@QEAA@XZ 000000018005fd60     node:node.exe
 0003:00000d68       __imp_?Value@External@v8@@QEBAPEAXXZ 000000018005fd68     node:node.exe
 0003:00000d70       __imp_?New@External@v8@@SA?AV?$Local@VExternal@v8@@@2@PEAVIsolate@2@PEAX@Z 000000018005fd70     node:node.exe
 0003:00000d78       __imp_?NewFromUnsigned@Integer@v8@@SA?AV?$Local@VInteger@v8@@@2@PEAVIsolate@2@I@Z 000000018005fd78     node:node.exe
 0003:00000d80       __imp_?New@Integer@v8@@SA?AV?$Local@VInteger@v8@@@2@PEAVIsolate@2@H@Z 000000018005fd80     node:node.exe
 0003:00000d88       __imp_?New@Signature@v8@@SA?AV?$Local@VSignature@v8@@@2@PEAVIsolate@2@V?$Local@VFunctionTemplate@v8@@@2@@Z 000000018005fd88     node:node.exe
 0003:00000d90       __imp_?CreateHandle@HandleScope@v8@@CAPEAPEAVObject@internal@2@PEAVHeapObject@42@PEAV342@@Z 000000018005fd90     node:node.exe
 0003:00000d98       __imp_?Set@Template@v8@@QEAAXV?$Local@VName@v8@@@2@V?$Local@VData@v8@@@2@W4PropertyAttribute@2@@Z 000000018005fd98     node:node.exe
 0003:00000da0       __imp_?New@Array@v8@@SA?AV?$Local@VArray@v8@@@2@PEAVIsolate@2@H@Z 000000018005fda0     node:node.exe
 0003:00000da8       __imp_?Length@Array@v8@@QEBAIXZ 000000018005fda8     node:node.exe
 0003:00000db0       __imp_?SetClassName@FunctionTemplate@v8@@QEAAXV?$Local@VString@v8@@@2@@Z 000000018005fdb0     node:node.exe
 0003:00000db8       __imp_?PrototypeTemplate@FunctionTemplate@v8@@QEAA?AV?$Local@VObjectTemplate@v8@@@2@XZ 000000018005fdb8     node:node.exe
 0003:00000dc0       __imp_?InstanceTemplate@FunctionTemplate@v8@@QEAA?AV?$Local@VObjectTemplate@v8@@@2@XZ 000000018005fdc0     node:node.exe
 0003:00000dc8       __imp_?GetFunction@FunctionTemplate@v8@@QEAA?AV?$Local@VFunction@v8@@@2@XZ 000000018005fdc8     node:node.exe
 0003:00000dd0       __imp_?New@FunctionTemplate@v8@@SA?AV?$Local@VFunctionTemplate@v8@@@2@PEAVIsolate@2@P6AXAEBV?$FunctionCallbackInfo@VValue@v8@@@2@@ZV?$Local@VValue@v8@@@2@V?$Local@VSignature@v8@@@2@HW4ConstructorBehavior@2@W4SideEffectType@2@@Z 000000018005fdd0     node:node.exe
 0003:00000dd8       __imp_?ClearWeak@V8@v8@@CAPEAXPEAPEAVObject@internal@2@@Z 000000018005fdd8     node:node.exe
 0003:00000de0       __imp_?MakeWeak@V8@v8@@CAXPEAPEAVObject@internal@2@PEAXP6AXAEBV?$WeakCallbackInfo@X@2@@ZW4WeakCallbackType@2@@Z 000000018005fde0     node:node.exe
 0003:00000de8       __imp_?IsArray@Value@v8@@QEBA_NXZ 000000018005fde8     node:node.exe
 0003:00000df0       __imp_?SlowGetInternalField@Object@v8@@AEAA?AV?$Local@VValue@v8@@@2@H@Z 000000018005fdf0     node:node.exe
 0003:00000df8       __imp_?SetAlignedPointerInInternalField@Object@v8@@QEAAXHPEAX@Z 000000018005fdf8     node:node.exe
 0003:00000e00       __imp_?SetInternalField@Object@v8@@QEAAXHV?$Local@VValue@v8@@@2@@Z 000000018005fe00     node:node.exe
 0003:00000e08       __imp_?Get@Object@v8@@QEAA?AV?$MaybeLocal@VValue@v8@@@2@V?$Local@VContext@v8@@@2@I@Z 000000018005fe08     node:node.exe
 0003:00000e10       __imp_?SetInternalFieldCount@ObjectTemplate@v8@@QEAAXH@Z 000000018005fe10     node:node.exe
 0003:00000e18       __imp_?SetAccessor@ObjectTemplate@v8@@QEAAXV?$Local@VName@v8@@@2@P6AX0AEBV?$PropertyCallbackInfo@VValue@v8@@@2@@ZP6AX0V?$Local@VValue@v8@@@2@AEBV?$PropertyCallbackInfo@X@2@@Z3W4AccessControl@2@W4PropertyAttribute@2@V?$Local@VAccessorSignature@v8@@@2@@Z 000000018005fe18     node:node.exe
 0003:00000e20       __imp_?NewInstance@ObjectTemplate@v8@@QEAA?AV?$MaybeLocal@VObject@v8@@@2@V?$Local@VContext@v8@@@2@@Z 000000018005fe20     node:node.exe
 0003:00000e28       __imp_?New@ObjectTemplate@v8@@SA?AV?$Local@VObjectTemplate@v8@@@2@PEAVIsolate@2@V?$Local@VFunctionTemplate@v8@@@2@@Z 000000018005fe28     node:node.exe
 0003:00000e30       __imp_node_module_register 000000018005fe30     node:node.exe
 0003:00000e38       __imp_?GetFunction@FunctionTemplate@v8@@QEAA?AV?$MaybeLocal@VFunction@v8@@@2@V?$Local@VContext@v8@@@2@@Z 000000018005fe38     node:node.exe
 0003:00000e40       __imp_?NewInstance@Function@v8@@QEBA?AV?$MaybeLocal@VObject@v8@@@2@V?$Local@VContext@v8@@@2@@Z 000000018005fe40     node:node.exe
 0003:00000e48       __imp_?New@Date@v8@@SA?AV?$MaybeLocal@VValue@v8@@@2@V?$Local@VContext@v8@@@2@N@Z 000000018005fe48     node:node.exe
 0003:00000e50       __imp_?NumberValue@Value@v8@@QEBANXZ 000000018005fe50     node:node.exe
 0003:00000e58       __imp_?ToInt32@Value@v8@@QEBA?AV?$MaybeLocal@VInt32@v8@@@2@V?$Local@VContext@v8@@@2@@Z 000000018005fe58     node:node.exe
 0003:00000e60       __imp_?ToInteger@Value@v8@@QEBA?AV?$MaybeLocal@VInteger@v8@@@2@V?$Local@VContext@v8@@@2@@Z 000000018005fe60     node:node.exe
 0003:00000e68       __imp_?IsDate@Value@v8@@QEBA_NXZ 000000018005fe68     node:node.exe
 0003:00000e70       __imp_?New@Object@v8@@SA?AV?$Local@VObject@v8@@@2@PEAVIsolate@2@@Z 000000018005fe70     node:node.exe
 0003:00000e78       __imp_?GetOwnPropertyNames@Object@v8@@QEAA?AV?$Local@VArray@v8@@@2@XZ 000000018005fe78     node:node.exe
 0003:00000e80       __imp_?DefineOwnProperty@Object@v8@@QEAA?AV?$Maybe@_N@2@V?$Local@VContext@v8@@@2@V?$Local@VName@v8@@@2@V?$Local@VValue@v8@@@2@W4PropertyAttribute@2@@Z 000000018005fe80     node:node.exe
 0003:00000e88       __imp_?Set@Object@v8@@QEAA?AV?$Maybe@_N@2@V?$Local@VContext@v8@@@2@IV?$Local@VValue@v8@@@2@@Z 000000018005fe88     node:node.exe
 0003:00000e90       __imp_?Call@Function@v8@@QEAA?AV?$Local@VValue@v8@@@2@V32@HQEAV32@@Z 000000018005fe90     node:node.exe
 0003:00000e98       __imp_?HasInstance@Buffer@node@@YA_NV?$Local@VValue@v8@@@v8@@@Z 000000018005fe98     node:node.exe
 0003:00000ea0       __imp_?Data@Buffer@node@@YAPEADV?$Local@VObject@v8@@@v8@@@Z 000000018005fea0     node:node.exe
 0003:00000ea8       __imp_?Copy@Buffer@node@@YA?AV?$MaybeLocal@VObject@v8@@@v8@@PEAVIsolate@4@PEBD_K@Z 000000018005fea8     node:node.exe
 0003:00000eb0       __imp_?Length@Buffer@node@@YA_KV?$Local@VObject@v8@@@v8@@@Z 000000018005feb0     node:node.exe
 0003:00000eb8       __imp_?HasInstance@FunctionTemplate@v8@@QEAA_NV?$Local@VValue@v8@@@2@@Z 000000018005feb8     node:node.exe
 0003:00000ec0       __imp_?Length@String@v8@@QEBAHXZ 000000018005fec0     node:node.exe
 0003:00000ec8       \177node_NULL_THUNK_DATA_DLA 000000018005fec8     node:node.exe
 0003:00000ed0       __hmod__node_exe           000000018005fed0     node:node.exe
 0003:00000ed8       __scrt_current_native_startup_state 000000018005fed8     LIBCMT:utility.obj
 0003:00000ee0       __scrt_native_startup_lock 000000018005fee0     LIBCMT:utility.obj
 0003:00001494       __favor                    0000000180060494     LIBCMT:_cpu_disp_.obj
 0003:00001498       __scrt_debugger_hook_flag  0000000180060498     LIBCMT:utility_desktop.obj
 0003:000014a0       ?__type_info_root_node@@3U__type_info_node@@A 00000001800604a0     LIBCMT:tncleanup.obj
 0003:000014b0       ?_OptionsStorage@?1??__local_stdio_scanf_options@@9@4_KA 00000001800604b0     LIBCMT:default_local_stdio_options.obj
 0003:000014b8       ?g_OutOfMemoryExceptionCallback@@3P6APEAXXZEA 00000001800604b8     libvcruntime:frame.obj
 0003:00001538       __pPurecall                0000000180060538     libvcruntime:purevirt_data.obj
 0003:000015d8       ?pArgList@UnDecorator@@0PEAVReplicator@@EA 00000001800605d8     libvcruntime:undname.obj
 0003:000015e0       ?pZNameList@UnDecorator@@0PEAVReplicator@@EA 00000001800605e0     libvcruntime:undname.obj
 0003:000015e8       ?pTemplateArgList@UnDecorator@@0PEAVReplicator@@EA 00000001800605e8     libvcruntime:undname.obj
 0003:000015f0       ?gName@UnDecorator@@0PEBDEB 00000001800605f0     libvcruntime:undname.obj
 0003:000015f8       ?name@UnDecorator@@0PEBDEB 00000001800605f8     libvcruntime:undname.obj
 0003:00001600       ?outputString@UnDecorator@@0PEADEA 0000000180060600     libvcruntime:undname.obj
 0003:00001608       ?maxStringLength@UnDecorator@@0HA 0000000180060608     libvcruntime:undname.obj
 0003:0000160c       ?disableFlags@UnDecorator@@0KA 000000018006060c     libvcruntime:undname.obj
 0003:00001610       ?fExplicitTemplateParams@UnDecorator@@0_NA 0000000180060610     libvcruntime:undname.obj
 0003:00001611       ?fGetTemplateArgumentList@UnDecorator@@0_NA 0000000180060611     libvcruntime:undname.obj
 0003:00001618       ?m_pGetParameter@UnDecorator@@0P6APEADJ@ZEA 0000000180060618     libvcruntime:undname.obj
 0003:00001650       _nstream                   0000000180060650     libucrt:_file.obj
 0003:00001658       __piob                     0000000180060658     libucrt:_file.obj
 0003:00001660       _cflush                    0000000180060660     libucrt:_file.obj
 0003:00001798       _environ_table             0000000180060798     libucrt:environment_initialization.obj
 0003:000017a0       _wenviron_table            00000001800607a0     libucrt:environment_initialization.obj
 0003:000017a8       __dcrt_initial_wide_environment 00000001800607a8     libucrt:environment_initialization.obj
 0003:000017b0       __dcrt_initial_narrow_environment 00000001800607b0     libucrt:environment_initialization.obj
 0003:000017b8       __acrt_atexit_table        00000001800607b8     libucrt:onexit.obj
 0003:000017d0       __acrt_at_quick_exit_table 00000001800607d0     libucrt:onexit.obj
 0003:00001818       __acrt_stdout_buffer       0000000180060818     libucrt:_sftbuf.obj
 0003:00001820       __acrt_stderr_buffer       0000000180060820     libucrt:_sftbuf.obj
 0003:00001828       __acrt_locale_changed_data 0000000180060828     libucrt:wsetlocale.obj
 0003:00001830       __acrt_current_locale_data 0000000180060830     libucrt:nlsdata.obj
 0003:00001840       __pioinfo                  0000000180060840     libucrt:ioinit.obj
 0003:00001c40       _nhandle                   0000000180060c40     libucrt:ioinit.obj
 0003:0000200c       __mbcodepage               000000018006100c     libucrt:mbctype.obj
 0003:00002010       __ismbcodepage             0000000180061010     libucrt:mbctype.obj
 0003:00002018       __mbulinfo                 0000000180061018     libucrt:mbctype.obj
 0003:00002028       __mblocalename             0000000180061028     libucrt:mbctype.obj
 0003:00002034       __argc                     0000000180061034     libucrt:argv_data.obj
 0003:00002038       __argv                     0000000180061038     libucrt:argv_data.obj
 0003:00002040       __wargv                    0000000180061040     libucrt:argv_data.obj
 0003:00002048       _acmdln                    0000000180061048     libucrt:argv_data.obj
 0003:00002050       _wcmdln                    0000000180061050     libucrt:argv_data.obj
 0003:00002058       _pgmptr                    0000000180061058     libucrt:argv_data.obj
 0003:00002060       __acrt_heap                0000000180061060     libucrt:heap_handle.obj
 0003:00002074       __acrt_lconv_static_null   0000000180061074     libucrt:localeconv.obj
 0003:00002078       __acrt_lconv_static_W_null 0000000180061078     libucrt:localeconv.obj
 0003:0000207c       _commode                   000000018006107c     libucrt:ncommode.obj
 0003:00002080       _umaskval                  0000000180061080     libucrt:umask.obj
 0003:00002084       __fma3_is_available        0000000180061084     libucrt:fma3_available.obj
 0003:00002088       __use_fma3_lib             0000000180061088     libucrt:fma3_available.obj
 0003:0000208c       _fmode                     000000018006108c     libucrt:txtmode.obj
 0003:00002090       ?DloadKernel32@@3PEAUHINSTANCE__@@EA 0000000180061090     DelayImp:delayhlp.obj
 0003:00002098       ?DloadAcquireSRWLockExclusive@@3P6AXPEA_K@ZEA 0000000180061098     DelayImp:delayhlp.obj
 0003:000020a0       ?DloadReleaseSRWLockExclusive@@3P6AXPEA_K@ZEA 00000001800610a0     DelayImp:delayhlp.obj
 0003:000020a8       ?DloadSrwLock@@3_KA        00000001800610a8     DelayImp:delayhlp.obj
 0003:000020b0       ?DloadSectionLockCount@@3KA 00000001800610b0     DelayImp:delayhlp.obj
 0003:000020b4       ?DloadSectionOldProtection@@3KA 00000001800610b4     DelayImp:delayhlp.obj
 0003:000020b8       ?DloadSectionCommitPermanent@@3KA 00000001800610b8     DelayImp:delayhlp.obj
 0003:000020c0       ?globalDPIContext@njsOracledb@@0PEAUdpiContext@@EA 00000001800610c0     njsOracle.obj
 0003:000020c8       dpiDebugLevel              00000001800610c8     dpiDebug.obj
 0003:000020f8       ?oracledbTemplate_s@njsOracledb@@0V?$Persistent@VFunctionTemplate@v8@@V?$NonCopyablePersistentTraits@VFunctionTemplate@v8@@@2@@Nan@@A 00000001800610f8     njsOracle.obj
 0003:00002100       ?poolTemplate_s@njsPool@@0V?$Persistent@VFunctionTemplate@v8@@V?$NonCopyablePersistentTraits@VFunctionTemplate@v8@@@2@@Nan@@A 0000000180061100     njsPool.obj
 0003:00002108       ?connectionTemplate_s@njsConnection@@0V?$Persistent@VFunctionTemplate@v8@@V?$NonCopyablePersistentTraits@VFunctionTemplate@v8@@@2@@Nan@@A 0000000180061108     njsConnection.obj
 0003:00002110       ?resultSetTemplate_s@njsResultSet@@0V?$Persistent@VFunctionTemplate@v8@@V?$NonCopyablePersistentTraits@VFunctionTemplate@v8@@@2@@Nan@@A 0000000180061110     njsResultSet.obj
 0003:00002118       ?iLobTemplate_s@njsILob@@0V?$Persistent@VFunctionTemplate@v8@@V?$NonCopyablePersistentTraits@VFunctionTemplate@v8@@@2@@Nan@@A 0000000180061118     njsIntLob.obj
 0003:000031d8       ?_OptionsStorage@?1??__local_stdio_printf_options@@9@4_KA 00000001800621d8     njsOracle.obj
 0003:000031e0       __dyn_tls_init_callback    00000001800621e0     <common>
 0003:000031e8       __scrt_ucrt_dll_is_in_use  00000001800621e8     <common>

 entry point at        0001:0002bfe4

 Static symbols

 0000:fff96000       .debug$S                   0000000180000000     node:node.exe
 0000:fff96000       .debug$S                   0000000180000000     node:node.exe
 0000:fff96000       .debug$S                   0000000180000000     node:node.exe
 0000:fff96000       .debug$S                   0000000180000000     node:node.exe
 0000:fff96000       .debug$S                   0000000180000000     node:node.exe
 0000:fff96000       .debug$S                   0000000180000000     node:node.exe
 0000:fff96000       .debug$S                   0000000180000000     node:node.exe
 0000:fff96000       .debug$S                   0000000180000000     node:node.exe
 0000:fff96000       .debug$S                   0000000180000000     node:node.exe
 0000:fff96000       .debug$S                   0000000180000000     node:node.exe
 0000:fff96000       .debug$S                   0000000180000000     node:node.exe
 0000:fff96000       .debug$S                   0000000180000000     node:node.exe
 0000:fff96000       .debug$S                   0000000180000000     node:node.exe
 0000:fff96000       .debug$S                   0000000180000000     node:node.exe
 0000:fff96000       .debug$S                   0000000180000000     node:node.exe
 0000:fff96000       .debug$S                   0000000180000000     node:node.exe
 0000:fff96000       .debug$S                   0000000180000000     node:node.exe
 0000:fff96000       .debug$S                   0000000180000000     node:node.exe
 0000:fff96000       .debug$S                   0000000180000000     node:node.exe
 0000:fff96000       .debug$S                   0000000180000000     node:node.exe
 0000:fff96000       .debug$S                   0000000180000000     node:node.exe
 0000:fff96000       .debug$S                   0000000180000000     node:node.exe
 0000:fff96000       .debug$S                   0000000180000000     node:node.exe
 0000:fff96000       .debug$S                   0000000180000000     node:node.exe
 0000:fff96000       .debug$S                   0000000180000000     node:node.exe
 0000:fff96000       .debug$S                   0000000180000000     node:node.exe
 0000:fff96000       .debug$S                   0000000180000000     node:node.exe
 0000:fff96000       .debug$S                   0000000180000000     node:node.exe
 0000:fff96000       .debug$S                   0000000180000000     node:node.exe
 0000:fff96000       .debug$S                   0000000180000000     node:node.exe
 0000:fff96000       .debug$S                   0000000180000000     node:node.exe
 0000:fff96000       .debug$S                   0000000180000000     node:node.exe
 0000:fff96000       .debug$S                   0000000180000000     node:node.exe
 0000:fff96000       .debug$S                   0000000180000000     node:node.exe
 0000:fff96000       .debug$S                   0000000180000000     node:node.exe
 0000:fff96000       .debug$S                   0000000180000000     node:node.exe
 0000:fff96000       .debug$S                   0000000180000000     node:node.exe
 0000:fff96000       .debug$S                   0000000180000000     node:node.exe
 0000:fff96000       .debug$S                   0000000180000000     node:node.exe
 0000:fff96000       .debug$S                   0000000180000000     node:node.exe
 0000:fff96000       .debug$S                   0000000180000000     node:node.exe
 0000:fff96000       .debug$S                   0000000180000000     node:node.exe
 0000:fff96000       .debug$S                   0000000180000000     node:node.exe
 0000:fff96000       .debug$S                   0000000180000000     node:node.exe
 0000:fff96000       .debug$S                   0000000180000000     node:node.exe
 0000:fff96000       .debug$S                   0000000180000000     node:node.exe
 0000:fff96000       .debug$S                   0000000180000000     node:node.exe
 0000:fff96000       .debug$S                   0000000180000000     node:node.exe
 0000:fff96000       .debug$S                   0000000180000000     node:node.exe
 0000:fff96000       .debug$S                   0000000180000000     node:node.exe
 0000:fff96000       .debug$S                   0000000180000000     node:node.exe
 0000:fff96000       .debug$S                   0000000180000000     node:node.exe
 0000:fff96000       .debug$S                   0000000180000000     node:node.exe
 0000:fff96000       .debug$S                   0000000180000000     node:node.exe
 0000:fff96000       .debug$S                   0000000180000000     node:node.exe
 0000:fff96000       .debug$S                   0000000180000000     node:node.exe
 0000:fff96000       .debug$S                   0000000180000000     node:node.exe
 0000:fff96000       .debug$S                   0000000180000000     node:node.exe
 0000:fff96000       .debug$S                   0000000180000000     node:node.exe
 0000:fff96000       .debug$S                   0000000180000000     node:node.exe
 0000:fff96000       .debug$S                   0000000180000000     node:node.exe
 0000:fff96000       .debug$S                   0000000180000000     node:node.exe
 0000:fff96000       .debug$S                   0000000180000000     node:node.exe
 0000:fff96000       .debug$S                   0000000180000000     node:node.exe
 0000:fff96000       .debug$S                   0000000180000000     node:node.exe
 0000:fff96000       .debug$S                   0000000180000000     node:node.exe
 0000:fff96000       .debug$S                   0000000180000000     node:node.exe
 0000:fff96000       .debug$S                   0000000180000000     node:node.exe
 0000:fff96000       .debug$S                   0000000180000000     node:node.exe
 0000:fff96000       .debug$S                   0000000180000000     node:node.exe
 0000:fff96000       .debug$S                   0000000180000000     node:node.exe
 0000:fff96000       .debug$S                   0000000180000000     node:node.exe
 0000:fff96000       .debug$S                   0000000180000000     node:node.exe
 0000:fff96000       .debug$S                   0000000180000000     node:node.exe
 0000:fff96000       .debug$S                   0000000180000000     node:node.exe
 0000:fff96000       .debug$S                   0000000180000000     node:node.exe
 0000:fff96000       .debug$S                   0000000180000000     node:node.exe
 0000:fff96000       .debug$S                   0000000180000000     node:node.exe
 0000:fff96000       .debug$S                   0000000180000000     node:node.exe
 0000:fff96000       .debug$S                   0000000180000000     node:node.exe
 0000:fff96000       .debug$S                   0000000180000000     node:node.exe
 0000:fff96000       .debug$S                   0000000180000000     node:node.exe
 0000:fff96000       .debug$S                   0000000180000000     node:node.exe
 0000:fff96000       .debug$S                   0000000180000000     node:node.exe
 0000:fff96000       .debug$S                   0000000180000000     node:node.exe
 0000:fff96000       .debug$S                   0000000180000000     node:node.exe
 0000:fff96000       .debug$S                   0000000180000000     node:node.exe
 0000:fff96000       .debug$S                   0000000180000000     node:node.exe
 0000:fff96000       .debug$S                   0000000180000000     node:node.exe
 0000:fff96000       .debug$S                   0000000180000000     node:node.exe
 0000:fff96000       .debug$S                   0000000180000000     kernel32:KERNEL32.dll
 0000:fff96000       .debug$S                   0000000180000000     node:node.exe
 0000:fff96000       .debug$S                   0000000180000000     kernel32:KERNEL32.dll
 0000:fff96000       .debug$S                   0000000180000000     node:node.exe
 0000:fff96000       .debug$S                   0000000180000000     kernel32:KERNEL32.dll
 0000:fff96000       .debug$S                   0000000180000000     kernel32:KERNEL32.dll
 0000:fff96000       .debug$S                   0000000180000000     node:node.exe
 0000:fff96000       .debug$S                   0000000180000000     node:node.exe
 0000:fff96000       .debug$S                   0000000180000000     node:node.exe
 0000:fff96000       .debug$S                   0000000180000000     node:node.exe
 0000:fff96000       .debug$S                   0000000180000000     node:node.exe
 0000:fff96000       .debug$S                   0000000180000000     kernel32:KERNEL32.dll
 0000:fff96000       .debug$S                   0000000180000000     node:node.exe
 0000:fff96000       .debug$S                   0000000180000000     node:node.exe
 0000:fff96000       .debug$S                   0000000180000000     node:node.exe
 0000:fff96000       .debug$S                   0000000180000000     node:node.exe
 0000:fff96000       .debug$S                   0000000180000000     node:node.exe
 0000:fff96000       .debug$S                   0000000180000000     node:node.exe
 0000:fff96000       .debug$S                   0000000180000000     kernel32:KERNEL32.dll
 0000:fff96000       .debug$S                   0000000180000000     kernel32:KERNEL32.dll
 0000:fff96000       .debug$S                   0000000180000000     oracledb.exp
 0000:fff96000       .debug$S                   0000000180000000     kernel32:KERNEL32.dll
 0000:fff96000       .debug$S                   0000000180000000     kernel32:KERNEL32.dll
 0000:fff96000       .debug$S                   0000000180000000     kernel32:KERNEL32.dll
 0000:fff96000       .debug$S                   0000000180000000     kernel32:KERNEL32.dll
 0000:fff96000       .debug$S                   0000000180000000     kernel32:KERNEL32.dll
 0000:fff96000       .debug$S                   0000000180000000     kernel32:KERNEL32.dll
 0000:fff96000       .debug$S                   0000000180000000     kernel32:KERNEL32.dll
 0000:fff96000       .debug$S                   0000000180000000     kernel32:KERNEL32.dll
 0000:fff96000       .debug$S                   0000000180000000     kernel32:KERNEL32.dll
 0000:fff96000       .debug$S                   0000000180000000     kernel32:KERNEL32.dll
 0000:fff96000       .debug$S                   0000000180000000     kernel32:KERNEL32.dll
 0000:fff96000       .debug$S                   0000000180000000     kernel32:KERNEL32.dll
 0000:fff96000       .debug$S                   0000000180000000     kernel32:KERNEL32.dll
 0000:fff96000       .debug$S                   0000000180000000     kernel32:KERNEL32.dll
 0000:fff96000       .debug$S                   0000000180000000     kernel32:KERNEL32.dll
 0000:fff96000       .debug$S                   0000000180000000     kernel32:KERNEL32.dll
 0000:fff96000       .debug$S                   0000000180000000     kernel32:KERNEL32.dll
 0000:fff96000       .debug$S                   0000000180000000     kernel32:KERNEL32.dll
 0000:fff96000       .debug$S                   0000000180000000     kernel32:KERNEL32.dll
 0000:fff96000       .debug$S                   0000000180000000     kernel32:KERNEL32.dll
 0000:fff96000       .debug$S                   0000000180000000     kernel32:KERNEL32.dll
 0000:fff96000       .debug$S                   0000000180000000     kernel32:KERNEL32.dll
 0000:fff96000       .debug$S                   0000000180000000     kernel32:KERNEL32.dll
 0000:fff96000       .debug$S                   0000000180000000     kernel32:KERNEL32.dll
 0000:fff96000       .debug$S                   0000000180000000     kernel32:KERNEL32.dll
 0000:fff96000       .debug$S                   0000000180000000     kernel32:KERNEL32.dll
 0000:fff96000       .debug$S                   0000000180000000     kernel32:KERNEL32.dll
 0000:fff96000       .debug$S                   0000000180000000     kernel32:KERNEL32.dll
 0000:fff96000       .debug$S                   0000000180000000     kernel32:KERNEL32.dll
 0000:fff96000       .debug$S                   0000000180000000     kernel32:KERNEL32.dll
 0000:fff96000       .debug$S                   0000000180000000     kernel32:KERNEL32.dll
 0000:fff96000       .debug$S                   0000000180000000     kernel32:KERNEL32.dll
 0000:fff96000       .debug$S                   0000000180000000     kernel32:KERNEL32.dll
 0000:fff96000       .debug$S                   0000000180000000     node:node.exe
 0000:fff96000       .debug$S                   0000000180000000     kernel32:KERNEL32.dll
 0000:fff96000       .debug$S                   0000000180000000     node:node.exe
 0000:fff96000       .debug$S                   0000000180000000     kernel32:KERNEL32.dll
 0000:fff96000       .debug$S                   0000000180000000     kernel32:KERNEL32.dll
 0000:fff96000       .debug$S                   0000000180000000     kernel32:KERNEL32.dll
 0000:fff96000       .debug$S                   0000000180000000     kernel32:KERNEL32.dll
 0000:fff96000       .debug$S                   0000000180000000     kernel32:KERNEL32.dll
 0000:fff96000       .debug$S                   0000000180000000     kernel32:KERNEL32.dll
 0000:fff96000       .debug$S                   0000000180000000     kernel32:KERNEL32.dll
 0000:fff96000       .debug$S                   0000000180000000     kernel32:KERNEL32.dll
 0000:fff96000       .debug$S                   0000000180000000     kernel32:KERNEL32.dll
 0000:fff96000       .debug$S                   0000000180000000     kernel32:KERNEL32.dll
 0000:fff96000       .debug$S                   0000000180000000     kernel32:KERNEL32.dll
 0000:fff96000       .debug$S                   0000000180000000     kernel32:KERNEL32.dll
 0000:fff96000       .debug$S                   0000000180000000     kernel32:KERNEL32.dll
 0000:fff96000       .debug$S                   0000000180000000     kernel32:KERNEL32.dll
 0000:fff96000       .debug$S                   0000000180000000     kernel32:KERNEL32.dll
 0000:fff96000       .debug$S                   0000000180000000     kernel32:KERNEL32.dll
 0000:fff96000       .debug$S                   0000000180000000     kernel32:KERNEL32.dll
 0000:fff96000       .debug$S                   0000000180000000     kernel32:KERNEL32.dll
 0000:fff96000       .debug$S                   0000000180000000     kernel32:KERNEL32.dll
 0000:fff96000       .debug$S                   0000000180000000     kernel32:KERNEL32.dll
 0000:fff96000       .debug$S                   0000000180000000     kernel32:KERNEL32.dll
 0000:fff96000       .debug$S                   0000000180000000     kernel32:KERNEL32.dll
 0000:fff96000       .debug$S                   0000000180000000     kernel32:KERNEL32.dll
 0000:fff96000       .debug$S                   0000000180000000     kernel32:KERNEL32.dll
 0000:fff96000       .debug$S                   0000000180000000     kernel32:KERNEL32.dll
 0000:fff96000       .debug$S                   0000000180000000     kernel32:KERNEL32.dll
 0000:fff96000       .debug$S                   0000000180000000     kernel32:KERNEL32.dll
 0000:fff96000       .debug$S                   0000000180000000     kernel32:KERNEL32.dll
 0000:fff96000       .debug$S                   0000000180000000     kernel32:KERNEL32.dll
 0000:fff96000       .debug$S                   0000000180000000     kernel32:KERNEL32.dll
 0000:fff96000       .debug$S                   0000000180000000     kernel32:KERNEL32.dll
 0000:fff96000       .debug$S                   0000000180000000     kernel32:KERNEL32.dll
 0000:fff96000       .debug$S                   0000000180000000     kernel32:KERNEL32.dll
 0000:fff96000       .debug$S                   0000000180000000     kernel32:KERNEL32.dll
 0000:fff96000       .debug$S                   0000000180000000     kernel32:KERNEL32.dll
 0000:fff96000       .debug$S                   0000000180000000     kernel32:KERNEL32.dll
 0000:fff96000       .debug$S                   0000000180000000     kernel32:KERNEL32.dll
 0000:fff96000       .debug$S                   0000000180000000     kernel32:KERNEL32.dll
 0000:fff96000       .debug$S                   0000000180000000     node:node.exe
 0000:fff96000       .debug$S                   0000000180000000     kernel32:KERNEL32.dll
 0000:fff96000       .debug$S                   0000000180000000     kernel32:KERNEL32.dll
 0000:fff96000       .debug$S                   0000000180000000     kernel32:KERNEL32.dll
 0000:fff96000       .debug$S                   0000000180000000     kernel32:KERNEL32.dll
 0000:fff96000       .debug$S                   0000000180000000     kernel32:KERNEL32.dll
 0000:fff96000       .debug$S                   0000000180000000     kernel32:KERNEL32.dll
 0000:fff96000       .debug$S                   0000000180000000     kernel32:KERNEL32.dll
 0000:fff96000       .debug$S                   0000000180000000     kernel32:KERNEL32.dll
 0000:fff96000       .debug$S                   0000000180000000     kernel32:KERNEL32.dll
 0000:fff96000       .debug$S                   0000000180000000     node:node.exe
 0000:fff96000       .debug$S                   0000000180000000     kernel32:KERNEL32.dll
 0000:fff96000       .debug$S                   0000000180000000     kernel32:KERNEL32.dll
 0000:fff96000       .debug$S                   0000000180000000     kernel32:KERNEL32.dll
 0000:fff96000       .debug$S                   0000000180000000     kernel32:KERNEL32.dll
 0000:fff96000       .debug$S                   0000000180000000     kernel32:KERNEL32.dll
 0000:fff96000       .debug$S                   0000000180000000     kernel32:KERNEL32.dll
 0000:fff96000       .debug$S                   0000000180000000     kernel32:KERNEL32.dll
 0000:fff96000       .debug$S                   0000000180000000     kernel32:KERNEL32.dll
 0000:fff96000       .debug$S                   0000000180000000     kernel32:KERNEL32.dll
 0000:fff96000       .debug$S                   0000000180000000     node:node.exe
 0000:fff96000       .debug$S                   0000000180000000     kernel32:KERNEL32.dll
 0000:fff96000       .debug$S                   0000000180000000     kernel32:KERNEL32.dll
 0000:fff96000       .debug$S                   0000000180000000     kernel32:KERNEL32.dll
 0000:fff96000       .debug$S                   0000000180000000     kernel32:KERNEL32.dll
 0001:00000000       ??__E?oracledbTemplate_s@njsOracledb@@0V?$Persistent@VFunctionTemplate@v8@@V?$NonCopyablePersistentTraits@VFunctionTemplate@v8@@@2@@Nan@@A@@YAXXZ 0000000180001000 f   njsOracle.obj
 0001:00000020       ??__E?poolTemplate_s@njsPool@@0V?$Persistent@VFunctionTemplate@v8@@V?$NonCopyablePersistentTraits@VFunctionTemplate@v8@@@2@@Nan@@A@@YAXXZ 0000000180001020 f   njsPool.obj
 0001:00000040       ??__E?connectionTemplate_s@njsConnection@@0V?$Persistent@VFunctionTemplate@v8@@V?$NonCopyablePersistentTraits@VFunctionTemplate@v8@@@2@@Nan@@A@@YAXXZ 0000000180001040 f   njsConnection.obj
 0001:00000060       ??__E?resultSetTemplate_s@njsResultSet@@0V?$Persistent@VFunctionTemplate@v8@@V?$NonCopyablePersistentTraits@VFunctionTemplate@v8@@@2@@Nan@@A@@YAXXZ 0000000180001060 f   njsResultSet.obj
 0001:00000080       ??__E?iLobTemplate_s@njsILob@@0V?$Persistent@VFunctionTemplate@v8@@V?$NonCopyablePersistentTraits@VFunctionTemplate@v8@@@2@@Nan@@A@@YAXXZ 0000000180001080 f   njsIntLob.obj
 0001:00000868       $LN24                      0000000180001868     njsCommon.obj
 0001:00003aa0       ?FunctionCallbackWrapper@imp@Nan@@YAXAEBV?$FunctionCallbackInfo@VValue@v8@@@v8@@@Z 0000000180004aa0 f   njsOracle.obj
 0001:00003b80       ?GetterCallbackWrapper@imp@Nan@@YAXV?$Local@VName@v8@@@v8@@AEBV?$PropertyCallbackInfo@VValue@v8@@@4@@Z 0000000180004b80 f   njsOracle.obj
 0001:00003c50       ?SetterCallbackWrapper@imp@Nan@@YAXV?$Local@VName@v8@@@v8@@V?$Local@VValue@v8@@@4@AEBV?$PropertyCallbackInfo@X@4@@Z 0000000180004c50 f   njsOracle.obj
 0001:00004610       report_memory_leaks        0000000180005610 f i libucrt:initialization.obj
 0001:00004610       uninitialize_c             0000000180005610 f i libucrt:initialization.obj
 0001:00004610       initialize_global_state_isolation 0000000180005610 f i libucrt:initialization.obj
 0001:00004610       initialize_environment     0000000180005610 f i libucrt:initialization.obj
 0001:00004610       uninitialize_global_state_isolation 0000000180005610 f i libucrt:initialization.obj
 0001:00007be0       init                       0000000180008be0 f   njsOracle.obj
 0001:00007c20       _register_oracledb         0000000180008c20 f   njsOracle.obj
 0001:000097e4       $LN321                     000000018000a7e4     njsConnection.obj
 0001:00009800       $LN320                     000000018000a800     njsConnection.obj
 0001:00009f30       $LN48                      000000018000af30     njsConnection.obj
 0001:0000a624       $LN442                     000000018000b624     njsConnection.obj
 0001:0000a640       $LN441                     000000018000b640     njsConnection.obj
 0001:0000a96c       $LN293                     000000018000b96c     njsConnection.obj
 0001:0000d1ec       $LN304                     000000018000e1ec     njsConnection.obj
 0001:000124e0       dpiConn__close             00000001800134e0 f   dpiConn.obj
 0001:00012ae0       dpiConn__createStandalone  0000000180013ae0 f   dpiConn.obj
 0001:00012f10       dpiConn__get               0000000180013f10 f   dpiConn.obj
 0001:000131c0       dpiConn__getHandles        00000001800141c0 f   dpiConn.obj
 0001:00013270       dpiConn__getServerCharset  0000000180014270 f   dpiConn.obj
 0001:000132c0       dpiConn__getServerVersion  00000001800142c0 f   dpiConn.obj
 0001:000134b0       dpiConn__getSession        00000001800144b0 f   dpiConn.obj
 0001:000138c0       dpiConn__setAppContext     00000001800148c0 f   dpiConn.obj
 0001:00013b30       dpiConn__setAttributesFromCreateParams 0000000180014b30 f   dpiConn.obj
 0001:00013d80       dpiConn__setAttributeText  0000000180014d80 f   dpiConn.obj
 0001:00013f90       dpiConn__setShardingKey    0000000180014f90 f   dpiConn.obj
 0001:000140e0       dpiConn__setShardingKeyValue 00000001800150e0 f   dpiConn.obj
 0001:00016140       dpiContext__create         0000000180017140 f   dpiContext.obj
 0001:00017740       dpiDebug__getFormatWithPrefix 0000000180018740 f   dpiDebug.obj
 0001:00017ba0       dpiEnv__getCharacterSetIdAndName 0000000180018ba0 f   dpiEnv.obj
 0001:00018c80       dpiGlobal__extendedInitialize 0000000180019c80 f   dpiGlobal.obj
 0001:00018dc0       dpiGlobal__finalize        0000000180019dc0 f   dpiGlobal.obj
 0001:000190a0       dpiGlobal__initialize      000000018001a0a0 f   dpiGlobal.obj
 0001:0001b0a0       dpiObjectType__describe    000000018001c0a0 f   dpiObjectType.obj
 0001:0001b310       dpiObjectType__init        000000018001c310 f   dpiObjectType.obj
 0001:0001b550       dpiOci__allocateMem        000000018001c550 f   dpiOci.obj
 0001:0001d170       dpiOci__freeMem            000000018001e170 f   dpiOci.obj
 0001:0001d760       dpiOci__findAndCheckDllArchitecture 000000018001e760 f   dpiOci.obj
 0001:0001dac0       dpiOci__getLoadErrorOnWindows 000000018001eac0 f   dpiOci.obj
 0001:0001dc30       dpiOci__loadLib            000000018001ec30 f   dpiOci.obj
 0001:0001dd60       dpiOci__loadLibValidate    000000018001ed60 f   dpiOci.obj
 0001:0001ded0       dpiOci__loadSymbol         000000018001eed0 f   dpiOci.obj
 0001:0001f980       dpiOci__reallocMem         0000000180020980 f   dpiOci.obj
 0001:00020b00       dpiOracleType__convertFromOracle 0000000180021b00 f   dpiOracleType.obj
 0001:00020bd0       $LN31                      0000000180021bd0     dpiOracleType.obj
 0001:00020c2c       $LN30                      0000000180021c2c     dpiOracleType.obj
 0001:000211e0       dpiPool__create            00000001800221e0 f   dpiPool.obj
 0001:00021610       dpiPool__getAttributeUint  0000000180022610 f   dpiPool.obj
 0001:00021850       dpiPool__setAttributeUint  0000000180022850 f   dpiPool.obj
 0001:00022890       dpiStmt__bind              0000000180023890 f   dpiStmt.obj
 0001:00022ce0       dpiStmt__clearBatchErrors  0000000180023ce0 f   dpiStmt.obj
 0001:00022d40       dpiStmt__clearBindVars     0000000180023d40 f   dpiStmt.obj
 0001:00022e20       dpiStmt__clearQueryVars    0000000180023e20 f   dpiStmt.obj
 0001:000230c0       dpiStmt__createQueryVars   00000001800240c0 f   dpiStmt.obj
 0001:00023290       dpiStmt__define            0000000180024290 f   dpiStmt.obj
 0001:00023540       dpiStmt__execute           0000000180024540 f   dpiStmt.obj
 0001:00023820       dpiStmt__fetch             0000000180024820 f   dpiStmt.obj
 0001:00023950       dpiStmt__getBatchErrors    0000000180024950 f   dpiStmt.obj
 0001:00023d50       dpiStmt__getQueryInfo      0000000180024d50 f   dpiStmt.obj
 0001:00023e50       dpiStmt__getQueryInfoFromParam 0000000180024e50 f   dpiStmt.obj
 0001:00024020       dpiStmt__postFetch         0000000180025020 f   dpiStmt.obj
 0001:000240d0       dpiStmt__preFetch          00000001800250d0 f   dpiStmt.obj
 0001:000242e0       dpiStmt__reExecute         00000001800252e0 f   dpiStmt.obj
 0001:000279e0       dpiVar__allocateChunks     00000001800289e0 f   dpiVar.obj
 0001:00027ac0       dpiVar__allocateDynamicBytes 0000000180028ac0 f   dpiVar.obj
 0001:00027bc0       dpiVar__assignCallbackBuffer 0000000180028bc0 f   dpiVar.obj
 0001:00027c0c       $LN9                       0000000180028c0c     dpiVar.obj
 0001:00028230       dpiVar__finalizeBuffer     0000000180029230 f   dpiVar.obj
 0001:00028bbc       $LN76                      0000000180029bbc     dpiVar.obj
 0001:00028bec       $LN75                      0000000180029bec     dpiVar.obj
 0001:00028bfc       $LN74                      0000000180029bfc     dpiVar.obj
 0001:00028d30       $LN21                      0000000180029d30     dpiVar.obj
 0001:00028d60       dpiVar__initBuffer         0000000180029d60 f   dpiVar.obj
 0001:00029404       $LN138                     000000018002a404     dpiVar.obj
 0001:000297e0       dpiVar__setBytesFromDynamicBytes 000000018002a7e0 f   dpiVar.obj
 0001:00029980       dpiVar__setBytesFromLob    000000018002a980 f   dpiVar.obj
 0001:00029ab0       dpiVar__setFromBytes       000000018002aab0 f   dpiVar.obj
 0001:00029c90       dpiVar__setFromLob         000000018002ac90 f   dpiVar.obj
 0001:0002a1a4       $LN66                      000000018002b1a4     dpiVar.obj
 0001:0002acb0       ?load_exe_hook@@YAP6A_JXZIPEAUDelayLoadInfo@@@Z 000000018002bcb0 f   win_delay_load_hook.obj
 0001:0002b450       $$000000                   000000018002c450     LIBCMT:_amdsecgs_.obj
 0001:0002bbb4       capture_current_context    000000018002cbb4 f   LIBCMT:gs_report.obj
 0001:0002bc24       capture_previous_context   000000018002cc24 f   LIBCMT:gs_report.obj
 0001:0002bc98       ?dllmain_crt_dispatch@@YAHQEAUHINSTANCE__@@KQEAX@Z 000000018002cc98 f   LIBCMT:dll_dllmain.obj
 0001:0002bce8       ?dllmain_crt_process_attach@@YAHQEAUHINSTANCE__@@QEAX@Z 000000018002cce8 f   LIBCMT:dll_dllmain.obj
 0001:0002be14       ?dllmain_crt_process_detach@@YAH_N@Z 000000018002ce14 f   LIBCMT:dll_dllmain.obj
 0001:0002be98       ?dllmain_dispatch@@YAHQEAUHINSTANCE__@@KQEAX@Z 000000018002ce98 f   LIBCMT:dll_dllmain.obj
 0001:0002bf90       ?dllmain_raw@@YAHQEAUHINSTANCE__@@KQEAX@Z 000000018002cf90 f   LIBCMT:dll_dllmain.obj
 0001:0002c5c0       $$000000                   000000018002d5c0     libvcruntime:memcpy.obj
 0001:0002c667       MoveSmall                  000000018002d667     libvcruntime:memcpy.obj
 0001:0002caf0       ?CatchIt@@YAXPEAUEHExceptionRecord@@PEA_KPEAU_CONTEXT@@PEAU_xDISPATCHER_CONTEXT@@PEBU_s_FuncInfo@@PEBU_s_HandlerType@@PEBU_s_CatchableType@@PEBU_s_TryBlockMapEntry@@H1EE@Z 000000018002daf0 f   libvcruntime:frame.obj
 0001:0002cbb4       ?ExFilterRethrow@@YAHPEAU_EXCEPTION_POINTERS@@PEAUEHExceptionRecord@@PEAH@Z 000000018002dbb4 f   libvcruntime:frame.obj
 0001:0002cc3c       ?FindHandler@@YAXPEAUEHExceptionRecord@@PEA_KPEAU_CONTEXT@@PEAU_xDISPATCHER_CONTEXT@@PEBU_s_FuncInfo@@EH1@Z 000000018002dc3c f   libvcruntime:frame.obj
 0001:0002d10c       ?FindHandlerForForeignException@@YAXPEAUEHExceptionRecord@@PEA_KPEAU_CONTEXT@@PEAU_xDISPATCHER_CONTEXT@@PEBU_s_FuncInfo@@HH1@Z 000000018002e10c f   libvcruntime:frame.obj
 0001:0002d378       ?IsInExceptionSpec@@YAEPEAUEHExceptionRecord@@PEBU_s_ESTypeList@@@Z 000000018002e378 f   libvcruntime:frame.obj
 0001:0002e490       $$000000                   000000018002f490     libvcruntime:memset.obj
 0001:0002e57c       MsetTab                    000000018002f57c     libvcruntime:memset.obj
 0001:0002e950       $$000000                   000000018002f950     libvcruntime:handlers.obj
 0001:0002f050       $$000000                   0000000180030050     libvcruntime:_jmpuwind_.obj
 0001:0002f168       ?try_get_function@@YAPEAXW4function_id@?A0x679b24ab@@QEBDQEBW4module_id@2@2@Z 0000000180030168 f   libvcruntime:winapi_downlevel.obj
 0001:0002f598       ??$common_assert_to_message_box@_W@@YAXQEB_W0IQEAX@Z 0000000180030598 f   libucrt:assert.obj
 0001:0002f65c       ??$common_assert_to_message_box_build_string@_W@@YAXQEA_W_KQEB_W2IQEAX@Z 000000018003065c f   libucrt:assert.obj
 0001:0002fe30       ??$common_assert_to_stderr@_W@@YAXQEB_W0I@Z 0000000180030e30 f   libucrt:assert.obj
 0001:0002ffa0       ?get_assert_format@@YAPEB_W_W@Z 0000000180030fa0 f   libucrt:assert.obj
 0001:000309ac       ??R<lambda_0a64b6a4deda75c01876f29c44fc5eb3>@@QEBAHXZ 00000001800319ac f   libucrt:output.obj
 0001:00030a9c       ??R<lambda_dd75445284c072d0bd3768540cc698fa>@@QEBAHXZ 0000000180031a9c f   libucrt:output.obj
 0001:000340a0       $$000000                   00000001800350a0     libucrt:strncpy.obj
 0001:00034214       ??$common_timespec_get@U_timespec64@@@@YAHQEAU_timespec64@@H@Z 0000000180035214 f   libucrt:time.obj
 0001:00034f38       ??$common_getenv@D@@YAPEADQEBD@Z 0000000180035f38 f   libucrt:getenv.obj
 0001:00034fa4       ??$common_getenv_nolock@D@@YAPEADQEBD@Z 0000000180035fa4 f   libucrt:getenv.obj
 0001:00035034       ??$common_fsopen@D@@YAPEAU_iobuf@@QEBD0H@Z 0000000180036034 f   libucrt:fopen.obj
 0001:00035208       ?common_fseek@@YAHV__crt_stdio_stream@@_JH@Z 0000000180036208 f   libucrt:fseek.obj
 0001:00035274       ?common_fseek_binary_mode_read_only_fast_track_nolock@@YA_NV__crt_stdio_stream@@_JH@Z 0000000180036274 f   libucrt:fseek.obj
 0001:00035384       ?common_fseek_nolock@@YAHV__crt_stdio_stream@@_JH@Z 0000000180036384 f   libucrt:fseek.obj
 0001:00035580       $$000000                   0000000180036580     libucrt:strncat.obj
 0001:00035a80       $$000000                   0000000180036a80     libucrt:strncmp.obj
 0001:00035e98       ?atexit_exception_filter@@YAHK@Z 0000000180036e98 f   libucrt:exit.obj
 0001:00035ea4       ?common_exit@@YAXHW4_crt_exit_cleanup_mode@@W4_crt_exit_return_mode@@@Z 0000000180036ea4 f   libucrt:exit.obj
 0001:00036010       ?exit_or_terminate_process@@YAXI@Z 0000000180037010 f   libucrt:exit.obj
 0001:0003605c       ?try_cor_exit_process@@YAXI@Z 000000018003705c f   libucrt:exit.obj
 0001:000360f4       ??$parse_command_line@D@@YAXPEADPEAPEAD0PEA_K2@Z 00000001800370f4 f   libucrt:argv_parsing.obj
 0001:0003648c       ??$common_get_or_create_environment_nolock@D@@YAPEAPEADXZ 000000018003748c f   libucrt:environment_initialization.obj
 0001:000364d4       ??$common_initialize_environment_nolock@D@@YAHXZ 00000001800374d4 f   libucrt:environment_initialization.obj
 0001:00036540       ??$create_environment@D@@YAQEAPEADQEAD@Z 0000000180037540 f   libucrt:environment_initialization.obj
 0001:0003663c       ??$free_environment@D@@YAXQEAPEAD@Z 000000018003763c f   libucrt:environment_initialization.obj
 0001:0003663c       ??$free_environment@_W@@YAXQEAPEA_W@Z 000000018003763c f   libucrt:environment_initialization.obj
 0001:00036680       ??$initialize_environment_by_cloning_nolock@D@@YAHXZ 0000000180037680 f   libucrt:environment_initialization.obj
 0001:00036754       ??$uninitialize_environment_internal@D@@YAXAEAPEAPEAD@Z 0000000180037754 f   libucrt:environment_initialization.obj
 0001:00036770       ??$uninitialize_environment_internal@_W@@YAXAEAPEAPEA_W@Z 0000000180037770 f   libucrt:environment_initialization.obj
 0001:000369b0       ??R<lambda_4e60a939b0d047cfe11ddc22648dfba9>@@QEBAHXZ 00000001800379b0 f   libucrt:onexit.obj
 0001:00036c60       initialize_global_variables 0000000180037c60 f   libucrt:initialization.obj
 0001:00036c74       initialize_c               0000000180037c74 f   libucrt:initialization.obj
 0001:00036c98       uninitialize_environment   0000000180037c98 f   libucrt:initialization.obj
 0001:00036ca8       initialize_pointers        0000000180037ca8 f   libucrt:initialization.obj
 0001:00036cfc       uninitialize_vcruntime     0000000180037cfc f   libucrt:initialization.obj
 0001:00036d04       uninitialize_allocated_memory 0000000180037d04 f   libucrt:initialization.obj
 0001:00037164       ??$common_xtox@K_W@@YAHKQEA_W_KI_N@Z 0000000180038164 f   libucrt:xtoa.obj
 0001:00037210       ??$common_xtox_s@K_W@@YAHKQEA_W_KI_N@Z 0000000180038210 f   libucrt:xtoa.obj
 0001:000374d4       ??$message_box_wait_thread@_W@@YAKQEAX@Z 00000001800384d4 f   libucrt:crtmbox.obj
 0001:000376e8       common_flush_all           00000001800386e8 f   libucrt:fflush.obj
 0001:00037850       ??R<lambda_b721fa326cdb32351d23dfa67958c160>@@QEBAHXZ 0000000180038850 f   libucrt:setvbuf.obj
 0001:00037e3c       ?construct_ptd_array@@YAXQEAU__acrt_ptd@@@Z 0000000180038e3c f   libucrt:per_thread_data.obj
 0001:00037f0c       ?destroy_fls@@YAXPEAX@Z    0000000180038f0c f   libucrt:per_thread_data.obj
 0001:00037f2c       ?destroy_ptd_array@@YAXQEAU__acrt_ptd@@@Z 0000000180038f2c f   libucrt:per_thread_data.obj
 0001:00038024       ?replace_current_thread_locale_nolock@@YAXQEAU__acrt_ptd@@QEAU__crt_locale_data@@@Z 0000000180039024 f   libucrt:per_thread_data.obj
 0001:00038264       ?internal_isupper_l@@YA_NHQEAU__crt_locale_pointers@@@Z 0000000180039264 f   libucrt:tolower_toupper.obj
 0001:00038b24       ?fp_format_a@@YAHQEBNPEAD_KQEAD2H_NIQEAU__crt_locale_pointers@@@Z 0000000180039b24 f   libucrt:cvt.obj
 0001:00038e84       ?fp_format_e@@YAHQEBNQEAD_K12H_NIQEAU__crt_locale_pointers@@@Z 0000000180039e84 f   libucrt:cvt.obj
 0001:00038f54       ?fp_format_e_internal@@YAHQEAD_KH_NIQEAU_strflt@@2QEAU__crt_locale_pointers@@@Z 0000000180039f54 f   libucrt:cvt.obj
 0001:00039130       ?fp_format_f_internal@@YAHQEAD_KHQEAU_strflt@@_NQEAU__crt_locale_pointers@@@Z 000000018003a130 f   libucrt:cvt.obj
 0001:00039278       ?fp_format_g@@YAHQEBNQEAD_K12H_NIQEAU__crt_locale_pointers@@@Z 000000018003a278 f   libucrt:cvt.obj
 0001:000393b0       ?fp_format_nan_or_infinity@@YAHW4__acrt_fp_class@@_NPEAD_K1@Z 000000018003a3b0 f   libucrt:cvt.obj
 0001:00039a6c       ?initialize_inherited_file_handles_nolock@@YAXXZ 000000018003aa6c f   libucrt:ioinit.obj
 0001:00039b58       ?initialize_stdio_handles_nolock@@YAXXZ 000000018003ab58 f   libucrt:ioinit.obj
 0001:00039cd0       ?try_get_function@@YAPEAXW4function_id@?A0x63058377@@QEBDQEBW4module_id@2@2@Z 000000018003acd0 f   libucrt:winapi_thunks.obj
 0001:0003ac04       ?find_or_allocate_unused_stream_nolock@@YA?AV__crt_stdio_stream@@XZ 000000018003bc04 f   libucrt:stream.obj
 0001:0003b280       ??$common_ftell_nolock@_J@@YA_JV__crt_stdio_stream@@@Z 000000018003c280 f   libucrt:ftell.obj
 0001:0003b3f8       ?common_ftell_read_mode_nolock@@YA_JV__crt_stdio_stream@@_J1@Z 000000018003c3f8 f   libucrt:ftell.obj
 0001:0003b570       ?common_ftell_translated_utf8_nolock@@YA_JV__crt_stdio_stream@@_J@Z 000000018003c570 f   libucrt:ftell.obj
 0001:0003b6f0       ??$common_lseek@_J@@YA_JH_JH@Z 000000018003c6f0 f   libucrt:lseek.obj
 0001:0003b7e0       ??$common_lseek_nolock@_J@@YA_JH_JH@Z 000000018003c7e0 f   libucrt:lseek.obj
 0001:0003b88c       ??$translate_text_mode_nolock@_W@@YAHHQEA_W_K@Z 000000018003c88c f   libucrt:read.obj
 0001:0003babc       ?translate_ansi_or_utf8_nolock@@YAHHQEAD_KQEA_W1@Z 000000018003cabc f   libucrt:read.obj
 0001:0003c33c       ??$common_refill_and_read_nolock@D@@YAHV__crt_stdio_stream@@@Z 000000018003d33c f   libucrt:_filbuf.obj
 0001:0003c4ec       ?<helper_func_cdecl>@<lambda_2feae5270eb4d0d5532525f423405775>@@CAHPEBX0@Z 000000018003d4ec f   libucrt:argv_wildcards.obj
 0001:0003c500       ??$common_expand_argv_wildcards@D@@YAHQEAPEADQEAPEAPEAD@Z 000000018003d500 f   libucrt:argv_wildcards.obj
 0001:0003c70c       ??$copy_and_add_argument_to_buffer@D@@YAHQEBD0_KAEAV?$argument_list@D@?A0xca0879c4@@@Z 000000018003d70c f   libucrt:argv_wildcards.obj
 0001:0003c81c       ??$expand_argument_wildcards@D@@YAHQEAD0AEAV?$argument_list@D@?A0xca0879c4@@@Z 000000018003d81c f   libucrt:argv_wildcards.obj
 0001:0003cad0       ??R<lambda_ad1ced32f4ac17aa236e5ef05d6b3b7c>@@QEBAXXZ 000000018003dad0 f   libucrt:mbctype.obj
 0001:0003cce8       ?getSystemCP@@YAHH@Z       000000018003dce8 f   libucrt:mbctype.obj
 0001:0003cd68       ?setSBCS@@YAXPEAU__crt_multibyte_data@@@Z 000000018003dd68 f   libucrt:mbctype.obj
 0001:0003cdf8       ?setSBUpLow@@YAXPEAU__crt_multibyte_data@@@Z 000000018003ddf8 f   libucrt:mbctype.obj
 0001:0003cfdc       ?setmbcp_internal@@YAHH_N@Z 000000018003dfdc f   libucrt:mbctype.obj
 0001:0003d524       ?x_ismbbtype_l@@YAHPEAU__crt_locale_pointers@@IHH@Z 000000018003e524 f   libucrt:ismbbyte.obj
 0001:0003d6dc       ??$common_set_variable_in_environment_nolock@D@@YAHQEADH@Z 000000018003e6dc f   libucrt:setenv.obj
 0001:0003d9cc       ??$copy_environment@D@@YAPEAPEADQEAPEAD@Z 000000018003e9cc f   libucrt:setenv.obj
 0001:0003de04       ?write_double_translated_ansi_nolock@@YA?AUwrite_result@?A0x9c548279@@HQEBDI@Z 000000018003ee04 f   libucrt:write.obj
 0001:0003e00c       ?write_text_ansi_nolock@@YA?AUwrite_result@?A0x9c548279@@HQEBDI@Z 000000018003f00c f   libucrt:write.obj
 0001:0003e114       ?write_text_utf16le_nolock@@YA?AUwrite_result@?A0x9c548279@@HQEBDI@Z 000000018003f114 f   libucrt:write.obj
 0001:0003e230       ?write_text_utf8_nolock@@YA?AUwrite_result@?A0x9c548279@@HQEBDI@Z 000000018003f230 f   libucrt:write.obj
 0001:0003ebc0       ?__acrt_LCMapStringA_stat@@YAHPEAU__crt_locale_pointers@@PEB_WKPEBDHPEADHHH@Z 000000018003fbc0 f   libucrt:lcmapstringa.obj
 0001:000408bc       memcpy_s                   00000001800418bc f   libucrt:cfout.obj
 0001:00040944       ??$write_buffer_nolock@D@@YA_NDV__crt_stdio_stream@@@Z 0000000180041944 f   libucrt:_flsbuf.obj
 0001:00040a48       ??$write_buffer_nolock@_W@@YA_N_WV__crt_stdio_stream@@@Z 0000000180041a48 f   libucrt:_flsbuf.obj
 0001:00040f00       ?free_crt_array_internal@@YAXQEAPEBX_K@Z 0000000180041f00 f   libucrt:inittime.obj
 0001:00041720       ?GetTableIndexFromLocaleName@@YAHPEB_W@Z 0000000180042720 f   libucrt:lcidtoname_downlevel.obj
 0001:00041a18       ?InternalCompareStringA@@YAHPEAU__crt_locale_pointers@@PEB_WKPEBDH2HH@Z 0000000180042a18 f   libucrt:comparestringa.obj
 0001:00041e38       ??$common_sopen_dispatch@D@@YAHQEBDHHHQEAHH@Z 0000000180042e38 f   libucrt:open.obj
 0001:00041f18       ?configure_text_mode@@YAHHUfile_options@?A0x656cf9f4@@HAEAW4__crt_lowio_text_mode@@@Z 0000000180042f18 f   libucrt:open.obj
 0001:000421ac       ?decode_options@@YA?AUfile_options@?A0x656cf9f4@@HHH@Z 00000001800431ac f   libucrt:open.obj
 0001:000423b8       ?truncate_ctrl_z_if_present@@YAHH@Z 00000001800433b8 f   libucrt:open.obj
 0001:000429a0       ?shortsort@@YAXPEAD0_KP6AHPEBX2@Z@Z 00000001800439a0 f   libucrt:qsort.obj
 0001:00042fb8       ?initialize_multibyte@@YAHXZ 0000000180043fb8 f   libucrt:multibyte_initializer.obj
 0001:00043200       $$000000                   0000000180044200     libucrt:log10.obj
 0001:00043854       common_control87           0000000180044854 f   libucrt:ieee.obj
 0001:00043af0       $$000000                   0000000180044af0     libucrt:fpsr.obj
 0001:00043f30       _call_matherr              0000000180044f30 f   libucrt:libm_error.obj
 0001:00043f98       _exception_enabled         0000000180044f98 f   libucrt:libm_error.obj
 0001:00044230       _log_special_common        0000000180045230 f   libucrt:log_special.obj
 0001:00044f10       $$000000                   0000000180045f10     LIBCMT:_chkstk_.obj
 0001:00044f80       $$000000                   0000000180045f80     libvcruntime:memcmp.obj
 0001:000450e0       $$000000                   00000001800460e0     libucrt:strcmp.obj
 0001:00045160       $$000000                   0000000180046160     LIBCMT:_guard_dispatch_.obj
 0001:00045180       ?dtor$0@?0??DefineOwnProperty@Nan@@YA?AV?$Maybe@_N@v8@@V?$Local@VObject@v8@@@3@V?$Local@VString@v8@@@3@V?$Local@VValue@v8@@@3@W4PropertyAttribute@3@@Z@4HA 0000000180046180 f   njsConnection.obj
 0001:00045180       ?dtor$0@?0??Set@Nan@@YA?AV?$Maybe@_N@v8@@V?$Local@VObject@v8@@@3@IV?$Local@VValue@v8@@@3@@Z@4HA 0000000180046180 f   njsConnection.obj
 0001:00045180       ?dtor$0@?0??Set@Nan@@YA?AV?$Maybe@_N@v8@@V?$Local@VObject@v8@@@3@V?$Local@VValue@v8@@@3@1@Z@4HA 0000000180046180 f   njsCommon.obj
 0001:00045190       ?dtor$0@?0??New@?$Factory@VDate@v8@@@imp@Nan@@SA?AV?$MaybeLocal@VDate@v8@@@v8@@N@Z@4HA 0000000180046190 f   njsConnection.obj
 0001:00045190       ?dtor$0@?0??convert@?$ToFactory@VInteger@v8@@@imp@Nan@@SA?AV?$MaybeLocal@VInteger@v8@@@v8@@V?$Local@VValue@v8@@@5@@Z@4HA 0000000180046190 f   njsConnection.obj
 0001:00045190       ?dtor$0@?0??GetFunction@Nan@@YA?AV?$MaybeLocal@VFunction@v8@@@v8@@V?$Local@VFunctionTemplate@v8@@@3@@Z@4HA 0000000180046190 f   njsPool.obj
 0001:00045190       ?dtor$0@?0??NewInstance@Nan@@YA?AV?$MaybeLocal@VObject@v8@@@v8@@V?$Local@VFunction@v8@@@3@@Z@4HA 0000000180046190 f   njsPool.obj
 0001:00045190       ?dtor$0@?0??NewInstance@Nan@@YA?AV?$MaybeLocal@VObject@v8@@@v8@@V?$Local@VObjectTemplate@v8@@@3@@Z@4HA 0000000180046190 f   njsOracle.obj
 0001:00045190       ?dtor$0@?0??convert@?$ToFactory@VInt32@v8@@@imp@Nan@@SA?AV?$MaybeLocal@VInt32@v8@@@v8@@V?$Local@VValue@v8@@@5@@Z@4HA 0000000180046190 f   njsConnection.obj
 0001:00045190       ?dtor$0@?0??Get@Nan@@YA?AV?$MaybeLocal@VValue@v8@@@v8@@V?$Local@VObject@v8@@@3@I@Z@4HA 0000000180046190 f   njsOracle.obj
 0001:00045190       ?dtor$0@?0??Get@Nan@@YA?AV?$MaybeLocal@VValue@v8@@@v8@@V?$Local@VObject@v8@@@3@V?$Local@VValue@v8@@@3@@Z@4HA 0000000180046190 f   njsCommon.obj
 0001:000451a0       ?dtor$0@?0??convert@?$ToFactory@I@imp@Nan@@SA?AV?$Maybe@I@v8@@V?$Local@VValue@v8@@@5@@Z@4HA 00000001800461a0 f   njsCommon.obj
 0001:000451a0       ?dtor$0@?0??convert@?$ToFactory@H@imp@Nan@@SA?AV?$Maybe@H@v8@@V?$Local@VValue@v8@@@5@@Z@4HA 00000001800461a0 f   njsCommon.obj
 0001:000451b0       ?dtor$0@?0??Error@Nan@@YA?AV?$Local@VValue@v8@@@v8@@PEBD@Z@4HA 00000001800461b0 f   njsOracle.obj
 0001:000451b0       ?dtor$0@?0??Async_AfterRead@njsILob@@CAXPEAVnjsBaton@@QEAV?$Local@VValue@v8@@@v8@@@Z@4HA 00000001800461b0 f   njsIntLob.obj
 0001:000451b0       ?dtor$0@?0??ThrowError@Nan@@YAXPEBD@Z@4HA 00000001800461b0 f   njsCommon.obj
 0001:000451b0       ?dtor$0@?0??Async_AfterCreateLob@njsConnection@@CAXPEAVnjsBaton@@QEAV?$Local@VValue@v8@@@v8@@@Z@4HA 00000001800461b0 f   njsConnection.obj
 0001:000451b0       ?dtor$0@?0??GetInstance@njsILob@@SAPEAV1@V?$Local@VValue@v8@@@v8@@@Z@4HA 00000001800461b0 f   njsIntLob.obj
 0001:000451c0       ?dtor$0@?0???0njsBaton@@QEAA@V?$Local@VFunction@v8@@@v8@@V?$Local@VObject@v8@@@2@@Z@4HA 00000001800461c0 f   njsCommon.obj
 0001:000451cc       ?dtor$1@?0???0njsBaton@@QEAA@V?$Local@VFunction@v8@@@v8@@V?$Local@VObject@v8@@@2@@Z@4HA 00000001800461cc f   njsCommon.obj
 0001:000451dc       ?dtor$2@?0???0njsBaton@@QEAA@V?$Local@VFunction@v8@@@v8@@V?$Local@VObject@v8@@@2@@Z@4HA 00000001800461dc f   njsCommon.obj
 0001:000451ec       ?dtor$3@?0???0njsBaton@@QEAA@V?$Local@VFunction@v8@@@v8@@V?$Local@VObject@v8@@@2@@Z@4HA 00000001800461ec f   njsCommon.obj
 0001:000451fc       ?dtor$4@?0???0njsBaton@@QEAA@V?$Local@VFunction@v8@@@v8@@V?$Local@VObject@v8@@@2@@Z@4HA 00000001800461fc f   njsCommon.obj
 0001:0004520f       ?dtor$5@?0???0njsBaton@@QEAA@V?$Local@VFunction@v8@@@v8@@V?$Local@VObject@v8@@@2@@Z@4HA 000000018004620f f   njsCommon.obj
 0001:00045222       ?dtor$6@?0???0njsBaton@@QEAA@V?$Local@VFunction@v8@@@v8@@V?$Local@VObject@v8@@@2@@Z@4HA 0000000180046222 f   njsCommon.obj
 0001:00045235       ?dtor$7@?0???0njsBaton@@QEAA@V?$Local@VFunction@v8@@@v8@@V?$Local@VObject@v8@@@2@@Z@4HA 0000000180046235 f   njsCommon.obj
 0001:00045248       ?dtor$8@?0???0njsBaton@@QEAA@V?$Local@VFunction@v8@@@v8@@V?$Local@VObject@v8@@@2@@Z@4HA 0000000180046248 f   njsCommon.obj
 0001:0004525b       ?dtor$9@?0???0njsBaton@@QEAA@V?$Local@VFunction@v8@@@v8@@V?$Local@VObject@v8@@@2@@Z@4HA 000000018004625b f   njsCommon.obj
 0001:0004526e       ?dtor$10@?0???0njsBaton@@QEAA@V?$Local@VFunction@v8@@@v8@@V?$Local@VObject@v8@@@2@@Z@4HA 000000018004626e f   njsCommon.obj
 0001:00045281       ?dtor$11@?0???0njsBaton@@QEAA@V?$Local@VFunction@v8@@@v8@@V?$Local@VObject@v8@@@2@@Z@4HA 0000000180046281 f   njsCommon.obj
 0001:000452a0       ?dtor$0@?0??CheckJSException@njsBaton@@QEAAXPEAVTryCatch@Nan@@@Z@4HA 00000001800462a0 f   njsCommon.obj
 0001:000452ae       ?dtor$1@?0??CheckJSException@njsBaton@@QEAAXPEAVTryCatch@Nan@@@Z@4HA 00000001800462ae f   njsCommon.obj
 0001:000452c0       ?dtor$0@?0??CreateFromBaton@njsPool@@SA?AV?$Local@VObject@v8@@@v8@@PEAVnjsBaton@@@Z@4HA 00000001800462c0 f   njsPool.obj
 0001:000452c0       ?dtor$0@?0??ProcessExecuteBinds@njsConnection@@CA_NV?$Local@VObject@v8@@@v8@@PEAVnjsBaton@@@Z@4HA 00000001800462c0 f   njsConnection.obj
 0001:000452c0       ?dtor$0@?0??IsValid@njsResultSet@@UEBA_NXZ@4HA 00000001800462c0 f   njsResultSet.obj
 0001:000452c0       ?dtor$0@?0??SetFetchAsBufferTypesOnBaton@njsOracledb@@QEBAXPEAVnjsBaton@@@Z@4HA 00000001800462c0 f   njsOracle.obj
 0001:000452c0       ?dtor$0@?0??CreateFromBaton@njsConnection@@SA?AV?$Local@VObject@v8@@@v8@@PEAVnjsBaton@@@Z@4HA 00000001800462c0 f   njsConnection.obj
 0001:000452c0       ?dtor$0@?0??SetFetchAsStringTypesOnBaton@njsOracledb@@QEBAXPEAVnjsBaton@@@Z@4HA 00000001800462c0 f   njsOracle.obj
 0001:000452c0       ?dtor$0@?0??GetOracledb@njsBaton@@QEAAPEAVnjsOracledb@@XZ@4HA 00000001800462c0 f   njsCommon.obj
 0001:000452c0       ?dtor$0@?0??CreateFromBaton@njsResultSet@@SA?AV?$Local@VObject@v8@@@v8@@PEAVnjsBaton@@@Z@4HA 00000001800462c0 f   njsResultSet.obj
 0001:000452c0       ?dtor$0@?0??CreateFromProtoLob@njsILob@@SA?AV?$Local@VObject@v8@@@v8@@PEAVnjsProtoILob@@@Z@4HA 00000001800462c0 f   njsIntLob.obj
 0001:000452d0       ?dtor$0@?0??AsyncAfterWorkCallback@njsBaton@@CAXPEAUuv_work_s@@H@Z@4HA 00000001800462d0 f   njsCommon.obj
 0001:000452dc       ?dtor$1@?0??AsyncAfterWorkCallback@njsBaton@@CAXPEAUuv_work_s@@H@Z@4HA 00000001800462dc f   njsCommon.obj
 0001:000452f0       ?dtor$0@?0??GetDPIError@njsBaton@@QEAAXXZ@4HA 00000001800462f0 f   njsCommon.obj
 0001:000452fc       ?dtor$1@?0??GetDPIError@njsBaton@@QEAAXXZ@4HA 00000001800462fc f   njsCommon.obj
 0001:00045310       ?dtor$0@?0??GetBoolFromJSON@njsBaton@@QEAA_NV?$Local@VObject@v8@@@v8@@PEBDHPEA_N@Z@4HA 0000000180046310 f   njsCommon.obj
 0001:0004531c       ?dtor$1@?0??GetBoolFromJSON@njsBaton@@QEAA_NV?$Local@VObject@v8@@@v8@@PEBDHPEA_N@Z@4HA 000000018004631c f   njsCommon.obj
 0001:00045330       ?dtor$0@?0??GetIntFromJSON@njsBaton@@QEAA_NV?$Local@VObject@v8@@@v8@@PEBDHPEAH@Z@4HA 0000000180046330 f   njsCommon.obj
 0001:00045330       ?dtor$0@?0??GetUnsignedIntFromJSON@njsBaton@@QEAA_NV?$Local@VObject@v8@@@v8@@PEBDHPEAI@Z@4HA 0000000180046330 f   njsCommon.obj
 0001:0004533c       ?dtor$1@?0??GetUnsignedIntFromJSON@njsBaton@@QEAA_NV?$Local@VObject@v8@@@v8@@PEBDHPEAI@Z@4HA 000000018004633c f   njsCommon.obj
 0001:0004533c       ?dtor$1@?0??GetIntFromJSON@njsBaton@@QEAA_NV?$Local@VObject@v8@@@v8@@PEBDHPEAH@Z@4HA 000000018004633c f   njsCommon.obj
 0001:00045348       ?dtor$2@?0??GetIntFromJSON@njsBaton@@QEAA_NV?$Local@VObject@v8@@@v8@@PEBDHPEAH@Z@4HA 0000000180046348 f   njsCommon.obj
 0001:00045348       ?dtor$2@?0??GetUnsignedIntFromJSON@njsBaton@@QEAA_NV?$Local@VObject@v8@@@v8@@PEBDHPEAI@Z@4HA 0000000180046348 f   njsCommon.obj
 0001:00045360       ?dtor$0@?0??CreateLob@njsConnection@@CAXAEBV?$FunctionCallbackInfo@VValue@v8@@@Nan@@@Z@4HA 0000000180046360 f   njsConnection.obj
 0001:00045360       ?dtor$0@?0??GetPositiveIntFromJSON@njsBaton@@QEAA_NV?$Local@VObject@v8@@@v8@@PEBDHPEAI@Z@4HA 0000000180046360 f   njsCommon.obj
 0001:00045360       ?dtor$0@?0??Write@njsILob@@CAXAEBV?$FunctionCallbackInfo@VValue@v8@@@Nan@@@Z@4HA 0000000180046360 f   njsIntLob.obj
 0001:00045370       ?dtor$0@?0??GetStringFromJSON@njsBaton@@QEAA_NV?$Local@VObject@v8@@@v8@@PEBDHAEAV?$basic_string@DU?$char_traits@D@std@@V?$allocator@D@2@@std@@@Z@4HA 0000000180046370 f   njsCommon.obj
 0001:0004537c       ?dtor$1@?0??GetStringFromJSON@njsBaton@@QEAA_NV?$Local@VObject@v8@@@v8@@PEBDHAEAV?$basic_string@DU?$char_traits@D@std@@V?$allocator@D@2@@std@@@Z@4HA 000000018004637c f   njsCommon.obj
 0001:0004538a       ?dtor$2@?0??GetStringFromJSON@njsBaton@@QEAA_NV?$Local@VObject@v8@@@v8@@PEBDHAEAV?$basic_string@DU?$char_traits@D@std@@V?$allocator@D@2@@std@@@Z@4HA 000000018004638a f   njsCommon.obj
 0001:00045396       ?dtor$3@?0??GetStringFromJSON@njsBaton@@QEAA_NV?$Local@VObject@v8@@@v8@@PEBDHAEAV?$basic_string@DU?$char_traits@D@std@@V?$allocator@D@2@@std@@@Z@4HA 0000000180046396 f   njsCommon.obj
 0001:000453a2       ?dtor$4@?0??GetStringFromJSON@njsBaton@@QEAA_NV?$Local@VObject@v8@@@v8@@PEBDHAEAV?$basic_string@DU?$char_traits@D@std@@V?$allocator@D@2@@std@@@Z@4HA 00000001800463a2 f   njsCommon.obj
 0001:000453b0       ?dtor$0@?0??QueueWork@njsBaton@@QEAAXPEBDP6AXPEAV1@@ZP6AX1QEAV?$Local@VValue@v8@@@v8@@@ZI@Z@4HA 00000001800463b0 f   njsCommon.obj
 0001:000453b0       ?dtor$0@?0??PropertyIsReadOnly@njsCommon@@KAXPEBD@Z@4HA 00000001800463b0 f   njsCommon.obj
 0001:000453b0       ?dtor$0@?0??GetIsValid@njsILob@@CAXV?$Local@VString@v8@@@v8@@AEBV?$PropertyCallbackInfo@VValue@v8@@@Nan@@@Z@4HA 00000001800463b0 f   njsIntLob.obj
 0001:000453c0       ?dtor$0@?0??CreateBaton@njsCommon@@IEAAPEAVnjsBaton@@AEBV?$FunctionCallbackInfo@VValue@v8@@@Nan@@@Z@4HA 00000001800463c0 f   njsCommon.obj
 0001:000453cc       ?dtor$1@?0??CreateBaton@njsCommon@@IEAAPEAVnjsBaton@@AEBV?$FunctionCallbackInfo@VValue@v8@@@Nan@@@Z@4HA 00000001800463cc f   njsCommon.obj
 0001:000453d8       ?dtor$2@?0??CreateBaton@njsCommon@@IEAAPEAVnjsBaton@@AEBV?$FunctionCallbackInfo@VValue@v8@@@Nan@@@Z@4HA 00000001800463d8 f   njsCommon.obj
 0001:000453f5       ?dtor$3@?0??CreateBaton@njsCommon@@IEAAPEAVnjsBaton@@AEBV?$FunctionCallbackInfo@VValue@v8@@@Nan@@@Z@4HA 00000001800463f5 f   njsCommon.obj
 0001:00045410       ?dtor$0@?0??GetObjectArg@njsCommon@@IEAA_NAEBV?$FunctionCallbackInfo@VValue@v8@@@Nan@@HAEAV?$Local@VObject@v8@@@v8@@@Z@4HA 0000000180046410 f   njsCommon.obj
 0001:0004541c       ?dtor$1@?0??GetObjectArg@njsCommon@@IEAA_NAEBV?$FunctionCallbackInfo@VValue@v8@@@Nan@@HAEAV?$Local@VObject@v8@@@v8@@@Z@4HA 000000018004641c f   njsCommon.obj
 0001:00045430       ?dtor$0@?0??GetStringArg@njsCommon@@IEAA_NAEBV?$FunctionCallbackInfo@VValue@v8@@@Nan@@HAEAV?$basic_string@DU?$char_traits@D@std@@V?$allocator@D@2@@std@@@Z@4HA 0000000180046430 f   njsCommon.obj
 0001:0004543c       ?dtor$1@?0??GetStringArg@njsCommon@@IEAA_NAEBV?$FunctionCallbackInfo@VValue@v8@@@Nan@@HAEAV?$basic_string@DU?$char_traits@D@std@@V?$allocator@D@2@@std@@@Z@4HA 000000018004643c f   njsCommon.obj
 0001:00045448       ?dtor$2@?0??GetStringArg@njsCommon@@IEAA_NAEBV?$FunctionCallbackInfo@VValue@v8@@@Nan@@HAEAV?$basic_string@DU?$char_traits@D@std@@V?$allocator@D@2@@std@@@Z@4HA 0000000180046448 f   njsCommon.obj
 0001:00045456       ?dtor$3@?0??GetStringArg@njsCommon@@IEAA_NAEBV?$FunctionCallbackInfo@VValue@v8@@@Nan@@HAEAV?$basic_string@DU?$char_traits@D@std@@V?$allocator@D@2@@std@@@Z@4HA 0000000180046456 f   njsCommon.obj
 0001:00045470       ?dtor$0@?0??GetUnsignedIntArg@njsCommon@@IEAA_NAEBV?$FunctionCallbackInfo@VValue@v8@@@Nan@@HPEAI@Z@4HA 0000000180046470 f   njsCommon.obj
 0001:00045470       ?dtor$0@?0??SetPropPositiveInt@njsCommon@@IEAA_NV?$Local@VValue@v8@@@v8@@PEAIPEBD@Z@4HA 0000000180046470 f   njsCommon.obj
 0001:00045470       ?dtor$0@?0??SetPropBool@njsCommon@@IEAA_NV?$Local@VValue@v8@@@v8@@PEA_NPEBD@Z@4HA 0000000180046470 f   njsCommon.obj
 0001:00045470       ?dtor$0@?0??SetPropInt@njsCommon@@IEAA_NV?$Local@VValue@v8@@@v8@@PEAHPEBD@Z@4HA 0000000180046470 f   njsCommon.obj
 0001:00045470       ?dtor$0@?0??SetPropUnsignedInt@njsCommon@@IEAA_NV?$Local@VValue@v8@@@v8@@PEAIPEBD@Z@4HA 0000000180046470 f   njsCommon.obj
 0001:00045480       ?dtor$0@?0??SetPropString@njsCommon@@IEAA_NV?$Local@VValue@v8@@@v8@@PEAV?$basic_string@DU?$char_traits@D@std@@V?$allocator@D@2@@std@@PEBD@Z@4HA 0000000180046480 f   njsCommon.obj
 0001:0004548c       ?dtor$1@?0??SetPropString@njsCommon@@IEAA_NV?$Local@VValue@v8@@@v8@@PEAV?$basic_string@DU?$char_traits@D@std@@V?$allocator@D@2@@std@@PEBD@Z@4HA 000000018004648c f   njsCommon.obj
 0001:0004549a       ?dtor$2@?0??SetPropString@njsCommon@@IEAA_NV?$Local@VValue@v8@@@v8@@PEAV?$basic_string@DU?$char_traits@D@std@@V?$allocator@D@2@@std@@PEBD@Z@4HA 000000018004649a f   njsCommon.obj
 0001:000454b0       ?dtor$0@?0??ValidateArgs@njsCommon@@KAPEAV1@AEBV?$FunctionCallbackInfo@VValue@v8@@@Nan@@HH@Z@4HA 00000001800464b0 f   njsCommon.obj
 0001:000454b0       ?dtor$0@?0??Validate@njsCommon@@KA_NPEAV1@_N@Z@4HA 00000001800464b0 f   njsCommon.obj
 0001:000454bc       ?dtor$1@?0??Validate@njsCommon@@KA_NPEAV1@_N@Z@4HA 00000001800464bc f   njsCommon.obj
 0001:000454bc       ?dtor$1@?0??ValidateArgs@njsCommon@@KAPEAV1@AEBV?$FunctionCallbackInfo@VValue@v8@@@Nan@@HH@Z@4HA 00000001800464bc f   njsCommon.obj
 0001:000454c8       ?dtor$2@?0??ValidateArgs@njsCommon@@KAPEAV1@AEBV?$FunctionCallbackInfo@VValue@v8@@@Nan@@HH@Z@4HA 00000001800464c8 f   njsCommon.obj
 0001:000454c8       ?dtor$2@?0??Validate@njsCommon@@KA_NPEAV1@_N@Z@4HA 00000001800464c8 f   njsCommon.obj
 0001:000454e0       ?dtor$0@?0???$New@VString@v8@@V?$basic_string@DU?$char_traits@D@std@@V?$allocator@D@2@@std@@@Nan@@YA?AV?$MaybeLocal@VString@v8@@@v8@@V?$basic_string@DU?$char_traits@D@std@@V?$allocator@D@2@@std@@@Z@4HA 00000001800464e0 f   njsCommon.obj
 0001:000454f0       ?dtor$0@?0??New@?$Factory@VFunctionTemplate@v8@@@imp@Nan@@SA?AV?$Local@VFunctionTemplate@v8@@@v8@@P6AXAEBV?$FunctionCallbackInfo@VValue@v8@@@3@@ZV?$Local@VValue@v8@@@5@V?$Local@VSignature@v8@@@5@@Z@4HA 00000001800464f0 f   njsOracle.obj
 0001:00045500       ?dtor$0@?0??Async_AfterExecute@njsConnection@@CAXPEAVnjsBaton@@QEAV?$Local@VValue@v8@@@v8@@@Z@4HA 0000000180046500 f   njsConnection.obj
 0001:00045500       ?dtor$0@?0??SetPrototypeMethod@Nan@@YAXV?$Local@VFunctionTemplate@v8@@@v8@@PEBDP6AXAEBV?$FunctionCallbackInfo@VValue@v8@@@1@@Z@Z@4HA 0000000180046500 f   njsOracle.obj
 0001:00045510       ?dtor$0@?0??SetAccessor@Nan@@YAXV?$Local@VObjectTemplate@v8@@@v8@@V?$Local@VString@v8@@@3@P6AX1AEBV?$PropertyCallbackInfo@VValue@v8@@@1@@ZP6AX1V?$Local@VValue@v8@@@3@AEBV?$PropertyCallbackInfo@X@1@@Z4W4AccessControl@3@W4PropertyAttribute@3@V?$Local@VAccessorSignature@v8@@@3@@Z@4HA 0000000180046510 f   njsOracle.obj
 0001:00045510       ?dtor$0@?0??GetOutBinds@njsConnection@@CA_NAEAV?$Local@VValue@v8@@@v8@@IIPEAVnjsBaton@@@Z@4HA 0000000180046510 f   njsConnection.obj
 0001:00045510       ?dtor$0@?0??Async_AfterGetStatementInfo@njsConnection@@CAXPEAVnjsBaton@@QEAV?$Local@VValue@v8@@@v8@@@Z@4HA 0000000180046510 f   njsConnection.obj
 0001:00045520       ?dtor$0@?0???0njsOracledb@@AEAA@XZ@4HA 0000000180046520 f   njsOracle.obj
 0001:0004552c       ?dtor$1@?0???0njsOracledb@@AEAA@XZ@4HA 000000018004652c f   njsOracle.obj
 0001:0004553c       ?dtor$2@?0???0njsOracledb@@AEAA@XZ@4HA 000000018004653c f   njsOracle.obj
 0001:0004554c       ?dtor$3@?0???0njsOracledb@@AEAA@XZ@4HA 000000018004654c f   njsOracle.obj
 0001:0004555f       ?dtor$4@?0???0njsOracledb@@AEAA@XZ@4HA 000000018004655f f   njsOracle.obj
 0001:00045580       ?dtor$0@?0??Init@njsOracledb@@SAXV?$Local@VObject@v8@@@v8@@@Z@4HA 0000000180046580 f   njsOracle.obj
 0001:00045590       ?dtor$0@?0??New@njsOracledb@@CAXAEBV?$FunctionCallbackInfo@VValue@v8@@@Nan@@@Z@4HA 0000000180046590 f   njsOracle.obj
 0001:000455b0       ?dtor$0@?0??SetFetchAsBuffer@njsOracledb@@CAXV?$Local@VString@v8@@@v8@@V?$Local@VValue@v8@@@3@AEBV?$PropertyCallbackInfo@X@Nan@@@Z@4HA 00000001800465b0 f   njsOracle.obj
 0001:000455b0       ?dtor$0@?0??SetFetchAsString@njsOracledb@@CAXV?$Local@VString@v8@@@v8@@V?$Local@VValue@v8@@@3@AEBV?$PropertyCallbackInfo@X@Nan@@@Z@4HA 00000001800465b0 f   njsOracle.obj
 0001:000455bc       ?dtor$1@?0??SetFetchAsBuffer@njsOracledb@@CAXV?$Local@VString@v8@@@v8@@V?$Local@VValue@v8@@@3@AEBV?$PropertyCallbackInfo@X@Nan@@@Z@4HA 00000001800465bc f   njsOracle.obj
 0001:000455bc       ?dtor$1@?0??SetFetchAsString@njsOracledb@@CAXV?$Local@VString@v8@@@v8@@V?$Local@VValue@v8@@@3@AEBV?$PropertyCallbackInfo@X@Nan@@@Z@4HA 00000001800465bc f   njsOracle.obj
 0001:000455c8       ?dtor$2@?0??SetFetchAsBuffer@njsOracledb@@CAXV?$Local@VString@v8@@@v8@@V?$Local@VValue@v8@@@3@AEBV?$PropertyCallbackInfo@X@Nan@@@Z@4HA 00000001800465c8 f   njsOracle.obj
 0001:000455c8       ?dtor$2@?0??SetFetchAsString@njsOracledb@@CAXV?$Local@VString@v8@@@v8@@V?$Local@VValue@v8@@@3@AEBV?$PropertyCallbackInfo@X@Nan@@@Z@4HA 00000001800465c8 f   njsOracle.obj
 0001:000455e0       ?dtor$0@?0??ThrowDPIError@njsOracledb@@SAXXZ@4HA 00000001800465e0 f   njsOracle.obj
 0001:000455ec       ?dtor$1@?0??ThrowDPIError@njsOracledb@@SAXXZ@4HA 00000001800465ec f   njsOracle.obj
 0001:00045600       ?dtor$0@?0??Init@njsILob@@SAXV?$Local@VObject@v8@@@v8@@@Z@4HA 0000000180046600 f   njsIntLob.obj
 0001:00045600       ?dtor$0@?0??Init@njsConnection@@SAXV?$Local@VObject@v8@@@v8@@@Z@4HA 0000000180046600 f   njsConnection.obj
 0001:00045600       ?dtor$0@?0??Init@njsResultSet@@SAXV?$Local@VObject@v8@@@v8@@@Z@4HA 0000000180046600 f   njsResultSet.obj
 0001:00045600       ?dtor$0@?0??Init@njsPool@@SAXV?$Local@VObject@v8@@@v8@@@Z@4HA 0000000180046600 f   njsPool.obj
 0001:00045610       ?dtor$0@?0??ProcessQueryVars@njsConnection@@SA_NPEAVnjsBaton@@PEAUdpiStmt@@PEAVnjsVariable@@I@Z@4HA 0000000180046610 f   njsConnection.obj
 0001:0004561c       ?dtor$1@?0??ProcessQueryVars@njsConnection@@SA_NPEAVnjsBaton@@PEAUdpiStmt@@PEAVnjsVariable@@I@Z@4HA 000000018004661c f   njsConnection.obj
 0001:00045630       ?dtor$0@?0??ProcessVars@njsConnection@@SA_NPEAVnjsBaton@@PEAVnjsVariable@@II@Z@4HA 0000000180046630 f   njsConnection.obj
 0001:00045670       ?dtor$0@?0??ProcessVarBuffer@njsConnection@@CA_NPEAVnjsBaton@@PEAVnjsVariable@@PEAVnjsVariableBuffer@@@Z@4HA 0000000180046670 f   njsConnection.obj
 0001:000456b1       ?dtor$1@?0??ProcessVarBuffer@njsConnection@@CA_NPEAVnjsBaton@@PEAVnjsVariable@@PEAVnjsVariableBuffer@@@Z@4HA 00000001800466b1 f   njsConnection.obj
 0001:00045700       ?dtor$0@?0??PrepareAndBind@njsConnection@@CA_NPEAVnjsBaton@@@Z@4HA 0000000180046700 f   njsConnection.obj
 0001:00045710       ?dtor$0@?0??GetMetaData@njsConnection@@SA?AV?$Local@VValue@v8@@@v8@@PEAVnjsVariable@@I_N@Z@4HA 0000000180046710 f   njsConnection.obj
 0001:00045720       ?dtor$0@?0??CreateVarBuffer@njsConnection@@CA_NPEAVnjsVariable@@PEAVnjsBaton@@@Z@4HA 0000000180046720 f   njsConnection.obj
 0001:0004572c       ?dtor$1@?0??CreateVarBuffer@njsConnection@@CA_NPEAVnjsVariable@@PEAVnjsBaton@@@Z@4HA 000000018004672c f   njsConnection.obj
 0001:00045738       ?dtor$2@?0??CreateVarBuffer@njsConnection@@CA_NPEAVnjsVariable@@PEAVnjsBaton@@@Z@4HA 0000000180046738 f   njsConnection.obj
 0001:00045750       ?dtor$0@?0??ScanExecuteBinds@njsConnection@@CA_NV?$Local@VObject@v8@@@v8@@V?$Local@VArray@v8@@@3@PEAVnjsBaton@@@Z@4HA 0000000180046750 f   njsConnection.obj
 0001:0004575c       ?dtor$1@?0??ScanExecuteBinds@njsConnection@@CA_NV?$Local@VObject@v8@@@v8@@V?$Local@VArray@v8@@@3@PEAVnjsBaton@@@Z@4HA 000000018004675c f   njsConnection.obj
 0001:00045768       ?dtor$2@?0??ScanExecuteBinds@njsConnection@@CA_NV?$Local@VObject@v8@@@v8@@V?$Local@VArray@v8@@@3@PEAVnjsBaton@@@Z@4HA 0000000180046768 f   njsConnection.obj
 0001:00045780       ?dtor$0@?0??ScanExecuteBindUnit@njsConnection@@CA_NV?$Local@VObject@v8@@@v8@@PEAVnjsVariable@@_NPEAVnjsBaton@@@Z@4HA 0000000180046780 f   njsConnection.obj
 0001:0004578c       ?dtor$1@?0??ScanExecuteBindUnit@njsConnection@@CA_NV?$Local@VObject@v8@@@v8@@PEAVnjsVariable@@_NPEAVnjsBaton@@@Z@4HA 000000018004678c f   njsConnection.obj
 0001:0004579a       ?dtor$3@?0??ScanExecuteBindUnit@njsConnection@@CA_NV?$Local@VObject@v8@@@v8@@PEAVnjsVariable@@_NPEAVnjsBaton@@@Z@4HA 000000018004679a f   njsConnection.obj
 0001:000457a6       ?dtor$4@?0??ScanExecuteBindUnit@njsConnection@@CA_NV?$Local@VObject@v8@@@v8@@PEAVnjsVariable@@_NPEAVnjsBaton@@@Z@4HA 00000001800467a6 f   njsConnection.obj
 0001:000457b2       ?dtor$5@?0??ScanExecuteBindUnit@njsConnection@@CA_NV?$Local@VObject@v8@@@v8@@PEAVnjsVariable@@_NPEAVnjsBaton@@@Z@4HA 00000001800467b2 f   njsConnection.obj
 0001:000457be       ?dtor$6@?0??ScanExecuteBindUnit@njsConnection@@CA_NV?$Local@VObject@v8@@@v8@@PEAVnjsVariable@@_NPEAVnjsBaton@@@Z@4HA 00000001800467be f   njsConnection.obj
 0001:000457ca       ?dtor$7@?0??ScanExecuteBindUnit@njsConnection@@CA_NV?$Local@VObject@v8@@@v8@@PEAVnjsVariable@@_NPEAVnjsBaton@@@Z@4HA 00000001800467ca f   njsConnection.obj
 0001:000457d6       ?dtor$8@?0??ScanExecuteBindUnit@njsConnection@@CA_NV?$Local@VObject@v8@@@v8@@PEAVnjsVariable@@_NPEAVnjsBaton@@@Z@4HA 00000001800467d6 f   njsConnection.obj
 0001:000457f0       ?dtor$0@?0??ProcessExecuteManyBinds@njsConnection@@CA_NV?$Local@VArray@v8@@@v8@@V?$Local@VObject@v8@@@3@PEAVnjsBaton@@@Z@4HA 00000001800467f0 f   njsConnection.obj
 0001:000457f0       ?dtor$0@?0??GetArrayValueFromVar@njsConnection@@CA_NPEAVnjsBaton@@PEAVnjsVariable@@IAEAV?$Local@VValue@v8@@@v8@@@Z@4HA 00000001800467f0 f   njsConnection.obj
 0001:00045800       ?dtor$0@?0??ScanExecuteManyBinds@njsConnection@@CA_NV?$Local@VArray@v8@@@v8@@0PEAVnjsBaton@@@Z@4HA 0000000180046800 f   njsConnection.obj
 0001:0004580c       ?dtor$1@?0??ScanExecuteManyBinds@njsConnection@@CA_NV?$Local@VArray@v8@@@v8@@0PEAVnjsBaton@@@Z@4HA 000000018004680c f   njsConnection.obj
 0001:00045820       ?dtor$0@?0??TransferExecuteManyBinds@njsConnection@@CA_NV?$Local@VArray@v8@@@v8@@0PEAVnjsBaton@@@Z@4HA 0000000180046820 f   njsConnection.obj
 0001:0004582c       ?dtor$1@?0??TransferExecuteManyBinds@njsConnection@@CA_NV?$Local@VArray@v8@@@v8@@0PEAVnjsBaton@@@Z@4HA 000000018004682c f   njsConnection.obj
 0001:00045840       ?dtor$0@?0??InitBindVars@njsConnection@@CA_NV?$Local@VObject@v8@@@v8@@V?$Local@VArray@v8@@@3@PEAVnjsBaton@@@Z@4HA 0000000180046840 f   njsConnection.obj
 0001:0004587e       ?dtor$1@?0??InitBindVars@njsConnection@@CA_NV?$Local@VObject@v8@@@v8@@V?$Local@VArray@v8@@@3@PEAVnjsBaton@@@Z@4HA 000000018004687e f   njsConnection.obj
 0001:0004588c       ?dtor$2@?0??InitBindVars@njsConnection@@CA_NV?$Local@VObject@v8@@@v8@@V?$Local@VArray@v8@@@3@PEAVnjsBaton@@@Z@4HA 000000018004688c f   njsConnection.obj
 0001:00045898       ?dtor$3@?0??InitBindVars@njsConnection@@CA_NV?$Local@VObject@v8@@@v8@@V?$Local@VArray@v8@@@3@PEAVnjsBaton@@@Z@4HA 0000000180046898 f   njsConnection.obj
 0001:000458b0       ?dtor$0@?0??ProcessBindValue@njsConnection@@CA_NV?$Local@VValue@v8@@@v8@@PEAVnjsVariable@@PEAVnjsBaton@@@Z@4HA 00000001800468b0 f   njsConnection.obj
 0001:000458bc       ?dtor$1@?0??ProcessBindValue@njsConnection@@CA_NV?$Local@VValue@v8@@@v8@@PEAVnjsVariable@@PEAVnjsBaton@@@Z@4HA 00000001800468bc f   njsConnection.obj
 0001:000458c8       ?dtor$2@?0??ProcessBindValue@njsConnection@@CA_NV?$Local@VValue@v8@@@v8@@PEAVnjsVariable@@PEAVnjsBaton@@@Z@4HA 00000001800468c8 f   njsConnection.obj
 0001:000458e0       ?dtor$0@?0??ProcessScalarBindValue@njsConnection@@CA_NV?$Local@VValue@v8@@@v8@@PEAVnjsVariable@@I_NPEAVnjsBaton@@@Z@4HA 00000001800468e0 f   njsConnection.obj
 0001:000458ec       ?dtor$1@?0??ProcessScalarBindValue@njsConnection@@CA_NV?$Local@VValue@v8@@@v8@@PEAVnjsVariable@@I_NPEAVnjsBaton@@@Z@4HA 00000001800468ec f   njsConnection.obj
 0001:000458fa       ?dtor$2@?0??ProcessScalarBindValue@njsConnection@@CA_NV?$Local@VValue@v8@@@v8@@PEAVnjsVariable@@I_NPEAVnjsBaton@@@Z@4HA 00000001800468fa f   njsConnection.obj
 0001:00045906       ?dtor$3@?0??ProcessScalarBindValue@njsConnection@@CA_NV?$Local@VValue@v8@@@v8@@PEAVnjsVariable@@I_NPEAVnjsBaton@@@Z@4HA 0000000180046906 f   njsConnection.obj
 0001:00045912       ?dtor$4@?0??ProcessScalarBindValue@njsConnection@@CA_NV?$Local@VValue@v8@@@v8@@PEAVnjsVariable@@I_NPEAVnjsBaton@@@Z@4HA 0000000180046912 f   njsConnection.obj
 0001:0004591e       ?dtor$5@?0??ProcessScalarBindValue@njsConnection@@CA_NV?$Local@VValue@v8@@@v8@@PEAVnjsVariable@@I_NPEAVnjsBaton@@@Z@4HA 000000018004691e f   njsConnection.obj
 0001:0004592a       ?dtor$6@?0??ProcessScalarBindValue@njsConnection@@CA_NV?$Local@VValue@v8@@@v8@@PEAVnjsVariable@@I_NPEAVnjsBaton@@@Z@4HA 000000018004692a f   njsConnection.obj
 0001:00045940       ?dtor$1@?0??GetBindTypeAndSizeFromValue@njsConnection@@CA_NPEAVnjsVariable@@V?$Local@VValue@v8@@@v8@@PEAW4njsDataType@@PEAIPEAVnjsBaton@@_N@Z@4HA 0000000180046940 f   njsConnection.obj
 0001:0004594c       ?dtor$2@?0??GetBindTypeAndSizeFromValue@njsConnection@@CA_NPEAVnjsVariable@@V?$Local@VValue@v8@@@v8@@PEAW4njsDataType@@PEAIPEAVnjsBaton@@_N@Z@4HA 000000018004694c f   njsConnection.obj
 0001:00045960       ?dtor$0@?0??ProcessExecuteOptions@njsConnection@@CA_NV?$Local@VObject@v8@@@v8@@PEAVnjsBaton@@@Z@4HA 0000000180046960 f   njsConnection.obj
 0001:0004596c       ?dtor$1@?0??ProcessExecuteOptions@njsConnection@@CA_NV?$Local@VObject@v8@@@v8@@PEAVnjsBaton@@@Z@4HA 000000018004696c f   njsConnection.obj
 0001:00045978       ?dtor$2@?0??ProcessExecuteOptions@njsConnection@@CA_NV?$Local@VObject@v8@@@v8@@PEAVnjsBaton@@@Z@4HA 0000000180046978 f   njsConnection.obj
 0001:000459b6       ?dtor$3@?0??ProcessExecuteOptions@njsConnection@@CA_NV?$Local@VObject@v8@@@v8@@PEAVnjsBaton@@@Z@4HA 00000001800469b6 f   njsConnection.obj
 0001:000459c4       ?dtor$4@?0??ProcessExecuteOptions@njsConnection@@CA_NV?$Local@VObject@v8@@@v8@@PEAVnjsBaton@@@Z@4HA 00000001800469c4 f   njsConnection.obj
 0001:000459d0       ?dtor$5@?0??ProcessExecuteOptions@njsConnection@@CA_NV?$Local@VObject@v8@@@v8@@PEAVnjsBaton@@@Z@4HA 00000001800469d0 f   njsConnection.obj
 0001:000459dc       ?dtor$6@?0??ProcessExecuteOptions@njsConnection@@CA_NV?$Local@VObject@v8@@@v8@@PEAVnjsBaton@@@Z@4HA 00000001800469dc f   njsConnection.obj
 0001:000459f0       ?dtor$0@?0??GetScalarValueFromVar@njsConnection@@SA_NPEAVnjsBaton@@PEAVnjsVariable@@PEAVnjsVariableBuffer@@IAEAV?$Local@VValue@v8@@@v8@@@Z@4HA 00000001800469f0 f   njsConnection.obj
 0001:000459fc       ?dtor$1@?0??GetScalarValueFromVar@njsConnection@@SA_NPEAVnjsBaton@@PEAVnjsVariable@@PEAVnjsVariableBuffer@@IAEAV?$Local@VValue@v8@@@v8@@@Z@4HA 00000001800469fc f   njsConnection.obj
 0001:00045a10       ?dtor$0@?0??GetExecuteManyOutBinds@njsConnection@@CA_NAEAV?$Local@VValue@v8@@@v8@@IPEAVnjsBaton@@@Z@4HA 0000000180046a10 f   njsConnection.obj
 0001:00045a10       ?dtor$0@?0??CreateFromRefCursor@njsResultSet@@SA_NPEAVnjsBaton@@PEAUdpiStmt@@PEAVnjsVariable@@IAEAV?$Local@VValue@v8@@@v8@@@Z@4HA 0000000180046a10 f   njsResultSet.obj
 0001:00045a20       ?dtor$0@?0??SetTextAttribute@njsConnection@@CAXAEBV?$PropertyCallbackInfo@X@Nan@@PEBDV?$Local@VValue@v8@@@v8@@P6AHPEAUdpiConn@@1I@Z@Z@4HA 0000000180046a20 f   njsConnection.obj
 0001:00045a2c       ?dtor$1@?0??SetTextAttribute@njsConnection@@CAXAEBV?$PropertyCallbackInfo@X@Nan@@PEBDV?$Local@VValue@v8@@@v8@@P6AHPEAUdpiConn@@1I@Z@Z@4HA 0000000180046a2c f   njsConnection.obj
 0001:00045a40       ?dtor$0@?0??ExecuteMany@njsConnection@@CAXAEBV?$FunctionCallbackInfo@VValue@v8@@@Nan@@@Z@4HA 0000000180046a40 f   njsConnection.obj
 0001:00045a40       ?dtor$0@?0??Execute@njsConnection@@CAXAEBV?$FunctionCallbackInfo@VValue@v8@@@Nan@@@Z@4HA 0000000180046a40 f   njsConnection.obj
 0001:00045a4c       ?dtor$1@?0??Execute@njsConnection@@CAXAEBV?$FunctionCallbackInfo@VValue@v8@@@Nan@@@Z@4HA 0000000180046a4c f   njsConnection.obj
 0001:00045a4c       ?dtor$1@?0??ExecuteMany@njsConnection@@CAXAEBV?$FunctionCallbackInfo@VValue@v8@@@Nan@@@Z@4HA 0000000180046a4c f   njsConnection.obj
 0001:00045a60       ?dtor$0@?0??Async_Execute@njsConnection@@CAXPEAVnjsBaton@@@Z@4HA 0000000180046a60 f   njsConnection.obj
 0001:00045aa0       ?dtor$0@?0??Async_AfterExecuteMany@njsConnection@@CAXPEAVnjsBaton@@QEAV?$Local@VValue@v8@@@v8@@@Z@4HA 0000000180046aa0 f   njsConnection.obj
 0001:00045aac       ?dtor$1@?0??Async_AfterExecuteMany@njsConnection@@CAXPEAVnjsBaton@@QEAV?$Local@VValue@v8@@@v8@@@Z@4HA 0000000180046aac f   njsConnection.obj
 0001:00045ac0       ?dtor$0@?0??Read@njsILob@@CAXAEBV?$FunctionCallbackInfo@VValue@v8@@@Nan@@@Z@4HA 0000000180046ac0 f   njsIntLob.obj
 0001:00045ac0       ?dtor$0@?0??Close@njsILob@@CAXAEBV?$FunctionCallbackInfo@VValue@v8@@@Nan@@@Z@4HA 0000000180046ac0 f   njsIntLob.obj
 0001:00045ac0       ?dtor$0@?0??Close@njsResultSet@@CAXAEBV?$FunctionCallbackInfo@VValue@v8@@@Nan@@@Z@4HA 0000000180046ac0 f   njsResultSet.obj
 0001:00045ac0       ?dtor$0@?0??GetStatementInfo@njsConnection@@CAXAEBV?$FunctionCallbackInfo@VValue@v8@@@Nan@@@Z@4HA 0000000180046ac0 f   njsConnection.obj
 0001:00045ad0       ?dtor$0@?0??Async_GetStatementInfo@njsConnection@@CAXPEAVnjsBaton@@@Z@4HA 0000000180046ad0 f   njsConnection.obj
 0001:00045b10       ?dtor$0@?0??ChangePassword@njsConnection@@CAXAEBV?$FunctionCallbackInfo@VValue@v8@@@Nan@@@Z@4HA 0000000180046b10 f   njsConnection.obj
 0001:00045b1c       ?dtor$1@?0??ChangePassword@njsConnection@@CAXAEBV?$FunctionCallbackInfo@VValue@v8@@@Nan@@@Z@4HA 0000000180046b1c f   njsConnection.obj
 0001:00045b28       ?dtor$2@?0??ChangePassword@njsConnection@@CAXAEBV?$FunctionCallbackInfo@VValue@v8@@@Nan@@@Z@4HA 0000000180046b28 f   njsConnection.obj
 0001:00045b40       ?dtor$0@?0???$?HDU?$char_traits@D@std@@V?$allocator@D@1@@std@@YA?AV?$basic_string@DU?$char_traits@D@std@@V?$allocator@D@2@@0@PEBDAEBV10@@Z@4HA 0000000180046b40 f   njsConnection.obj
 0001:00045b70       ?dtor$0@?0??GetRows@njsResultSet@@CAXAEBV?$FunctionCallbackInfo@VValue@v8@@@Nan@@@Z@4HA 0000000180046b70 f   njsResultSet.obj
 0001:00045b7c       ?dtor$1@?0??GetRows@njsResultSet@@CAXAEBV?$FunctionCallbackInfo@VValue@v8@@@Nan@@@Z@4HA 0000000180046b7c f   njsResultSet.obj
 0001:00045b90       ?dtor$0@?0??Async_AfterGetRows@njsResultSet@@CAXPEAVnjsBaton@@QEAV?$Local@VValue@v8@@@v8@@@Z@4HA 0000000180046b90 f   njsResultSet.obj
 0001:00045ba0       ?dtor$0@?0??Get@njsMessages@@SA?AV?$basic_string@DU?$char_traits@D@std@@V?$allocator@D@2@@std@@HZZ@4HA 0000000180046ba0 f   njsMessages.obj
 0001:00045bc6       ?fin$0@?0???_M@YAXPEAX_K1P6AX0@Z@Z@4HA 0000000180046bc6 f   LIBCMT:ehvecdtr.obj
 0001:00045bf2       ?filt$0@?0??__ArrayUnwind@@YAXPEAX_K1P6AX0@Z@Z@4HA 0000000180046bf2 f   LIBCMT:ehvecdtr.obj
 0001:00045c33       __scrt_is_nonwritable_in_current_image$filt$0 0000000180046c33 f   LIBCMT:utility.obj
 0001:00045c4b       ?fin$0@?0???_L@YAXPEAX_K1P6AX0@Z2@Z@4HA 0000000180046c4b f   LIBCMT:ehvecctr.obj
 0001:00045c77       ?fin$0@?0??dllmain_crt_process_attach@@YAHQEAUHINSTANCE__@@QEAX@Z@4HA 0000000180046c77 f   LIBCMT:dll_dllmain.obj
 0001:00045c8e       ?fin$0@?0??dllmain_crt_process_detach@@YAH_N@Z@4HA 0000000180046c8e f   LIBCMT:dll_dllmain.obj
 0001:00045caa       ?filt$0@?0??dllmain_dispatch@@YAHQEAUHINSTANCE__@@KQEAX@Z@4HA 0000000180046caa f   LIBCMT:dll_dllmain.obj
 0001:00045ce0       __CxxCallCatchBlock$filt$0 0000000180046ce0 f   libvcruntime:frame.obj
 0001:00045d05       __CxxCallCatchBlock$fin$1  0000000180046d05 f   libvcruntime:frame.obj
 0001:00045d7d       __DestructExceptionObject$filt$0 0000000180046d7d f   libvcruntime:frame.obj
 0001:00045d95       __FrameUnwindToState$filt$0 0000000180046d95 f   libvcruntime:frame.obj
 0001:00045dab       __FrameUnwindToState$fin$1 0000000180046dab f   libvcruntime:frame.obj
 0001:00045dce       _CallSETranslator$filt$0   0000000180046dce f   libvcruntime:trnsctrl.obj
 0001:00045e1a       ?fin$0@?0???$?RV<lambda_7b91131dde12e1c3dfc74ff76b3f2eac>@@AEAV<lambda_dd75445284c072d0bd3768540cc698fa>@@V<lambda_16bc4ecb55b4718497c16bceaea2ceaf>@@@?$__crt_seh_guarded_call@H@@QEAAH$$QEAV<lambda_7b91131dde12e1c3dfc74ff76b3f2eac>@@AEAV<lambda_dd75445284c072d0bd3768540cc698fa>@@$$QEAV<lambda_16bc4ecb55b4718497c16bceaea2ceaf>@@@Z@4HA 0000000180046e1a f   libucrt:output.obj
 0001:00045e1a       ?fin$0@?0???$?RV<lambda_aa279a7bcb127014629d5b1d62c7325d>@@AEAV<lambda_0a64b6a4deda75c01876f29c44fc5eb3>@@V<lambda_3323e69fbefe9d1a11713e670d47cdfa>@@@?$__crt_seh_guarded_call@H@@QEAAH$$QEAV<lambda_aa279a7bcb127014629d5b1d62c7325d>@@AEAV<lambda_0a64b6a4deda75c01876f29c44fc5eb3>@@$$QEAV<lambda_3323e69fbefe9d1a11713e670d47cdfa>@@@Z@4HA 0000000180046e1a f   libucrt:output.obj
 0001:00045e1a       ?fin$0@?0???$?RV<lambda_7a5ef57ff966f610505f1d28a3d40618>@@AEAV<lambda_b721fa326cdb32351d23dfa67958c160>@@V<lambda_5e0fb27672408a07956fe59e48ccb2aa>@@@?$__crt_seh_guarded_call@H@@QEAAH$$QEAV<lambda_7a5ef57ff966f610505f1d28a3d40618>@@AEAV<lambda_b721fa326cdb32351d23dfa67958c160>@@$$QEAV<lambda_5e0fb27672408a07956fe59e48ccb2aa>@@@Z@4HA 0000000180046e1a f   libucrt:setvbuf.obj
 0001:00045e35       ?fin$0@?0???$common_getenv@D@@YAPEADQEBD@Z@4HA 0000000180046e35 f   libucrt:getenv.obj
 0001:00045e4e       ?fin$0@?0???$common_fsopen@D@@YAPEAU_iobuf@@QEBD0H@Z@4HA 0000000180046e4e f   libucrt:fopen.obj
 0001:00045e79       fclose$fin$0               0000000180046e79 f   libucrt:fclose.obj
 0001:00045e79       fflush$fin$0               0000000180046e79 f   libucrt:fflush.obj
 0001:00045e91       ?fin$0@?0??common_fseek@@YAHV__crt_stdio_stream@@_JH@Z@4HA 0000000180046e91 f   libucrt:fseek.obj
 0001:00045eab       fread_s$fin$0              0000000180046eab f   libucrt:fread.obj
 0001:00045ec3       _query_new_handler$fin$0   0000000180046ec3 f   libucrt:new_handler.obj
 0001:00045ed9       ?filt$0@?0??common_exit@@YAXHW4_crt_exit_cleanup_mode@@W4_crt_exit_return_mode@@@Z@4HA 0000000180046ed9 f   libucrt:exit.obj
 0001:00045ef4       ?fin$1@?0??common_exit@@YAXHW4_crt_exit_cleanup_mode@@W4_crt_exit_return_mode@@@Z@4HA 0000000180046ef4 f   libucrt:exit.obj
 0001:00045f0d       ?fin$0@?0???$?RV<lambda_e24bbb7b643b32fcea6fa61b31d4c984>@@AEAV<lambda_275893d493268fdec8709772e3fcec0e>@@V<lambda_9d71df4d7cf3f480f8d633942495c3b0>@@@?$__crt_seh_guarded_call@H@@QEAAH$$QEAV<lambda_e24bbb7b643b32fcea6fa61b31d4c984>@@AEAV<lambda_275893d493268fdec8709772e3fcec0e>@@$$QEAV<lambda_9d71df4d7cf3f480f8d633942495c3b0>@@@Z@4HA 0000000180046f0d f   libucrt:onexit.obj
 0001:00045f2a       common_flush_all$fin$0     0000000180046f2a f   libucrt:fflush.obj
 0001:00045f44       common_flush_all$fin$1     0000000180046f44 f   libucrt:fflush.obj
 0001:00045f5d       ?fin$0@?0???$?RV<lambda_72d1df2b273a38828b1ce30cbf4cdab5>@@AEAV<lambda_876a65b173b8412d3a47c70a915b0cf4>@@V<lambda_41932305e351933ebe8f8be3ed8bb5dc>@@@?$__crt_seh_guarded_call@X@@QEAAX$$QEAV<lambda_72d1df2b273a38828b1ce30cbf4cdab5>@@AEAV<lambda_876a65b173b8412d3a47c70a915b0cf4>@@$$QEAV<lambda_41932305e351933ebe8f8be3ed8bb5dc>@@@Z@4HA 0000000180046f5d f   libucrt:per_thread_data.obj
 0001:00045f5d       ?fin$0@?0???$?RV<lambda_fb3a7dec4e47f37f22dae91bb15c9095>@@AEAV<lambda_698284760c8add0bfb0756c19673e34b>@@V<lambda_dfb8eca1e75fef3034a8fb18dd509707>@@@?$__crt_seh_guarded_call@X@@QEAAX$$QEAV<lambda_fb3a7dec4e47f37f22dae91bb15c9095>@@AEAV<lambda_698284760c8add0bfb0756c19673e34b>@@$$QEAV<lambda_dfb8eca1e75fef3034a8fb18dd509707>@@@Z@4HA 0000000180046f5d f   libucrt:per_thread_data.obj
 0001:00045f5d       ?fin$0@?0???$?RV<lambda_46352004c1216016012b18bd6f87e700>@@AEAV<lambda_3bd07e1a1191394380780325891bf33f>@@V<lambda_334532d3f185bcaa59b5be82d7d22bff>@@@?$__crt_seh_guarded_call@X@@QEAAX$$QEAV<lambda_46352004c1216016012b18bd6f87e700>@@AEAV<lambda_3bd07e1a1191394380780325891bf33f>@@$$QEAV<lambda_334532d3f185bcaa59b5be82d7d22bff>@@@Z@4HA 0000000180046f5d f   libucrt:per_thread_data.obj
 0001:00045f5d       ?fin$0@?0???$?RV<lambda_5e887d1dcbef67a5eb4283622ba103bf>@@AEAV<lambda_4466841279450cc726390878d4a41900>@@V<lambda_341c25c0346d94847f1f3c463c57e077>@@@?$__crt_seh_guarded_call@X@@QEAAX$$QEAV<lambda_5e887d1dcbef67a5eb4283622ba103bf>@@AEAV<lambda_4466841279450cc726390878d4a41900>@@$$QEAV<lambda_341c25c0346d94847f1f3c463c57e077>@@@Z@4HA 0000000180046f5d f   libucrt:per_thread_data.obj
 0001:00045f5d       ?fin$0@?0???$?RV<lambda_b8c45f8f788dd370798f47cfe8ac3a86>@@AEAV<lambda_4e60a939b0d047cfe11ddc22648dfba9>@@V<lambda_332c3edc96d0294ec56c57d38c1cdfd5>@@@?$__crt_seh_guarded_call@H@@QEAAH$$QEAV<lambda_b8c45f8f788dd370798f47cfe8ac3a86>@@AEAV<lambda_4e60a939b0d047cfe11ddc22648dfba9>@@$$QEAV<lambda_332c3edc96d0294ec56c57d38c1cdfd5>@@@Z@4HA 0000000180046f5d f   libucrt:onexit.obj
 0001:00045f5d       ?fin$0@?0???$?RV<lambda_99476a1ad63dd22509b5d3e65b0ffc95>@@AEAV<lambda_ad1ced32f4ac17aa236e5ef05d6b3b7c>@@V<lambda_f7424dd8d45958661754dc4f2697e9c3>@@@?$__crt_seh_guarded_call@X@@QEAAX$$QEAV<lambda_99476a1ad63dd22509b5d3e65b0ffc95>@@AEAV<lambda_ad1ced32f4ac17aa236e5ef05d6b3b7c>@@$$QEAV<lambda_f7424dd8d45958661754dc4f2697e9c3>@@@Z@4HA 0000000180046f5d f   libucrt:mbctype.obj
 0001:00045f5d       ?fin$0@?0???$?RV<lambda_c36588078e9f5dfd39652860aa6b3aaf>@@AEAV<lambda_ec61778202f4f5fc7e7711acc23c3bca>@@V<lambda_dc9d2797ccde5d239b4a0efae8ebd7db>@@@?$__crt_seh_guarded_call@P6AXH@Z@@QEAAP6AXH@Z$$QEAV<lambda_c36588078e9f5dfd39652860aa6b3aaf>@@AEAV<lambda_ec61778202f4f5fc7e7711acc23c3bca>@@$$QEAV<lambda_dc9d2797ccde5d239b4a0efae8ebd7db>@@@Z@4HA 0000000180046f5d f   libucrt:signal.obj
 0001:00045f77       raise$fin$0                0000000180046f77 f   libucrt:signal.obj
 0001:00045f9b       _alloc_osfhnd$fin$0        0000000180046f9b f   libucrt:osfinfo.obj
 0001:00045f9b       __acrt_initialize_lowio$fin$0 0000000180046f9b f   libucrt:ioinit.obj
 0001:00045f9b       __acrt_lowio_ensure_fh_exists$fin$0 0000000180046f9b f   libucrt:osfinfo.obj
 0001:00045fb4       _fcloseall$fin$0           0000000180046fb4 f   libucrt:closeall.obj
 0001:00045fb4       ?fin$0@?0??__acrt_stdio_allocate_stream@@YA?AV__crt_stdio_stream@@XZ@4HA 0000000180046fb4 f   libucrt:stream.obj
 0001:00045fcd       _write$fin$0               0000000180046fcd f   libucrt:write.obj
 0001:00045fcd       ?fin$0@?0???$common_lseek@_J@@YA_JH_JH@Z@4HA 0000000180046fcd f   libucrt:lseek.obj
 0001:00045fcd       _read$fin$0                0000000180046fcd f   libucrt:read.obj
 0001:00045fe4       __acrt_update_thread_multibyte_data$fin$0 0000000180046fe4 f   libucrt:mbctype.obj
 0001:00045ffd       ?fin$0@?0???$?RV<lambda_b521505b218e5242e90febf6bfebc422>@@AEAV<lambda_6978c1fb23f02e42e1d9e99668cc68aa>@@V<lambda_314360699dd331753a4119843814e9a7>@@@?$__crt_seh_guarded_call@H@@QEAAH$$QEAV<lambda_b521505b218e5242e90febf6bfebc422>@@AEAV<lambda_6978c1fb23f02e42e1d9e99668cc68aa>@@$$QEAV<lambda_314360699dd331753a4119843814e9a7>@@@Z@4HA 0000000180046ffd f   libucrt:commit.obj
 0001:00045ffd       ?fin$0@?0???$?RV<lambda_bfedae4ebbf01fab1bb6dcc6a9e276e0>@@AEAV<lambda_2fe9b910cf3cbf4a0ab98a02ba45b3ec>@@V<lambda_237c231691f317818eb88cc1d5d642d6>@@@?$__crt_seh_guarded_call@H@@QEAAH$$QEAV<lambda_bfedae4ebbf01fab1bb6dcc6a9e276e0>@@AEAV<lambda_2fe9b910cf3cbf4a0ab98a02ba45b3ec>@@$$QEAV<lambda_237c231691f317818eb88cc1d5d642d6>@@@Z@4HA 0000000180046ffd f   libucrt:close.obj
 0001:00046017       __acrt_update_thread_locale_data$fin$0 0000000180047017 f   libucrt:locale_refcounting.obj
 0001:00046017       __acrt_uninitialize_locale$fin$0 0000000180047017 f   libucrt:wsetlocale.obj
 0001:00046030       ?fin$0@?0???$common_sopen_dispatch@D@@YAHQEBDHHHQEAHH@Z@4HA 0000000180047030 f   libucrt:open.obj
 0001:00046083       _ctrlfp$filt$0             0000000180047083 f   libucrt:fpctrl.obj
 0001:00046083       common_control87$filt$0    0000000180047083 f   libucrt:ieee.obj
 0001:000460b0       _IsNonwritableInCurrentImage$filt$0 00000001800470b0 f   LIBCMT:pesect.obj
 0001:000460d0       ??__F?oracledbTemplate_s@njsOracledb@@0V?$Persistent@VFunctionTemplate@v8@@V?$NonCopyablePersistentTraits@VFunctionTemplate@v8@@@2@@Nan@@A@@YAXXZ 00000001800470d0 f   njsOracle.obj
 0001:000460f0       ??__F?poolTemplate_s@njsPool@@0V?$Persistent@VFunctionTemplate@v8@@V?$NonCopyablePersistentTraits@VFunctionTemplate@v8@@@2@@Nan@@A@@YAXXZ 00000001800470f0 f   njsPool.obj
 0001:00046110       ??__F?connectionTemplate_s@njsConnection@@0V?$Persistent@VFunctionTemplate@v8@@V?$NonCopyablePersistentTraits@VFunctionTemplate@v8@@@2@@Nan@@A@@YAXXZ 0000000180047110 f   njsConnection.obj
 0001:00046130       ??__F?resultSetTemplate_s@njsResultSet@@0V?$Persistent@VFunctionTemplate@v8@@V?$NonCopyablePersistentTraits@VFunctionTemplate@v8@@@2@@Nan@@A@@YAXXZ 0000000180047130 f   njsResultSet.obj
 0001:00046150       ??__F?iLobTemplate_s@njsILob@@0V?$Persistent@VFunctionTemplate@v8@@V?$NonCopyablePersistentTraits@VFunctionTemplate@v8@@@2@@Nan@@A@@YAXXZ 0000000180047150 f   njsIntLob.obj
 0002:000002e0       ??oracledbTemplate_s$initializer$@njsOracledb@@0P6AXXZEA@@3P6AXXZEA 00000001800482e0     njsOracle.obj
 0002:000002e8       ??poolTemplate_s$initializer$@njsPool@@0P6AXXZEA@@3P6AXXZEA 00000001800482e8     njsPool.obj
 0002:000002f0       ??connectionTemplate_s$initializer$@njsConnection@@0P6AXXZEA@@3P6AXXZEA 00000001800482f0     njsConnection.obj
 0002:000002f8       ??resultSetTemplate_s$initializer$@njsResultSet@@0P6AXXZEA@@3P6AXXZEA 00000001800482f8     njsResultSet.obj
 0002:00000300       ??iLobTemplate_s$initializer$@njsILob@@0P6AXXZEA@@3P6AXXZEA 0000000180048300     njsIntLob.obj
 0002:00000430       GS_ExceptionPointers       0000000180048430     LIBCMT:gs_report.obj
 0002:000004c0       ?ExceptionTemplate@?1??_CxxThrowException@@9@4UEHExceptionRecord@@B 00000001800484c0     libvcruntime:throw.obj
 0002:00000500       ?ExceptionTemplate@?1??_UnwindNestedFrames@@9@4U_EXCEPTION_RECORD@@B 0000000180048500     libvcruntime:trnsctrl.obj
 0002:00000598       ?module_names@?A0x679b24ab@@3QBQEB_WB 0000000180048598     libvcruntime:winapi_downlevel.obj
 0002:00000668       ?candidate_modules@?1??try_get_FlsAlloc@@YAP6AKP6AXPEAX@Z@ZXZ@4QBW4module_id@?A0x679b24ab@@B 0000000180048668     libvcruntime:winapi_downlevel.obj
 0002:00000680       ?candidate_modules@?1??try_get_FlsFree@@YAP6AHK@ZXZ@4QBW4module_id@?A0x679b24ab@@B 0000000180048680     libvcruntime:winapi_downlevel.obj
 0002:00000690       ?candidate_modules@?1??try_get_FlsGetValue@@YAP6APEAXK@ZXZ@4QBW4module_id@?A0x679b24ab@@B 0000000180048690     libvcruntime:winapi_downlevel.obj
 0002:000006a8       ?candidate_modules@?1??try_get_FlsSetValue@@YAP6AHKPEAX@ZXZ@4QBW4module_id@?A0x679b24ab@@B 00000001800486a8     libvcruntime:winapi_downlevel.obj
 0002:000006c0       ?candidate_modules@?1??try_get_InitializeCriticalSectionEx@@YAP6AHPEAU_RTL_CRITICAL_SECTION@@KK@ZXZ@4QBW4module_id@?A0x679b24ab@@B 00000001800486c0     libvcruntime:winapi_downlevel.obj
 0002:000006f0       ?tokenTable@@3QBQEBDB      00000001800486f0     libvcruntime:undname.obj
 0002:00000760       ?nameTable@@3QBQEBDB       0000000180048760     libvcruntime:undname.obj
 0002:000009e8       ?rttiTable@@3QBQEBDB       00000001800489e8     libvcruntime:undname.obj
 0002:000014d0       __acrt_initializers        00000001800494d0     libucrt:initialization.obj
 0002:000015c0       errtable                   00000001800495c0     libucrt:errno.obj
 0002:00001e00       module_names               0000000180049e00     libucrt:winapi_thunks.obj
 0002:00002330       ?candidate_modules@?1??try_get_AreFileApisANSI@@YAP6AHXZXZ@4QBW4module_id@?A0x63058377@@B 000000018004a330     libucrt:winapi_thunks.obj
 0002:00002348       ?candidate_modules@?1??try_get_CompareStringEx@@YAP6AHPEB_WK0H0HPEAU_nlsversioninfo@@PEAX_J@ZXZ@4QBW4module_id@?A0x63058377@@B 000000018004a348     libucrt:winapi_thunks.obj
 0002:00002360       ?candidate_modules@?1??try_get_FlsAlloc@@YAP6AKP6AXPEAX@Z@ZXZ@4QBW4module_id@?A0x63058377@@B 000000018004a360     libucrt:winapi_thunks.obj
 0002:00002368       ?candidate_modules@?1??try_get_FlsFree@@YAP6AHK@ZXZ@4QBW4module_id@?A0x63058377@@B 000000018004a368     libucrt:winapi_thunks.obj
 0002:00002370       ?candidate_modules@?1??try_get_FlsGetValue@@YAP6APEAXK@ZXZ@4QBW4module_id@?A0x63058377@@B 000000018004a370     libucrt:winapi_thunks.obj
 0002:00002378       ?candidate_modules@?1??try_get_FlsSetValue@@YAP6AHKPEAX@ZXZ@4QBW4module_id@?A0x63058377@@B 000000018004a378     libucrt:winapi_thunks.obj
 0002:00002380       ?candidate_modules@?1??try_get_GetActiveWindow@@YAP6APEAUHWND__@@XZXZ@4QBW4module_id@?A0x63058377@@B 000000018004a380     libucrt:winapi_thunks.obj
 0002:00002398       ?candidate_modules@?1??try_get_GetCurrentPackageId@@YAP6AJPEAIPEAE@ZXZ@4QBW4module_id@?A0x63058377@@B 000000018004a398     libucrt:winapi_thunks.obj
 0002:000023b8       ?candidate_modules@?1??try_get_GetLastActivePopup@@YAP6APEAUHWND__@@PEAU2@@ZXZ@4QBW4module_id@?A0x63058377@@B 000000018004a3b8     libucrt:winapi_thunks.obj
 0002:000023d8       ?candidate_modules@?1??try_get_GetProcessWindowStation@@YAP6APEAUHWINSTA__@@XZXZ@4QBW4module_id@?A0x63058377@@B 000000018004a3d8     libucrt:winapi_thunks.obj
 0002:000023f8       ?candidate_modules@?1??try_get_GetSystemTimePreciseAsFileTime@@YAP6AXPEAU_FILETIME@@@ZXZ@4QBW4module_id@?A0x63058377@@B 000000018004a3f8     libucrt:winapi_thunks.obj
 0002:00002420       ?candidate_modules@?1??try_get_GetUserObjectInformationW@@YAP6AHPEAXH0KPEAK@ZXZ@4QBW4module_id@?A0x63058377@@B 000000018004a420     libucrt:winapi_thunks.obj
 0002:00002448       ?candidate_modules@?1??try_get_InitializeCriticalSectionEx@@YAP6AHPEAU_RTL_CRITICAL_SECTION@@KK@ZXZ@4QBW4module_id@?A0x63058377@@B 000000018004a448     libucrt:winapi_thunks.obj
 0002:00002450       ?candidate_modules@?1??try_get_LCMapStringEx@@YAP6AHPEB_WK0HPEA_WHPEAU_nlsversioninfo@@PEAX_J@ZXZ@4QBW4module_id@?A0x63058377@@B 000000018004a450     libucrt:winapi_thunks.obj
 0002:00002468       ?candidate_modules@?1??try_get_LocaleNameToLCID@@YAP6AKPEB_WK@ZXZ@4QBW4module_id@?A0x63058377@@B 000000018004a468     libucrt:winapi_thunks.obj
 0002:00002488       ?candidate_modules@?1??try_get_MessageBoxA@@YAP6AHPEAUHWND__@@PEBD1I@ZXZ@4QBW4module_id@?A0x63058377@@B 000000018004a488     libucrt:winapi_thunks.obj
 0002:000024a0       ?candidate_modules@?1??try_get_MessageBoxW@@YAP6AHPEAUHWND__@@PEB_W1I@ZXZ@4QBW4module_id@?A0x63058377@@B 000000018004a4a0     libucrt:winapi_thunks.obj
 0002:00002ce0       _mb_locale_names           000000018004ace0     libucrt:mbctype.obj
 0002:00003740       LcidToLocaleNameTable      000000018004b740     libucrt:lcidtoname_downlevel.obj
 0002:000051a0       LocaleNameToIndexTable     000000018004d1a0     libucrt:lcidtoname_downlevel.obj
 0002:00006a40       __real_ninf                000000018004ea40     libucrt:log10.obj
 0002:00006a50       __real_inf                 000000018004ea50     libucrt:log10.obj
 0002:00006a60       __real_neg_qnan            000000018004ea60     libucrt:log10.obj
 0002:00006a70       __real_qnanbit             000000018004ea70     libucrt:log10.obj
 0002:00006a80       __int_1023                 000000018004ea80     libucrt:log10.obj
 0002:00006a90       __mask_001                 000000018004ea90     libucrt:log10.obj
 0002:00006aa0       __mask_mant                000000018004eaa0     libucrt:log10.obj
 0002:00006ab0       __mask_mant_top8           000000018004eab0     libucrt:log10.obj
 0002:00006ac0       __mask_mant9               000000018004eac0     libucrt:log10.obj
 0002:00006ad0       __real_log10_e             000000018004ead0     libucrt:log10.obj
 0002:00006ae0       __real_log10_e_lead        000000018004eae0     libucrt:log10.obj
 0002:00006af0       __real_log10_e_tail        000000018004eaf0     libucrt:log10.obj
 0002:00006b00       __real_log10_2_lead        000000018004eb00     libucrt:log10.obj
 0002:00006b10       __real_log10_2_tail        000000018004eb10     libucrt:log10.obj
 0002:00006b20       __real_two                 000000018004eb20     libucrt:log10.obj
 0002:00006b30       __real_one                 000000018004eb30     libucrt:log10.obj
 0002:00006b40       __real_half                000000018004eb40     libucrt:log10.obj
 0002:00006b50       __mask_100                 000000018004eb50     libucrt:log10.obj
 0002:00006b60       __real_1_over_512          000000018004eb60     libucrt:log10.obj
 0002:00006b70       __real_1_over_2            000000018004eb70     libucrt:log10.obj
 0002:00006b80       __real_1_over_3            000000018004eb80     libucrt:log10.obj
 0002:00006b90       __real_1_over_4            000000018004eb90     libucrt:log10.obj
 0002:00006ba0       __real_1_over_5            000000018004eba0     libucrt:log10.obj
 0002:00006bb0       __real_1_over_6            000000018004ebb0     libucrt:log10.obj
 0002:00006bc0       __real_neg_1023            000000018004ebc0     libucrt:log10.obj
 0002:00006bd0       __mask_2045                000000018004ebd0     libucrt:log10.obj
 0002:00006be0       __real_threshold           000000018004ebe0     libucrt:log10.obj
 0002:00006bf0       __real_near_one_lt         000000018004ebf0     libucrt:log10.obj
 0002:00006c00       __real_near_one_gt         000000018004ec00     libucrt:log10.obj
 0002:00006c10       __real_min_norm            000000018004ec10     libucrt:log10.obj
 0002:00006c20       __real_notsign             000000018004ec20     libucrt:log10.obj
 0002:00006c30       __real_ca1                 000000018004ec30     libucrt:log10.obj
 0002:00006c40       __real_ca2                 000000018004ec40     libucrt:log10.obj
 0002:00006c50       __real_ca3                 000000018004ec50     libucrt:log10.obj
 0002:00006c60       __real_ca4                 000000018004ec60     libucrt:log10.obj
 0002:00006c70       __mask_lower               000000018004ec70     libucrt:log10.obj
 0002:00006c80       __flag_x_zero              000000018004ec80     libucrt:log10.obj
 0002:00006c84       __flag_x_neg               000000018004ec84     libucrt:log10.obj
 0002:00006c88       __flag_x_nan               000000018004ec88     libucrt:log10.obj
 0002:00006c90       __real@433fffffffffffff    000000018004ec90     libucrt:fpsr.obj
 0002:00006c98       __real@c33fffffffffffff    000000018004ec98     libucrt:fpsr.obj
 0002:00009c30       ?errMsg@@3PAPEBDA          0000000180051c30     njsMessages.obj
 0002:00009de0       dpiMinorVersion            0000000180051de0     dpiContext.obj
 0002:00009de4       dpiMajorVersion            0000000180051de4     dpiContext.obj
 0002:00009df0       dpiErrorMessages           0000000180051df0     dpiError.obj
 0002:00009fd0       dpiAllTypeDefs             0000000180051fd0     dpiGen.obj
 0002:0000a190       dpiOciLibNames             0000000180052190     dpiOci.obj
 0002:0000a1a0       dpiAllOracleTypes          00000001800521a0     dpiOracleType.obj
 0002:0000dc18       $cppxdata$??$New@VString@v8@@V?$basic_string@DU?$char_traits@D@std@@V?$allocator@D@2@@std@@@Nan@@YA?AV?$MaybeLocal@VString@v8@@@v8@@V?$basic_string@DU?$char_traits@D@std@@V?$allocator@D@2@@std@@@Z 0000000180055c18     njsCommon.obj
 0002:0000dc40       $cppxdata$?PropertyIsReadOnly@njsCommon@@KAXPEBD@Z 0000000180055c40     njsCommon.obj
 0002:0000dc68       $cppxdata$?ValidateArgs@njsCommon@@KAPEAV1@AEBV?$FunctionCallbackInfo@VValue@v8@@@Nan@@HH@Z 0000000180055c68     njsCommon.obj
 0002:0000dc90       $cppxdata$?Validate@njsCommon@@KA_NPEAV1@_N@Z 0000000180055c90     njsCommon.obj
 0002:0000dcb8       $cppxdata$?SetPropUnsignedInt@njsCommon@@IEAA_NV?$Local@VValue@v8@@@v8@@PEAIPEBD@Z 0000000180055cb8     njsCommon.obj
 0002:0000dce0       $cppxdata$?SetPropString@njsCommon@@IEAA_NV?$Local@VValue@v8@@@v8@@PEAV?$basic_string@DU?$char_traits@D@std@@V?$allocator@D@2@@std@@PEBD@Z 0000000180055ce0     njsCommon.obj
 0002:0000dd08       $cppxdata$?SetPropPositiveInt@njsCommon@@IEAA_NV?$Local@VValue@v8@@@v8@@PEAIPEBD@Z 0000000180055d08     njsCommon.obj
 0002:0000dd30       $cppxdata$?SetPropInt@njsCommon@@IEAA_NV?$Local@VValue@v8@@@v8@@PEAHPEBD@Z 0000000180055d30     njsCommon.obj
 0002:0000dd58       $cppxdata$?SetPropBool@njsCommon@@IEAA_NV?$Local@VValue@v8@@@v8@@PEA_NPEBD@Z 0000000180055d58     njsCommon.obj
 0002:0000dd80       $cppxdata$?GetUnsignedIntArg@njsCommon@@IEAA_NAEBV?$FunctionCallbackInfo@VValue@v8@@@Nan@@HPEAI@Z 0000000180055d80     njsCommon.obj
 0002:0000dda8       $cppxdata$?GetStringArg@njsCommon@@IEAA_NAEBV?$FunctionCallbackInfo@VValue@v8@@@Nan@@HAEAV?$basic_string@DU?$char_traits@D@std@@V?$allocator@D@2@@std@@@Z 0000000180055da8     njsCommon.obj
 0002:0000ddd0       $cppxdata$?GetObjectArg@njsCommon@@IEAA_NAEBV?$FunctionCallbackInfo@VValue@v8@@@Nan@@HAEAV?$Local@VObject@v8@@@v8@@@Z 0000000180055dd0     njsCommon.obj
 0002:0000ddf8       $cppxdata$?CreateBaton@njsCommon@@IEAAPEAVnjsBaton@@AEBV?$FunctionCallbackInfo@VValue@v8@@@Nan@@@Z 0000000180055df8     njsCommon.obj
 0002:0000de20       $cppxdata$?QueueWork@njsBaton@@QEAAXPEBDP6AXPEAV1@@ZP6AX1QEAV?$Local@VValue@v8@@@v8@@@ZI@Z 0000000180055e20     njsCommon.obj
 0002:0000de48       $cppxdata$?GetUnsignedIntFromJSON@njsBaton@@QEAA_NV?$Local@VObject@v8@@@v8@@PEBDHPEAI@Z 0000000180055e48     njsCommon.obj
 0002:0000de70       $cppxdata$?GetStringFromJSON@njsBaton@@QEAA_NV?$Local@VObject@v8@@@v8@@PEBDHAEAV?$basic_string@DU?$char_traits@D@std@@V?$allocator@D@2@@std@@@Z 0000000180055e70     njsCommon.obj
 0002:0000de98       $cppxdata$?GetPositiveIntFromJSON@njsBaton@@QEAA_NV?$Local@VObject@v8@@@v8@@PEBDHPEAI@Z 0000000180055e98     njsCommon.obj
 0002:0000dec0       $cppxdata$?GetIntFromJSON@njsBaton@@QEAA_NV?$Local@VObject@v8@@@v8@@PEBDHPEAH@Z 0000000180055ec0     njsCommon.obj
 0002:0000dee8       $cppxdata$?GetBoolFromJSON@njsBaton@@QEAA_NV?$Local@VObject@v8@@@v8@@PEBDHPEA_N@Z 0000000180055ee8     njsCommon.obj
 0002:0000df10       $cppxdata$?GetDPIError@njsBaton@@QEAAXXZ 0000000180055f10     njsCommon.obj
 0002:0000df38       $cppxdata$?AsyncAfterWorkCallback@njsBaton@@CAXPEAUuv_work_s@@H@Z 0000000180055f38     njsCommon.obj
 0002:0000df60       $cppxdata$?GetOracledb@njsBaton@@QEAAPEAVnjsOracledb@@XZ 0000000180055f60     njsCommon.obj
 0002:0000df88       $cppxdata$?ClearAsyncData@njsBaton@@QEAAXXZ 0000000180055f88     njsCommon.obj
 0002:0000dfb0       $cppxdata$?CheckJSException@njsBaton@@QEAAXPEAVTryCatch@Nan@@@Z 0000000180055fb0     njsCommon.obj
 0002:0000dfd8       $cppxdata$??1njsBaton@@QEAA@XZ 0000000180055fd8     njsCommon.obj
 0002:0000e000       $cppxdata$??1njsVariable@@QEAA@XZ 0000000180056000     njsCommon.obj
 0002:0000e028       $cppxdata$??1njsVariableBuffer@@QEAA@XZ 0000000180056028     njsCommon.obj
 0002:0000e050       $cppxdata$??1njsProtoILob@@QEAA@XZ 0000000180056050     njsCommon.obj
 0002:0000e078       $cppxdata$??0njsBaton@@QEAA@V?$Local@VFunction@v8@@@v8@@V?$Local@VObject@v8@@@2@@Z 0000000180056078     njsCommon.obj
 0002:0000e0a0       $cppxdata$??1?$Persistent@VArray@v8@@V?$NonCopyablePersistentTraits@VArray@v8@@@2@@Nan@@QEAA@XZ 00000001800560a0     njsOracle.obj
 0002:0000e0a0       $cppxdata$??1?$Persistent@VFunction@v8@@V?$NonCopyablePersistentTraits@VFunction@v8@@@2@@Nan@@QEAA@XZ 00000001800560a0     njsCommon.obj
 0002:0000e0a0       $cppxdata$??1?$Persistent@VObject@v8@@V?$NonCopyablePersistentTraits@VObject@v8@@@2@@Nan@@QEAA@XZ 00000001800560a0     njsCommon.obj
 0002:0000e0c8       $cppxdata$?ThrowError@Nan@@YAXPEBD@Z 00000001800560c8     njsCommon.obj
 0002:0000e0f0       $cppxdata$?convert@?$ToFactory@H@imp@Nan@@SA?AV?$Maybe@H@v8@@V?$Local@VValue@v8@@@5@@Z 00000001800560f0     njsCommon.obj
 0002:0000e118       $cppxdata$?convert@?$ToFactory@I@imp@Nan@@SA?AV?$Maybe@I@v8@@V?$Local@VValue@v8@@@5@@Z 0000000180056118     njsCommon.obj
 0002:0000e140       $cppxdata$?Get@Nan@@YA?AV?$MaybeLocal@VValue@v8@@@v8@@V?$Local@VObject@v8@@@3@V?$Local@VValue@v8@@@3@@Z 0000000180056140     njsCommon.obj
 0002:0000e168       $cppxdata$?Set@Nan@@YA?AV?$Maybe@_N@v8@@V?$Local@VObject@v8@@@3@V?$Local@VValue@v8@@@3@1@Z 0000000180056168     njsCommon.obj
 0002:0000e1e0       $cppxdata$?ThrowDPIError@njsOracledb@@SAXXZ 00000001800561e0     njsOracle.obj
 0002:0000e208       $cppxdata$?SetFetchAsBufferTypesOnBaton@njsOracledb@@QEBAXPEAVnjsBaton@@@Z 0000000180056208     njsOracle.obj
 0002:0000e230       $cppxdata$?SetFetchAsStringTypesOnBaton@njsOracledb@@QEBAXPEAVnjsBaton@@@Z 0000000180056230     njsOracle.obj
 0002:0000e258       $cppxdata$?SetFetchAsBuffer@njsOracledb@@CAXV?$Local@VString@v8@@@v8@@V?$Local@VValue@v8@@@3@AEBV?$PropertyCallbackInfo@X@Nan@@@Z 0000000180056258     njsOracle.obj
 0002:0000e280       $cppxdata$?SetFetchAsString@njsOracledb@@CAXV?$Local@VString@v8@@@v8@@V?$Local@VValue@v8@@@3@AEBV?$PropertyCallbackInfo@X@Nan@@@Z 0000000180056280     njsOracle.obj
 0002:0000e2a8       $cppxdata$?New@njsOracledb@@CAXAEBV?$FunctionCallbackInfo@VValue@v8@@@Nan@@@Z 00000001800562a8     njsOracle.obj
 0002:0000e2d0       $cppxdata$?Init@njsOracledb@@SAXV?$Local@VObject@v8@@@v8@@@Z 00000001800562d0     njsOracle.obj
 0002:0000e2f8       $cppxdata$??0njsOracledb@@AEAA@XZ 00000001800562f8     njsOracle.obj
 0002:0000e320       $cppxdata$??__F?oracledbTemplate_s@njsOracledb@@0V?$Persistent@VFunctionTemplate@v8@@V?$NonCopyablePersistentTraits@VFunctionTemplate@v8@@@2@@Nan@@A@@YAXXZ 0000000180056320     njsOracle.obj
 0002:0000e348       $cppxdata$??1njsOracledb@@EEAA@XZ 0000000180056348     njsOracle.obj
 0002:0000e370       $cppxdata$??1ObjectWrap@Nan@@UEAA@XZ 0000000180056370     njsOracle.obj
 0002:0000e398       $cppxdata$?SetAccessor@Nan@@YAXV?$Local@VObjectTemplate@v8@@@v8@@V?$Local@VString@v8@@@3@P6AX1AEBV?$PropertyCallbackInfo@VValue@v8@@@1@@ZP6AX1V?$Local@VValue@v8@@@3@AEBV?$PropertyCallbackInfo@X@1@@Z4W4AccessControl@3@W4PropertyAttribute@3@V?$Local@VAccessorSignature@v8@@@3@@Z 0000000180056398     njsOracle.obj
 0002:0000e3c0       $cppxdata$?SetPrototypeMethod@Nan@@YAXV?$Local@VFunctionTemplate@v8@@@v8@@PEBDP6AXAEBV?$FunctionCallbackInfo@VValue@v8@@@1@@Z@Z 00000001800563c0     njsOracle.obj
 0002:0000e3e8       $cppxdata$?Error@Nan@@YA?AV?$Local@VValue@v8@@@v8@@PEBD@Z 00000001800563e8     njsOracle.obj
 0002:0000e410       $cppxdata$?New@?$Factory@VFunctionTemplate@v8@@@imp@Nan@@SA?AV?$Local@VFunctionTemplate@v8@@@v8@@P6AXAEBV?$FunctionCallbackInfo@VValue@v8@@@3@@ZV?$Local@VValue@v8@@@5@V?$Local@VSignature@v8@@@5@@Z 0000000180056410     njsOracle.obj
 0002:0000e438       $cppxdata$?Get@Nan@@YA?AV?$MaybeLocal@VValue@v8@@@v8@@V?$Local@VObject@v8@@@3@I@Z 0000000180056438     njsOracle.obj
 0002:0000e460       $cppxdata$?NewInstance@Nan@@YA?AV?$MaybeLocal@VObject@v8@@@v8@@V?$Local@VObjectTemplate@v8@@@3@@Z 0000000180056460     njsOracle.obj
 0002:0000e488       $cppxdata$??__F?poolTemplate_s@njsPool@@0V?$Persistent@VFunctionTemplate@v8@@V?$NonCopyablePersistentTraits@VFunctionTemplate@v8@@@2@@Nan@@A@@YAXXZ 0000000180056488     njsPool.obj
 0002:0000e4b0       $cppxdata$??_GnjsPool@@EEAAPEAXI@Z 00000001800564b0     njsPool.obj
 0002:0000e4d8       $cppxdata$?GetFunction@Nan@@YA?AV?$MaybeLocal@VFunction@v8@@@v8@@V?$Local@VFunctionTemplate@v8@@@3@@Z 00000001800564d8     njsPool.obj
 0002:0000e500       $cppxdata$?NewInstance@Nan@@YA?AV?$MaybeLocal@VObject@v8@@@v8@@V?$Local@VFunction@v8@@@3@@Z 0000000180056500     njsPool.obj
 0002:0000e528       $cppxdata$?CreateFromBaton@njsPool@@SA?AV?$Local@VObject@v8@@@v8@@PEAVnjsBaton@@@Z 0000000180056528     njsPool.obj
 0002:0000e550       $cppxdata$?Init@njsPool@@SAXV?$Local@VObject@v8@@@v8@@@Z 0000000180056550     njsPool.obj
 0002:0000e578       $cppxdata$??$?HDU?$char_traits@D@std@@V?$allocator@D@1@@std@@YA?AV?$basic_string@DU?$char_traits@D@std@@V?$allocator@D@2@@0@PEBDAEBV10@@Z 0000000180056578     njsConnection.obj
 0002:0000e5a0       $cppxdata$?ChangePassword@njsConnection@@CAXAEBV?$FunctionCallbackInfo@VValue@v8@@@Nan@@@Z 00000001800565a0     njsConnection.obj
 0002:0000e5c8       $cppxdata$?Async_AfterCreateLob@njsConnection@@CAXPEAVnjsBaton@@QEAV?$Local@VValue@v8@@@v8@@@Z 00000001800565c8     njsConnection.obj
 0002:0000e5f0       $cppxdata$?CreateLob@njsConnection@@CAXAEBV?$FunctionCallbackInfo@VValue@v8@@@Nan@@@Z 00000001800565f0     njsConnection.obj
 0002:0000e618       $cppxdata$?Async_AfterGetStatementInfo@njsConnection@@CAXPEAVnjsBaton@@QEAV?$Local@VValue@v8@@@v8@@@Z 0000000180056618     njsConnection.obj
 0002:0000e640       $cppxdata$?Async_GetStatementInfo@njsConnection@@CAXPEAVnjsBaton@@@Z 0000000180056640     njsConnection.obj
 0002:0000e668       $cppxdata$?GetStatementInfo@njsConnection@@CAXAEBV?$FunctionCallbackInfo@VValue@v8@@@Nan@@@Z 0000000180056668     njsConnection.obj
 0002:0000e690       $cppxdata$?Async_AfterExecuteMany@njsConnection@@CAXPEAVnjsBaton@@QEAV?$Local@VValue@v8@@@v8@@@Z 0000000180056690     njsConnection.obj
 0002:0000e6b8       $cppxdata$?ExecuteMany@njsConnection@@CAXAEBV?$FunctionCallbackInfo@VValue@v8@@@Nan@@@Z 00000001800566b8     njsConnection.obj
 0002:0000e6e0       $cppxdata$?Async_AfterExecute@njsConnection@@CAXPEAVnjsBaton@@QEAV?$Local@VValue@v8@@@v8@@@Z 00000001800566e0     njsConnection.obj
 0002:0000e708       $cppxdata$?Async_Execute@njsConnection@@CAXPEAVnjsBaton@@@Z 0000000180056708     njsConnection.obj
 0002:0000e730       $cppxdata$?Execute@njsConnection@@CAXAEBV?$FunctionCallbackInfo@VValue@v8@@@Nan@@@Z 0000000180056730     njsConnection.obj
 0002:0000e758       $cppxdata$?SetTextAttribute@njsConnection@@CAXAEBV?$PropertyCallbackInfo@X@Nan@@PEBDV?$Local@VValue@v8@@@v8@@P6AHPEAUdpiConn@@1I@Z@Z 0000000180056758     njsConnection.obj
 0002:0000e780       $cppxdata$?GetOutBinds@njsConnection@@CA_NAEAV?$Local@VValue@v8@@@v8@@IIPEAVnjsBaton@@@Z 0000000180056780     njsConnection.obj
 0002:0000e7a8       $cppxdata$?GetExecuteManyOutBinds@njsConnection@@CA_NAEAV?$Local@VValue@v8@@@v8@@IPEAVnjsBaton@@@Z 00000001800567a8     njsConnection.obj
 0002:0000e7d0       $cppxdata$?GetArrayValueFromVar@njsConnection@@CA_NPEAVnjsBaton@@PEAVnjsVariable@@IAEAV?$Local@VValue@v8@@@v8@@@Z 00000001800567d0     njsConnection.obj
 0002:0000e7f8       $cppxdata$?GetScalarValueFromVar@njsConnection@@SA_NPEAVnjsBaton@@PEAVnjsVariable@@PEAVnjsVariableBuffer@@IAEAV?$Local@VValue@v8@@@v8@@@Z 00000001800567f8     njsConnection.obj
 0002:0000e820       $cppxdata$?ProcessExecuteOptions@njsConnection@@CA_NV?$Local@VObject@v8@@@v8@@PEAVnjsBaton@@@Z 0000000180056820     njsConnection.obj
 0002:0000e848       $cppxdata$?GetBindTypeAndSizeFromValue@njsConnection@@CA_NPEAVnjsVariable@@V?$Local@VValue@v8@@@v8@@PEAW4njsDataType@@PEAIPEAVnjsBaton@@_N@Z 0000000180056848     njsConnection.obj
 0002:0000e870       $cppxdata$?ProcessScalarBindValue@njsConnection@@CA_NV?$Local@VValue@v8@@@v8@@PEAVnjsVariable@@I_NPEAVnjsBaton@@@Z 0000000180056870     njsConnection.obj
 0002:0000e898       $cppxdata$?ProcessBindValue@njsConnection@@CA_NV?$Local@VValue@v8@@@v8@@PEAVnjsVariable@@PEAVnjsBaton@@@Z 0000000180056898     njsConnection.obj
 0002:0000e8c0       $cppxdata$?InitBindVars@njsConnection@@CA_NV?$Local@VObject@v8@@@v8@@V?$Local@VArray@v8@@@3@PEAVnjsBaton@@@Z 00000001800568c0     njsConnection.obj
 0002:0000e8e8       $cppxdata$?TransferExecuteManyBinds@njsConnection@@CA_NV?$Local@VArray@v8@@@v8@@0PEAVnjsBaton@@@Z 00000001800568e8     njsConnection.obj
 0002:0000e910       $cppxdata$?ScanExecuteManyBinds@njsConnection@@CA_NV?$Local@VArray@v8@@@v8@@0PEAVnjsBaton@@@Z 0000000180056910     njsConnection.obj
 0002:0000e938       $cppxdata$?ProcessExecuteManyBinds@njsConnection@@CA_NV?$Local@VArray@v8@@@v8@@V?$Local@VObject@v8@@@3@PEAVnjsBaton@@@Z 0000000180056938     njsConnection.obj
 0002:0000e960       $cppxdata$?ScanExecuteBindUnit@njsConnection@@CA_NV?$Local@VObject@v8@@@v8@@PEAVnjsVariable@@_NPEAVnjsBaton@@@Z 0000000180056960     njsConnection.obj
 0002:0000e988       $cppxdata$?ScanExecuteBinds@njsConnection@@CA_NV?$Local@VObject@v8@@@v8@@V?$Local@VArray@v8@@@3@PEAVnjsBaton@@@Z 0000000180056988     njsConnection.obj
 0002:0000e9b0       $cppxdata$?ProcessExecuteBinds@njsConnection@@CA_NV?$Local@VObject@v8@@@v8@@PEAVnjsBaton@@@Z 00000001800569b0     njsConnection.obj
 0002:0000e9d8       $cppxdata$?CreateVarBuffer@njsConnection@@CA_NPEAVnjsVariable@@PEAVnjsBaton@@@Z 00000001800569d8     njsConnection.obj
 0002:0000ea00       $cppxdata$?GetMetaData@njsConnection@@SA?AV?$Local@VValue@v8@@@v8@@PEAVnjsVariable@@I_N@Z 0000000180056a00     njsConnection.obj
 0002:0000ea28       $cppxdata$?PrepareAndBind@njsConnection@@CA_NPEAVnjsBaton@@@Z 0000000180056a28     njsConnection.obj
 0002:0000ea50       $cppxdata$?ProcessVarBuffer@njsConnection@@CA_NPEAVnjsBaton@@PEAVnjsVariable@@PEAVnjsVariableBuffer@@@Z 0000000180056a50     njsConnection.obj
 0002:0000ea78       $cppxdata$?ProcessVars@njsConnection@@SA_NPEAVnjsBaton@@PEAVnjsVariable@@II@Z 0000000180056a78     njsConnection.obj
 0002:0000eaa0       $cppxdata$?ProcessQueryVars@njsConnection@@SA_NPEAVnjsBaton@@PEAUdpiStmt@@PEAVnjsVariable@@I@Z 0000000180056aa0     njsConnection.obj
 0002:0000eac8       $cppxdata$??__F?connectionTemplate_s@njsConnection@@0V?$Persistent@VFunctionTemplate@v8@@V?$NonCopyablePersistentTraits@VFunctionTemplate@v8@@@2@@Nan@@A@@YAXXZ 0000000180056ac8     njsConnection.obj
 0002:0000eaf0       $cppxdata$??_GnjsConnection@@EEAAPEAXI@Z 0000000180056af0     njsConnection.obj
 0002:0000eb18       $cppxdata$?New@?$Factory@VDate@v8@@@imp@Nan@@SA?AV?$MaybeLocal@VDate@v8@@@v8@@N@Z 0000000180056b18     njsConnection.obj
 0002:0000eb40       $cppxdata$?convert@?$ToFactory@VInt32@v8@@@imp@Nan@@SA?AV?$MaybeLocal@VInt32@v8@@@v8@@V?$Local@VValue@v8@@@5@@Z 0000000180056b40     njsConnection.obj
 0002:0000eb68       $cppxdata$?convert@?$ToFactory@VInteger@v8@@@imp@Nan@@SA?AV?$MaybeLocal@VInteger@v8@@@v8@@V?$Local@VValue@v8@@@5@@Z 0000000180056b68     njsConnection.obj
 0002:0000eb90       $cppxdata$?DefineOwnProperty@Nan@@YA?AV?$Maybe@_N@v8@@V?$Local@VObject@v8@@@3@V?$Local@VString@v8@@@3@V?$Local@VValue@v8@@@3@W4PropertyAttribute@3@@Z 0000000180056b90     njsConnection.obj
 0002:0000ebb8       $cppxdata$?Set@Nan@@YA?AV?$Maybe@_N@v8@@V?$Local@VObject@v8@@@3@IV?$Local@VValue@v8@@@3@@Z 0000000180056bb8     njsConnection.obj
 0002:0000ebe0       $cppxdata$?Init@njsConnection@@SAXV?$Local@VObject@v8@@@v8@@@Z 0000000180056be0     njsConnection.obj
 0002:0000ec08       $cppxdata$?CreateFromBaton@njsConnection@@SA?AV?$Local@VObject@v8@@@v8@@PEAVnjsBaton@@@Z 0000000180056c08     njsConnection.obj
 0002:0000ec30       $cppxdata$?Close@njsResultSet@@CAXAEBV?$FunctionCallbackInfo@VValue@v8@@@Nan@@@Z 0000000180056c30     njsResultSet.obj
 0002:0000ec58       $cppxdata$?Async_AfterGetRows@njsResultSet@@CAXPEAVnjsBaton@@QEAV?$Local@VValue@v8@@@v8@@@Z 0000000180056c58     njsResultSet.obj
 0002:0000ec80       $cppxdata$?GetRows@njsResultSet@@CAXAEBV?$FunctionCallbackInfo@VValue@v8@@@Nan@@@Z 0000000180056c80     njsResultSet.obj
 0002:0000eca8       $cppxdata$?IsValid@njsResultSet@@UEBA_NXZ 0000000180056ca8     njsResultSet.obj
 0002:0000ecd0       $cppxdata$??1njsResultSet@@EEAA@XZ 0000000180056cd0     njsResultSet.obj
 0002:0000ecf8       $cppxdata$??__F?resultSetTemplate_s@njsResultSet@@0V?$Persistent@VFunctionTemplate@v8@@V?$NonCopyablePersistentTraits@VFunctionTemplate@v8@@@2@@Nan@@A@@YAXXZ 0000000180056cf8     njsResultSet.obj
 0002:0000ed20       $cppxdata$?CreateFromRefCursor@njsResultSet@@SA_NPEAVnjsBaton@@PEAUdpiStmt@@PEAVnjsVariable@@IAEAV?$Local@VValue@v8@@@v8@@@Z 0000000180056d20     njsResultSet.obj
 0002:0000ed48       $cppxdata$?CreateFromBaton@njsResultSet@@SA?AV?$Local@VObject@v8@@@v8@@PEAVnjsBaton@@@Z 0000000180056d48     njsResultSet.obj
 0002:0000ed70       $cppxdata$?Init@njsResultSet@@SAXV?$Local@VObject@v8@@@v8@@@Z 0000000180056d70     njsResultSet.obj
 0002:0000ed98       $cppxdata$?Get@njsMessages@@SA?AV?$basic_string@DU?$char_traits@D@std@@V?$allocator@D@2@@std@@HZZ 0000000180056d98     njsMessages.obj
 0002:0000edc0       $cppxdata$?Write@njsILob@@CAXAEBV?$FunctionCallbackInfo@VValue@v8@@@Nan@@@Z 0000000180056dc0     njsIntLob.obj
 0002:0000ede8       $cppxdata$?Async_AfterRead@njsILob@@CAXPEAVnjsBaton@@QEAV?$Local@VValue@v8@@@v8@@@Z 0000000180056de8     njsIntLob.obj
 0002:0000ee10       $cppxdata$?Close@njsILob@@CAXAEBV?$FunctionCallbackInfo@VValue@v8@@@Nan@@@Z 0000000180056e10     njsIntLob.obj
 0002:0000ee38       $cppxdata$?Read@njsILob@@CAXAEBV?$FunctionCallbackInfo@VValue@v8@@@Nan@@@Z 0000000180056e38     njsIntLob.obj
 0002:0000ee60       $cppxdata$?GetIsValid@njsILob@@CAXV?$Local@VString@v8@@@v8@@AEBV?$PropertyCallbackInfo@VValue@v8@@@Nan@@@Z 0000000180056e60     njsIntLob.obj
 0002:0000ee88       $cppxdata$??__F?iLobTemplate_s@njsILob@@0V?$Persistent@VFunctionTemplate@v8@@V?$NonCopyablePersistentTraits@VFunctionTemplate@v8@@@2@@Nan@@A@@YAXXZ 0000000180056e88     njsIntLob.obj
 0002:0000eeb0       $cppxdata$??_GnjsILob@@EEAAPEAXI@Z 0000000180056eb0     njsIntLob.obj
 0002:0000eed8       $cppxdata$?GetInstance@njsILob@@SAPEAV1@V?$Local@VValue@v8@@@v8@@@Z 0000000180056ed8     njsIntLob.obj
 0002:0000ef00       $cppxdata$?CreateFromProtoLob@njsILob@@SA?AV?$Local@VObject@v8@@@v8@@PEAVnjsProtoILob@@@Z 0000000180056f00     njsIntLob.obj
 0002:0000ef28       $cppxdata$?Init@njsILob@@SAXV?$Local@VObject@v8@@@v8@@@Z 0000000180056f28     njsIntLob.obj
 0002:0000f800       $unwind$?Set@Nan@@YA?AV?$Maybe@_N@v8@@V?$Local@VObject@v8@@@3@V?$Local@VValue@v8@@@3@1@Z 0000000180057800     njsCommon.obj
 0002:0000f814       $stateUnwindMap$?Set@Nan@@YA?AV?$Maybe@_N@v8@@V?$Local@VObject@v8@@@3@V?$Local@VValue@v8@@@3@1@Z 0000000180057814     njsCommon.obj
 0002:0000f814       $stateUnwindMap$?Set@Nan@@YA?AV?$Maybe@_N@v8@@V?$Local@VObject@v8@@@3@IV?$Local@VValue@v8@@@3@@Z 0000000180057814     njsConnection.obj
 0002:0000f814       $stateUnwindMap$?DefineOwnProperty@Nan@@YA?AV?$Maybe@_N@v8@@V?$Local@VObject@v8@@@3@V?$Local@VString@v8@@@3@V?$Local@VValue@v8@@@3@W4PropertyAttribute@3@@Z 0000000180057814     njsConnection.obj
 0002:0000f820       $ip2state$?Set@Nan@@YA?AV?$Maybe@_N@v8@@V?$Local@VObject@v8@@@3@V?$Local@VValue@v8@@@3@1@Z 0000000180057820     njsCommon.obj
 0002:0000f838       $unwind$?Get@Nan@@YA?AV?$MaybeLocal@VValue@v8@@@v8@@V?$Local@VObject@v8@@@3@V?$Local@VValue@v8@@@3@@Z 0000000180057838     njsCommon.obj
 0002:0000f84c       $stateUnwindMap$?Get@Nan@@YA?AV?$MaybeLocal@VValue@v8@@@v8@@V?$Local@VObject@v8@@@3@I@Z 000000018005784c     njsOracle.obj
 0002:0000f84c       $stateUnwindMap$?Get@Nan@@YA?AV?$MaybeLocal@VValue@v8@@@v8@@V?$Local@VObject@v8@@@3@V?$Local@VValue@v8@@@3@@Z 000000018005784c     njsCommon.obj
 0002:0000f84c       $stateUnwindMap$?NewInstance@Nan@@YA?AV?$MaybeLocal@VObject@v8@@@v8@@V?$Local@VFunction@v8@@@3@@Z 000000018005784c     njsPool.obj
 0002:0000f84c       $stateUnwindMap$?New@?$Factory@VDate@v8@@@imp@Nan@@SA?AV?$MaybeLocal@VDate@v8@@@v8@@N@Z 000000018005784c     njsConnection.obj
 0002:0000f84c       $stateUnwindMap$?convert@?$ToFactory@VInt32@v8@@@imp@Nan@@SA?AV?$MaybeLocal@VInt32@v8@@@v8@@V?$Local@VValue@v8@@@5@@Z 000000018005784c     njsConnection.obj
 0002:0000f84c       $stateUnwindMap$?NewInstance@Nan@@YA?AV?$MaybeLocal@VObject@v8@@@v8@@V?$Local@VObjectTemplate@v8@@@3@@Z 000000018005784c     njsOracle.obj
 0002:0000f84c       $stateUnwindMap$?convert@?$ToFactory@VInteger@v8@@@imp@Nan@@SA?AV?$MaybeLocal@VInteger@v8@@@v8@@V?$Local@VValue@v8@@@5@@Z 000000018005784c     njsConnection.obj
 0002:0000f84c       $stateUnwindMap$?GetFunction@Nan@@YA?AV?$MaybeLocal@VFunction@v8@@@v8@@V?$Local@VFunctionTemplate@v8@@@3@@Z 000000018005784c     njsPool.obj
 0002:0000f858       $ip2state$?Get@Nan@@YA?AV?$MaybeLocal@VValue@v8@@@v8@@V?$Local@VObject@v8@@@3@V?$Local@VValue@v8@@@3@@Z 0000000180057858     njsCommon.obj
 0002:0000f870       $unwind$?convert@?$ToFactory@I@imp@Nan@@SA?AV?$Maybe@I@v8@@V?$Local@VValue@v8@@@5@@Z 0000000180057870     njsCommon.obj
 0002:0000f888       $stateUnwindMap$?convert@?$ToFactory@I@imp@Nan@@SA?AV?$Maybe@I@v8@@V?$Local@VValue@v8@@@5@@Z 0000000180057888     njsCommon.obj
 0002:0000f888       $stateUnwindMap$?convert@?$ToFactory@H@imp@Nan@@SA?AV?$Maybe@H@v8@@V?$Local@VValue@v8@@@5@@Z 0000000180057888     njsCommon.obj
 0002:0000f890       $ip2state$?convert@?$ToFactory@I@imp@Nan@@SA?AV?$Maybe@I@v8@@V?$Local@VValue@v8@@@5@@Z 0000000180057890     njsCommon.obj
 0002:0000f8a8       $unwind$?convert@?$ToFactory@H@imp@Nan@@SA?AV?$Maybe@H@v8@@V?$Local@VValue@v8@@@5@@Z 00000001800578a8     njsCommon.obj
 0002:0000f8c0       $ip2state$?convert@?$ToFactory@H@imp@Nan@@SA?AV?$Maybe@H@v8@@V?$Local@VValue@v8@@@5@@Z 00000001800578c0     njsCommon.obj
 0002:0000f8d8       $unwind$?ThrowError@Nan@@YAXPEBD@Z 00000001800578d8     njsCommon.obj
 0002:0000f8e8       $stateUnwindMap$?Async_AfterRead@njsILob@@CAXPEAVnjsBaton@@QEAV?$Local@VValue@v8@@@v8@@@Z 00000001800578e8     njsIntLob.obj
 0002:0000f8e8       $stateUnwindMap$?ThrowError@Nan@@YAXPEBD@Z 00000001800578e8     njsCommon.obj
 0002:0000f8e8       $stateUnwindMap$?Async_AfterCreateLob@njsConnection@@CAXPEAVnjsBaton@@QEAV?$Local@VValue@v8@@@v8@@@Z 00000001800578e8     njsConnection.obj
 0002:0000f8e8       $stateUnwindMap$?GetInstance@njsILob@@SAPEAV1@V?$Local@VValue@v8@@@v8@@@Z 00000001800578e8     njsIntLob.obj
 0002:0000f8e8       $stateUnwindMap$?Error@Nan@@YA?AV?$Local@VValue@v8@@@v8@@PEBD@Z 00000001800578e8     njsOracle.obj
 0002:0000f8f0       $ip2state$?ThrowError@Nan@@YAXPEBD@Z 00000001800578f0     njsCommon.obj
 0002:0000f908       $unwind$??1?$Persistent@VArray@v8@@V?$NonCopyablePersistentTraits@VArray@v8@@@2@@Nan@@QEAA@XZ 0000000180057908     njsOracle.obj
 0002:0000f908       $unwind$??1?$Persistent@VFunction@v8@@V?$NonCopyablePersistentTraits@VFunction@v8@@@2@@Nan@@QEAA@XZ 0000000180057908     njsCommon.obj
 0002:0000f908       $unwind$??1?$Persistent@VObject@v8@@V?$NonCopyablePersistentTraits@VObject@v8@@@2@@Nan@@QEAA@XZ 0000000180057908     njsCommon.obj
 0002:0000f918       $stateUnwindMap$??__F?poolTemplate_s@njsPool@@0V?$Persistent@VFunctionTemplate@v8@@V?$NonCopyablePersistentTraits@VFunctionTemplate@v8@@@2@@Nan@@A@@YAXXZ 0000000180057918     njsPool.obj
 0002:0000f918       $stateUnwindMap$??__F?resultSetTemplate_s@njsResultSet@@0V?$Persistent@VFunctionTemplate@v8@@V?$NonCopyablePersistentTraits@VFunctionTemplate@v8@@@2@@Nan@@A@@YAXXZ 0000000180057918     njsResultSet.obj
 0002:0000f918       $stateUnwindMap$??1njsResultSet@@EEAA@XZ 0000000180057918     njsResultSet.obj
 0002:0000f918       $stateUnwindMap$??1?$Persistent@VFunction@v8@@V?$NonCopyablePersistentTraits@VFunction@v8@@@2@@Nan@@QEAA@XZ 0000000180057918     njsCommon.obj
 0002:0000f918       $stateUnwindMap$??1njsOracledb@@EEAA@XZ 0000000180057918     njsOracle.obj
 0002:0000f918       $stateUnwindMap$??1?$Persistent@VObject@v8@@V?$NonCopyablePersistentTraits@VObject@v8@@@2@@Nan@@QEAA@XZ 0000000180057918     njsCommon.obj
 0002:0000f918       $stateUnwindMap$??1ObjectWrap@Nan@@UEAA@XZ 0000000180057918     njsOracle.obj
 0002:0000f918       $stateUnwindMap$??__F?connectionTemplate_s@njsConnection@@0V?$Persistent@VFunctionTemplate@v8@@V?$NonCopyablePersistentTraits@VFunctionTemplate@v8@@@2@@Nan@@A@@YAXXZ 0000000180057918     njsConnection.obj
 0002:0000f918       $stateUnwindMap$?ClearAsyncData@njsBaton@@QEAAXXZ 0000000180057918     njsCommon.obj
 0002:0000f918       $stateUnwindMap$??1?$Persistent@VArray@v8@@V?$NonCopyablePersistentTraits@VArray@v8@@@2@@Nan@@QEAA@XZ 0000000180057918     njsOracle.obj
 0002:0000f918       $stateUnwindMap$??__F?iLobTemplate_s@njsILob@@0V?$Persistent@VFunctionTemplate@v8@@V?$NonCopyablePersistentTraits@VFunctionTemplate@v8@@@2@@Nan@@A@@YAXXZ 0000000180057918     njsIntLob.obj
 0002:0000f918       $stateUnwindMap$??_GnjsILob@@EEAAPEAXI@Z 0000000180057918     njsIntLob.obj
 0002:0000f918       $stateUnwindMap$??__F?oracledbTemplate_s@njsOracledb@@0V?$Persistent@VFunctionTemplate@v8@@V?$NonCopyablePersistentTraits@VFunctionTemplate@v8@@@2@@Nan@@A@@YAXXZ 0000000180057918     njsOracle.obj
 0002:0000f918       $stateUnwindMap$??1njsBaton@@QEAA@XZ 0000000180057918     njsCommon.obj
 0002:0000f920       $ip2state$??1?$Persistent@VArray@v8@@V?$NonCopyablePersistentTraits@VArray@v8@@@2@@Nan@@QEAA@XZ 0000000180057920     njsOracle.obj
 0002:0000f920       $ip2state$??1?$Persistent@VObject@v8@@V?$NonCopyablePersistentTraits@VObject@v8@@@2@@Nan@@QEAA@XZ 0000000180057920     njsCommon.obj
 0002:0000f920       $ip2state$??1?$Persistent@VFunction@v8@@V?$NonCopyablePersistentTraits@VFunction@v8@@@2@@Nan@@QEAA@XZ 0000000180057920     njsCommon.obj
 0002:0000f928       $unwind$??0njsBaton@@QEAA@V?$Local@VFunction@v8@@@v8@@V?$Local@VObject@v8@@@2@@Z 0000000180057928     njsCommon.obj
 0002:0000f93c       $stateUnwindMap$??0njsBaton@@QEAA@V?$Local@VFunction@v8@@@v8@@V?$Local@VObject@v8@@@2@@Z 000000018005793c     njsCommon.obj
 0002:0000f9a0       $ip2state$??0njsBaton@@QEAA@V?$Local@VFunction@v8@@@v8@@V?$Local@VObject@v8@@@2@@Z 00000001800579a0     njsCommon.obj
 0002:0000fa10       $unwind$??1njsProtoILob@@QEAA@XZ 0000000180057a10     njsCommon.obj
 0002:0000fa20       $ip2state$??1njsProtoILob@@QEAA@XZ 0000000180057a20     njsCommon.obj
 0002:0000fa28       $unwind$??1njsVariableBuffer@@QEAA@XZ 0000000180057a28     njsCommon.obj
 0002:0000fa3c       $stateUnwindMap$??1njsVariableBuffer@@QEAA@XZ 0000000180057a3c     njsCommon.obj
 0002:0000fa3c       $stateUnwindMap$??1njsVariable@@QEAA@XZ 0000000180057a3c     njsCommon.obj
 0002:0000fa50       $ip2state$??1njsVariableBuffer@@QEAA@XZ 0000000180057a50     njsCommon.obj
 0002:0000fa68       $unwind$??1njsVariable@@QEAA@XZ 0000000180057a68     njsCommon.obj
 0002:0000fa80       $ip2state$??1njsVariable@@QEAA@XZ 0000000180057a80     njsCommon.obj
 0002:0000fab8       $unwind$??1njsBaton@@QEAA@XZ 0000000180057ab8     njsCommon.obj
 0002:0000fad0       $ip2state$??1njsBaton@@QEAA@XZ 0000000180057ad0     njsCommon.obj
 0002:0000fad8       $unwind$?CheckJSException@njsBaton@@QEAAXPEAVTryCatch@Nan@@@Z 0000000180057ad8     njsCommon.obj
 0002:0000faf0       $stateUnwindMap$?CheckJSException@njsBaton@@QEAAXPEAVTryCatch@Nan@@@Z 0000000180057af0     njsCommon.obj
 0002:0000fb00       $ip2state$?CheckJSException@njsBaton@@QEAAXPEAVTryCatch@Nan@@@Z 0000000180057b00     njsCommon.obj
 0002:0000fb28       $unwind$?ClearAsyncData@njsBaton@@QEAAXXZ 0000000180057b28     njsCommon.obj
 0002:0000fb40       $ip2state$?ClearAsyncData@njsBaton@@QEAAXXZ 0000000180057b40     njsCommon.obj
 0002:0000fb88       $unwind$?GetOracledb@njsBaton@@QEAAPEAVnjsOracledb@@XZ 0000000180057b88     njsCommon.obj
 0002:0000fb98       $stateUnwindMap$?CreateFromBaton@njsPool@@SA?AV?$Local@VObject@v8@@@v8@@PEAVnjsBaton@@@Z 0000000180057b98     njsPool.obj
 0002:0000fb98       $stateUnwindMap$?CreateFromProtoLob@njsILob@@SA?AV?$Local@VObject@v8@@@v8@@PEAVnjsProtoILob@@@Z 0000000180057b98     njsIntLob.obj
 0002:0000fb98       $stateUnwindMap$?CreateFromBaton@njsResultSet@@SA?AV?$Local@VObject@v8@@@v8@@PEAVnjsBaton@@@Z 0000000180057b98     njsResultSet.obj
 0002:0000fb98       $stateUnwindMap$?CreateFromBaton@njsConnection@@SA?AV?$Local@VObject@v8@@@v8@@PEAVnjsBaton@@@Z 0000000180057b98     njsConnection.obj
 0002:0000fb98       $stateUnwindMap$?SetFetchAsStringTypesOnBaton@njsOracledb@@QEBAXPEAVnjsBaton@@@Z 0000000180057b98     njsOracle.obj
 0002:0000fb98       $stateUnwindMap$?GetOracledb@njsBaton@@QEAAPEAVnjsOracledb@@XZ 0000000180057b98     njsCommon.obj
 0002:0000fb98       $stateUnwindMap$?SetFetchAsBufferTypesOnBaton@njsOracledb@@QEBAXPEAVnjsBaton@@@Z 0000000180057b98     njsOracle.obj
 0002:0000fb98       $stateUnwindMap$?ProcessExecuteBinds@njsConnection@@CA_NV?$Local@VObject@v8@@@v8@@PEAVnjsBaton@@@Z 0000000180057b98     njsConnection.obj
 0002:0000fb98       $stateUnwindMap$?IsValid@njsResultSet@@UEBA_NXZ 0000000180057b98     njsResultSet.obj
 0002:0000fba0       $ip2state$?GetOracledb@njsBaton@@QEAAPEAVnjsOracledb@@XZ 0000000180057ba0     njsCommon.obj
 0002:0000fbb8       $unwind$?AsyncAfterWorkCallback@njsBaton@@CAXPEAUuv_work_s@@H@Z 0000000180057bb8     njsCommon.obj
 0002:0000fbe0       $stateUnwindMap$?AsyncAfterWorkCallback@njsBaton@@CAXPEAUuv_work_s@@H@Z 0000000180057be0     njsCommon.obj
 0002:0000fbf0       $ip2state$?AsyncAfterWorkCallback@njsBaton@@CAXPEAUuv_work_s@@H@Z 0000000180057bf0     njsCommon.obj
 0002:0000fc18       $unwind$?GetDPIError@njsBaton@@QEAAXXZ 0000000180057c18     njsCommon.obj
 0002:0000fc30       $stateUnwindMap$?GetDPIError@njsBaton@@QEAAXXZ 0000000180057c30     njsCommon.obj
 0002:0000fc40       $ip2state$?GetDPIError@njsBaton@@QEAAXXZ 0000000180057c40     njsCommon.obj
 0002:0000fc68       $unwind$?_Assign_rv@?$basic_string@DU?$char_traits@D@std@@V?$allocator@D@2@@std@@QEAAX$$QEAV12@@Z 0000000180057c68     njsCommon.obj
 0002:0000fc68       $unwind$??_Gbad_exception@std@@UEAAPEAXI@Z 0000000180057c68     libvcruntime:frame.obj
 0002:0000fc68       $unwind$dpiOci__handleFree 0000000180057c68     dpiOci.obj
 0002:0000fc68       $unwind$??4?$basic_string@DU?$char_traits@D@std@@V?$allocator@D@2@@std@@QEAAAEAV01@$$QEAV01@@Z 0000000180057c68     njsCommon.obj
 0002:0000fc68       $unwind$__acrt_FlsAlloc    0000000180057c68     libucrt:winapi_thunks.obj
 0002:0000fc68       $unwind$?replace_current_thread_locale_nolock@@YAXQEAU__acrt_ptd@@QEAU__crt_locale_data@@@Z 0000000180057c68     libucrt:per_thread_data.obj
 0002:0000fc68       $unwind$?GetPoolMin@njsOracledb@@CAXV?$Local@VString@v8@@@v8@@AEBV?$PropertyCallbackInfo@VValue@v8@@@Nan@@@Z 0000000180057c68     njsOracle.obj
 0002:0000fc68       $unwind$dpiOci__ping       0000000180057c68     dpiOci.obj
 0002:0000fc68       $unwind$?GetChunkSize@njsILob@@CAXV?$Local@VString@v8@@@v8@@AEBV?$PropertyCallbackInfo@VValue@v8@@@Nan@@@Z 0000000180057c68     njsIntLob.obj
 0002:0000fc68       $unwind$_FindAndUnlinkFrame 0000000180057c68     libvcruntime:trnsctrl.obj
 0002:0000fc68       $unwind$__acrt_errno_map_os_error 0000000180057c68     libucrt:errno.obj
 0002:0000fc68       $unwind$?GetPoolMax@njsOracledb@@CAXV?$Local@VString@v8@@@v8@@AEBV?$PropertyCallbackInfo@VValue@v8@@@Nan@@@Z 0000000180057c68     njsOracle.obj
 0002:0000fc68       $unwind$?GetPoolIncrement@njsOracledb@@CAXV?$Local@VString@v8@@@v8@@AEBV?$PropertyCallbackInfo@VValue@v8@@@Nan@@@Z 0000000180057c68     njsOracle.obj
 0002:0000fc68       $unwind$?GetLength@njsILob@@CAXV?$Local@VString@v8@@@v8@@AEBV?$PropertyCallbackInfo@VValue@v8@@@Nan@@@Z 0000000180057c68     njsIntLob.obj
 0002:0000fc68       $unwind$?GetPieceSize@njsILob@@CAXV?$Local@VString@v8@@@v8@@AEBV?$PropertyCallbackInfo@VValue@v8@@@Nan@@@Z 0000000180057c68     njsIntLob.obj
 0002:0000fc68       $unwind$?GetOffset@njsILob@@CAXV?$Local@VString@v8@@@v8@@AEBV?$PropertyCallbackInfo@VValue@v8@@@Nan@@@Z 0000000180057c68     njsIntLob.obj
 0002:0000fc68       $unwind$?erase@?$basic_string@DU?$char_traits@D@std@@V?$allocator@D@2@@std@@QEAAAEAV12@_K0@Z 0000000180057c68     njsCommon.obj
 0002:0000fc68       $unwind$dpiOci__descriptorFree 0000000180057c68     dpiOci.obj
 0002:0000fc68       $unwind$?GetType@njsILob@@CAXV?$Local@VString@v8@@@v8@@AEBV?$PropertyCallbackInfo@VValue@v8@@@Nan@@@Z 0000000180057c68     njsIntLob.obj
 0002:0000fc68       $unwind$?internal_isupper_l@@YA_NHQEAU__crt_locale_pointers@@@Z 0000000180057c68     libucrt:tolower_toupper.obj
 0002:0000fc68       $unwind$?GetIsAutoClose@njsILob@@CAXV?$Local@VString@v8@@@v8@@AEBV?$PropertyCallbackInfo@VValue@v8@@@Nan@@@Z 0000000180057c68     njsIntLob.obj
 0002:0000fc68       $unwind$??0_LocaleUpdate@@QEAA@QEAU__crt_locale_pointers@@@Z 0000000180057c68     libucrt:output.obj
 0002:0000fc68       $unwind$?force_decimal_point@__crt_stdio_output@@YAXPEADQEAU__crt_locale_pointers@@@Z 0000000180057c68     libucrt:output.obj
 0002:0000fc68       $unwind$?try_cor_exit_process@@YAXI@Z 0000000180057c68     libucrt:exit.obj
 0002:0000fc68       $unwind$__acrt_getptd      0000000180057c68     libucrt:per_thread_data.obj
 0002:0000fc68       $unwind$??_GObjectWrap@Nan@@UEAAPEAXI@Z 0000000180057c68     njsOracle.obj
 0002:0000fc68       $unwind$?GetPoolPingInterval@njsOracledb@@CAXV?$Local@VString@v8@@@v8@@AEBV?$PropertyCallbackInfo@VValue@v8@@@Nan@@@Z 0000000180057c68     njsOracle.obj
 0002:0000fc68       $unwind$?GetPoolTimeout@njsOracledb@@CAXV?$Local@VString@v8@@@v8@@AEBV?$PropertyCallbackInfo@VValue@v8@@@Nan@@@Z 0000000180057c68     njsOracle.obj
 0002:0000fc68       $unwind$??$common_xtox@K_W@@YAHKQEA_W_KI_N@Z 0000000180057c68     libucrt:xtoa.obj
 0002:0000fc68       $unwind$dpiOci__lobClose   0000000180057c68     dpiOci.obj
 0002:0000fc68       $unwind$wcsncat_s          0000000180057c68     libucrt:wcsncat_s.obj
 0002:0000fc68       $unwind$?GetMaxRows@njsOracledb@@CAXV?$Local@VString@v8@@@v8@@AEBV?$PropertyCallbackInfo@VValue@v8@@@Nan@@@Z 0000000180057c68     njsOracle.obj
 0002:0000fc68       $unwind$dpiOci__lobOpen    0000000180057c68     dpiOci.obj
 0002:0000fc68       $unwind$dpiStmt__clearBatchErrors 0000000180057c68     dpiStmt.obj
 0002:0000fc68       $unwind$dpiSubscr__free    0000000180057c68     dpiSubscr.obj
 0002:0000fc68       $unwind$?type_case_c_tchar@?$output_processor@DV?$string_output_adapter@D@__crt_stdio_output@@V?$standard_base@DV?$string_output_adapter@D@__crt_stdio_output@@@2@@__crt_stdio_output@@AEAA_ND@Z 0000000180057c68     libucrt:output.obj
 0002:0000fc68       $unwind$dpiOci__lobTrim2   0000000180057c68     dpiOci.obj
 0002:0000fc68       $unwind$dpiDeqOptions__free 0000000180057c68     dpiDeqOptions.obj
 0002:0000fc68       $unwind$__vcrt_FlsAlloc    0000000180057c68     libvcruntime:winapi_downlevel.obj
 0002:0000fc68       $unwind$?GetOutFormat@njsOracledb@@CAXV?$Local@VString@v8@@@v8@@AEBV?$PropertyCallbackInfo@VValue@v8@@@Nan@@@Z 0000000180057c68     njsOracle.obj
 0002:0000fc68       $unwind$?SetDPIConnHandle@njsBaton@@QEAAXPEAUdpiConn@@@Z 0000000180057c68     njsCommon.obj
 0002:0000fc68       $unwind$dpiEnqOptions__free 0000000180057c68     dpiEnqOptions.obj
 0002:0000fc68       $unwind$??_GnjsOracledb@@EEAAPEAXI@Z 0000000180057c68     njsOracle.obj
 0002:0000fc68       $unwind$?type_case_c_tchar@?$output_processor@DV?$stream_output_adapter@D@__crt_stdio_output@@V?$standard_base@DV?$stream_output_adapter@D@__crt_stdio_output@@@2@@__crt_stdio_output@@AEAA_ND@Z 0000000180057c68     libucrt:output.obj
 0002:0000fc68       $unwind$?GetStmtCacheSize@njsOracledb@@CAXV?$Local@VString@v8@@@v8@@AEBV?$PropertyCallbackInfo@VValue@v8@@@Nan@@@Z 0000000180057c68     njsOracle.obj
 0002:0000fc68       $unwind$_realloc_base      0000000180057c68     libucrt:realloc_base.obj
 0002:0000fc68       $unwind$??$common_initialize_environment_nolock@D@@YAHXZ 0000000180057c68     libucrt:environment_initialization.obj
 0002:0000fc68       $unwind$?GetFetchArraySize@njsOracledb@@CAXV?$Local@VString@v8@@@v8@@AEBV?$PropertyCallbackInfo@VValue@v8@@@Nan@@@Z 0000000180057c68     njsOracle.obj
 0002:0000fc68       $unwind$__vcrt_FlsFree     0000000180057c68     libvcruntime:winapi_downlevel.obj
 0002:0000fc68       $unwind$?GetStmtCacheSize@njsConnection@@CAXV?$Local@VString@v8@@@v8@@AEBV?$PropertyCallbackInfo@VValue@v8@@@Nan@@@Z 0000000180057c68     njsConnection.obj
 0002:0000fc68       $unwind$?SetDPILobHandle@njsBaton@@QEAAXPEAUdpiLob@@@Z 0000000180057c68     njsCommon.obj
 0002:0000fc68       $unwind$dpiOci__objectGetInd 0000000180057c68     dpiOci.obj
 0002:0000fc68       $unwind$dpiPool__free      0000000180057c68     dpiPool.obj
 0002:0000fc68       $unwind$dpiRowid__free     0000000180057c68     dpiRowid.obj
 0002:0000fc68       $unwind$?ExFilterRethrow@@YAHPEAU_EXCEPTION_POINTERS@@PEAUEHExceptionRecord@@PEAH@Z 0000000180057c68     libvcruntime:frame.obj
 0002:0000fc68       $unwind$dpiOci__objectFree 0000000180057c68     dpiOci.obj
 0002:0000fc68       $unwind$dpiEnv__free       0000000180057c68     dpiEnv.obj
 0002:0000fc68       $unwind$?DloadAcquireSectionWriteAccess@@YAXXZ 0000000180057c68     DelayImp:delayhlp.obj
 0002:0000fc68       $unwind$?GetAutoCommit@njsOracledb@@CAXV?$Local@VString@v8@@@v8@@AEBV?$PropertyCallbackInfo@VValue@v8@@@Nan@@@Z 0000000180057c68     njsOracle.obj
 0002:0000fc68       $unwind$??_Gbad_array_new_length@std@@UEAAPEAXI@Z 0000000180057c68     LIBCMT:throw_bad_alloc.obj
 0002:0000fc68       $unwind$__vcrt_FlsGetValue 0000000180057c68     libvcruntime:winapi_downlevel.obj
 0002:0000fc68       $unwind$dpiOci__allocateMem 0000000180057c68     dpiOci.obj
 0002:0000fc68       $unwind$_close_nolock      0000000180057c68     libucrt:close.obj
 0002:0000fc68       $unwind$dpiOci__arrayDescriptorFree 0000000180057c68     dpiOci.obj
 0002:0000fc68       $unwind$strncpy_s          0000000180057c68     libucrt:strncpy_s.obj
 0002:0000fc68       $unwind$?GetExtendedMetaData@njsOracledb@@CAXV?$Local@VString@v8@@@v8@@AEBV?$PropertyCallbackInfo@VValue@v8@@@Nan@@@Z 0000000180057c68     njsOracle.obj
 0002:0000fc68       $unwind$?GetEvents@njsOracledb@@CAXV?$Local@VString@v8@@@v8@@AEBV?$PropertyCallbackInfo@VValue@v8@@@Nan@@@Z 0000000180057c68     njsOracle.obj
 0002:0000fc68       $unwind$_callnewh          0000000180057c68     libucrt:new_handler.obj
 0002:0000fc68       $unwind$_fclose_nolock     0000000180057c68     libucrt:fclose.obj
 0002:0000fc68       $unwind$?GetFetchAsBuffer@njsOracledb@@CAXV?$Local@VString@v8@@@v8@@AEBV?$PropertyCallbackInfo@VValue@v8@@@Nan@@@Z 0000000180057c68     njsOracle.obj
 0002:0000fc68       $unwind$_updatetlocinfoEx_nolock 0000000180057c68     libucrt:locale_refcounting.obj
 0002:0000fc68       $unwind$dpiHandleList__free 0000000180057c68     dpiHandleList.obj
 0002:0000fc68       $unwind$dpiHandlePool__free 0000000180057c68     dpiHandlePool.obj
 0002:0000fc68       $unwind$??_Gexception@std@@UEAAPEAXI@Z 0000000180057c68     libcpmt:xthrow.obj
 0002:0000fc68       $unwind$?GetVersionSuffix@njsOracledb@@CAXV?$Local@VString@v8@@@v8@@AEBV?$PropertyCallbackInfo@VValue@v8@@@Nan@@@Z 0000000180057c68     njsOracle.obj
 0002:0000fc68       $unwind$dpiLob__free       0000000180057c68     dpiLob.obj
 0002:0000fc68       $unwind$__acrt_GetSystemTimePreciseAsFileTime 0000000180057c68     libucrt:winapi_thunks.obj
 0002:0000fc68       $unwind$??_Gbad_alloc@std@@UEAAPEAXI@Z 0000000180057c68     libcpmt:xthrow.obj
 0002:0000fc68       $unwind$dpiOci__subscriptionUnRegister 0000000180057c68     dpiOci.obj
 0002:0000fc68       $unwind$?GetFetchAsString@njsOracledb@@CAXV?$Local@VString@v8@@@v8@@AEBV?$PropertyCallbackInfo@VValue@v8@@@Nan@@@Z 0000000180057c68     njsOracle.obj
 0002:0000fc68       $unwind$__acrt_stdio_begin_temporary_buffering_nolock 0000000180057c68     libucrt:_sftbuf.obj
 0002:0000fc68       $unwind$?__SetUnwindTryBlock@@YAXPEA_KPEAU_xDISPATCHER_CONTEXT@@PEBU_s_FuncInfo@@H@Z 0000000180057c68     libvcruntime:ehstate.obj
 0002:0000fc68       $unwind$?GetLobPrefetchSize@njsOracledb@@CAXV?$Local@VString@v8@@@v8@@AEBV?$PropertyCallbackInfo@VValue@v8@@@Nan@@@Z 0000000180057c68     njsOracle.obj
 0002:0000fc68       $unwind$??_Glogic_error@std@@UEAAPEAXI@Z 0000000180057c68     libcpmt:xthrow.obj
 0002:0000fc68       $unwind$?GetStmtCacheSize@njsPool@@CAXV?$Local@VString@v8@@@v8@@AEBV?$PropertyCallbackInfo@VValue@v8@@@Nan@@@Z 0000000180057c68     njsPool.obj
 0002:0000fc68       $unwind$?GetPoolPingInterval@njsPool@@CAXV?$Local@VString@v8@@@v8@@AEBV?$PropertyCallbackInfo@VValue@v8@@@Nan@@@Z 0000000180057c68     njsPool.obj
 0002:0000fc68       $unwind$?GetConnectionsInUse@njsPool@@CAXV?$Local@VString@v8@@@v8@@AEBV?$PropertyCallbackInfo@VValue@v8@@@Nan@@@Z 0000000180057c68     njsPool.obj
 0002:0000fc68       $unwind$?GetConnectionsOpen@njsPool@@CAXV?$Local@VString@v8@@@v8@@AEBV?$PropertyCallbackInfo@VValue@v8@@@Nan@@@Z 0000000180057c68     njsPool.obj
 0002:0000fc68       $unwind$?GetPoolTimeout@njsPool@@CAXV?$Local@VString@v8@@@v8@@AEBV?$PropertyCallbackInfo@VValue@v8@@@Nan@@@Z 0000000180057c68     njsPool.obj
 0002:0000fc68       $unwind$?GetPoolIncrement@njsPool@@CAXV?$Local@VString@v8@@@v8@@AEBV?$PropertyCallbackInfo@VValue@v8@@@Nan@@@Z 0000000180057c68     njsPool.obj
 0002:0000fc68       $unwind$?GetPoolMax@njsPool@@CAXV?$Local@VString@v8@@@v8@@AEBV?$PropertyCallbackInfo@VValue@v8@@@Nan@@@Z 0000000180057c68     njsPool.obj
 0002:0000fc68       $unwind$?GetPoolMin@njsPool@@CAXV?$Local@VString@v8@@@v8@@AEBV?$PropertyCallbackInfo@VValue@v8@@@Nan@@@Z 0000000180057c68     njsPool.obj
 0002:0000fc68       $unwind$__acrt_get_parent_window 0000000180057c68     libucrt:winapi_thunks.obj
 0002:0000fc68       $unwind$__acrt_FlsGetValue 0000000180057c68     libucrt:winapi_thunks.obj
 0002:0000fc68       $unwind$__acrt_invoke_user_matherr 0000000180057c68     libucrt:matherr.obj
 0002:0000fc68       $unwind$__acrt_FlsFree     0000000180057c68     libucrt:winapi_thunks.obj
 0002:0000fc68       $unwind$?GetMetaData@njsResultSet@@CAXV?$Local@VString@v8@@@v8@@AEBV?$PropertyCallbackInfo@VValue@v8@@@Nan@@@Z 0000000180057c68     njsResultSet.obj
 0002:0000fc68       $unwind$??_Gout_of_range@std@@UEAAPEAXI@Z 0000000180057c68     libcpmt:xthrow.obj
 0002:0000fc68       $unwind$?GetExternalAuth@njsOracledb@@CAXV?$Local@VString@v8@@@v8@@AEBV?$PropertyCallbackInfo@VValue@v8@@@Nan@@@Z 0000000180057c68     njsOracle.obj
 0002:0000fc68       $unwind$dpiMsgProps__free  0000000180057c68     dpiMsgProps.obj
 0002:0000fc68       $unwind$?DloadGetSRWLockFunctionPointers@@YAEXZ 0000000180057c68     DelayImp:delayhlp.obj
 0002:0000fc68       $unwind$dpiObjectAttr__free 0000000180057c68     dpiObjectAttr.obj
 0002:0000fc68       $unwind$??_Glength_error@std@@UEAAPEAXI@Z 0000000180057c68     libcpmt:xthrow.obj
 0002:0000fc68       $unwind$__acrt_uninitialize_lowio 0000000180057c68     libucrt:ioinit.obj
 0002:0000fc68       $unwind$??_GnjsResultSet@@EEAAPEAXI@Z 0000000180057c68     njsResultSet.obj
 0002:0000fc74       $unwind$?GetBoolFromJSON@njsBaton@@QEAA_NV?$Local@VObject@v8@@@v8@@PEBDHPEA_N@Z 0000000180057c74     njsCommon.obj
 0002:0000fc94       $stateUnwindMap$?GetBoolFromJSON@njsBaton@@QEAA_NV?$Local@VObject@v8@@@v8@@PEBDHPEA_N@Z 0000000180057c94     njsCommon.obj
 0002:0000fca8       $ip2state$?GetBoolFromJSON@njsBaton@@QEAA_NV?$Local@VObject@v8@@@v8@@PEBDHPEA_N@Z 0000000180057ca8     njsCommon.obj
 0002:0000fcd0       $unwind$?GetIntFromJSON@njsBaton@@QEAA_NV?$Local@VObject@v8@@@v8@@PEBDHPEAH@Z 0000000180057cd0     njsCommon.obj
 0002:0000fcf0       $stateUnwindMap$?GetIntFromJSON@njsBaton@@QEAA_NV?$Local@VObject@v8@@@v8@@PEBDHPEAH@Z 0000000180057cf0     njsCommon.obj
 0002:0000fcf0       $stateUnwindMap$?GetUnsignedIntFromJSON@njsBaton@@QEAA_NV?$Local@VObject@v8@@@v8@@PEBDHPEAI@Z 0000000180057cf0     njsCommon.obj
 0002:0000fd08       $ip2state$?GetIntFromJSON@njsBaton@@QEAA_NV?$Local@VObject@v8@@@v8@@PEBDHPEAH@Z 0000000180057d08     njsCommon.obj
 0002:0000fd40       $unwind$?GetPositiveIntFromJSON@njsBaton@@QEAA_NV?$Local@VObject@v8@@@v8@@PEBDHPEAI@Z 0000000180057d40     njsCommon.obj
 0002:0000fd58       $stateUnwindMap$?Write@njsILob@@CAXAEBV?$FunctionCallbackInfo@VValue@v8@@@Nan@@@Z 0000000180057d58     njsIntLob.obj
 0002:0000fd58       $stateUnwindMap$?CreateLob@njsConnection@@CAXAEBV?$FunctionCallbackInfo@VValue@v8@@@Nan@@@Z 0000000180057d58     njsConnection.obj
 0002:0000fd58       $stateUnwindMap$?GetPositiveIntFromJSON@njsBaton@@QEAA_NV?$Local@VObject@v8@@@v8@@PEBDHPEAI@Z 0000000180057d58     njsCommon.obj
 0002:0000fd60       $ip2state$?GetPositiveIntFromJSON@njsBaton@@QEAA_NV?$Local@VObject@v8@@@v8@@PEBDHPEAI@Z 0000000180057d60     njsCommon.obj
 0002:0000fd78       $unwind$?GetStringFromJSON@njsBaton@@QEAA_NV?$Local@VObject@v8@@@v8@@PEBDHAEAV?$basic_string@DU?$char_traits@D@std@@V?$allocator@D@2@@std@@@Z 0000000180057d78     njsCommon.obj
 0002:0000fd98       $stateUnwindMap$?GetStringFromJSON@njsBaton@@QEAA_NV?$Local@VObject@v8@@@v8@@PEBDHAEAV?$basic_string@DU?$char_traits@D@std@@V?$allocator@D@2@@std@@@Z 0000000180057d98     njsCommon.obj
 0002:0000fdc0       $ip2state$?GetStringFromJSON@njsBaton@@QEAA_NV?$Local@VObject@v8@@@v8@@PEBDHAEAV?$basic_string@DU?$char_traits@D@std@@V?$allocator@D@2@@std@@@Z 0000000180057dc0     njsCommon.obj
 0002:0000fe18       $unwind$?GetUnsignedIntFromJSON@njsBaton@@QEAA_NV?$Local@VObject@v8@@@v8@@PEBDHPEAI@Z 0000000180057e18     njsCommon.obj
 0002:0000fe38       $ip2state$?GetUnsignedIntFromJSON@njsBaton@@QEAA_NV?$Local@VObject@v8@@@v8@@PEBDHPEAI@Z 0000000180057e38     njsCommon.obj
 0002:0000fe70       $unwind$??0?$output_processor@_WV?$string_output_adapter@_W@__crt_stdio_output@@V?$standard_base@_WV?$string_output_adapter@_W@__crt_stdio_output@@@2@@__crt_stdio_output@@QEAA@AEBV?$string_output_adapter@_W@1@_KQEB_WQEAU__crt_locale_pointers@@QEAD@Z 0000000180057e70     libucrt:output.obj
 0002:0000fe70       $unwind$?New@njsResultSet@@CAXAEBV?$FunctionCallbackInfo@VValue@v8@@@Nan@@@Z 0000000180057e70     njsResultSet.obj
 0002:0000fe70       $unwind$??0?$output_processor@DV?$string_output_adapter@D@__crt_stdio_output@@V?$standard_base@DV?$string_output_adapter@D@__crt_stdio_output@@@2@@__crt_stdio_output@@QEAA@AEBV?$string_output_adapter@D@1@_KQEBDQEAU__crt_locale_pointers@@QEAD@Z 0000000180057e70     libucrt:output.obj
 0002:0000fe70       $unwind$_clrfp             0000000180057e70     libucrt:fpctrl.obj
 0002:0000fe70       $unwind$?DloadReleaseSectionWriteAccess@@YAXXZ 0000000180057e70     DelayImp:delayhlp.obj
 0002:0000fe70       $unwind$_SetImageBase      0000000180057e70     libvcruntime:trnsctrl.obj
 0002:0000fe70       $unwind$__acrt_update_multibyte_info 0000000180057e70     libucrt:locale_update.obj
 0002:0000fe70       $unwind$?type_case_integer@?$output_processor@DV?$stream_output_adapter@D@__crt_stdio_output@@V?$standard_base@DV?$stream_output_adapter@D@__crt_stdio_output@@@2@@__crt_stdio_output@@AEAA_NI_N@Z 0000000180057e70     libucrt:output.obj
 0002:0000fe70       $unwind$?Async_Break@njsConnection@@CAXPEAVnjsBaton@@@Z 0000000180057e70     njsConnection.obj
 0002:0000fe70       $unwind$wcscpy_s           0000000180057e70     libucrt:wcscpy_s.obj
 0002:0000fe70       $unwind$?Async_GetRows@njsResultSet@@CAXPEAVnjsBaton@@@Z 0000000180057e70     njsResultSet.obj
 0002:0000fe70       $unwind$?GetNumOutBinds@njsBaton@@QEAAIXZ 0000000180057e70     njsCommon.obj
 0002:0000fe70       $unwind$?Async_Close@njsPool@@CAXPEAVnjsBaton@@@Z 0000000180057e70     njsPool.obj
 0002:0000fe70       $unwind$__acrt_can_show_message_box 0000000180057e70     libucrt:winapi_thunks.obj
 0002:0000fe70       $unwind$??$common_get_or_create_environment_nolock@D@@YAPEAPEADXZ 0000000180057e70     libucrt:environment_initialization.obj
 0002:0000fe70       $unwind$?Async_Rollback@njsConnection@@CAXPEAVnjsBaton@@@Z 0000000180057e70     njsConnection.obj
 0002:0000fe70       $unwind$dpiVar__free       0000000180057e70     dpiVar.obj
 0002:0000fe70       $unwind$??0length_error@std@@QEAA@AEBV01@@Z 0000000180057e70     libcpmt:xthrow.obj
 0002:0000fe70       $unwind$__acrt_stdio_free_buffer_nolock 0000000180057e70     libucrt:_freebuf.obj
 0002:0000fe70       $unwind$_clearfp           0000000180057e70     libucrt:ieee.obj
 0002:0000fe70       $unwind$?__GetUnwindTryBlock@@YAHPEA_KPEAU_xDISPATCHER_CONTEXT@@PEBU_s_FuncInfo@@@Z 0000000180057e70     libvcruntime:ehstate.obj
 0002:0000fe70       $unwind$??0out_of_range@std@@QEAA@AEBV01@@Z 0000000180057e70     libcpmt:xthrow.obj
 0002:0000fe70       $unwind$?Async_Commit@njsConnection@@CAXPEAVnjsBaton@@@Z 0000000180057e70     njsConnection.obj
 0002:0000fe70       $unwind$?Async_Close@njsResultSet@@CAXPEAVnjsBaton@@@Z 0000000180057e70     njsResultSet.obj
 0002:0000fe70       $unwind$?Ref@ObjectWrap@Nan@@MEAAXXZ 0000000180057e70     njsOracle.obj
 0002:0000fe70       $unwind$_onexit            0000000180057e70     LIBCMT:utility.obj
 0002:0000fe70       $unwind$?Unref@ObjectWrap@Nan@@MEAAXXZ 0000000180057e70     njsOracle.obj
 0002:0000fe70       $unwind$?__StateFromIp@@YAHPEBU_s_FuncInfo@@PEAU_xDISPATCHER_CONTEXT@@_J@Z 0000000180057e70     libvcruntime:ehstate.obj
 0002:0000fe70       $unwind$initialize_pointers 0000000180057e70     libucrt:initialization.obj
 0002:0000fe70       $unwind$?WeakCallback@ObjectWrap@Nan@@CAXAEBV?$WeakCallbackInfo@VObjectWrap@Nan@@@v8@@@Z 0000000180057e70     njsOracle.obj
 0002:0000fe70       $unwind$?Async_Write@njsILob@@CAXPEAVnjsBaton@@@Z 0000000180057e70     njsIntLob.obj
 0002:0000fe70       $unwind$?state_case_normal@?$output_processor@DV?$string_output_adapter@D@__crt_stdio_output@@V?$standard_base@DV?$string_output_adapter@D@__crt_stdio_output@@@2@@__crt_stdio_output@@AEAA_NXZ 0000000180057e70     libucrt:output.obj
 0002:0000fe70       $unwind$__std_exception_destroy 0000000180057e70     libvcruntime:std_exception.obj
 0002:0000fe70       $unwind$??1?$basic_string@DU?$char_traits@D@std@@V?$allocator@D@2@@std@@QEAA@XZ 0000000180057e70     njsCommon.obj
 0002:0000fe70       $unwind$?Async_Close@njsConnection@@CAXPEAVnjsBaton@@@Z 0000000180057e70     njsConnection.obj
 0002:0000fe70       $unwind$uninitialize_allocated_memory 0000000180057e70     libucrt:initialization.obj
 0002:0000fe70       $unwind$wcscat_s           0000000180057e70     libucrt:wcscat_s.obj
 0002:0000fe70       $unwind$??$common_timespec_get@U_timespec64@@@@YAHQEAU_timespec64@@H@Z 0000000180057e70     libucrt:time.obj
 0002:0000fe70       $unwind$__scrt_release_startup_lock 0000000180057e70     LIBCMT:utility.obj
 0002:0000fe70       $unwind$__std_type_info_destroy_list 0000000180057e70     libvcruntime:std_type_info.obj
 0002:0000fe70       $unwind$?load_exe_hook@@YAP6A_JXZIPEAUDelayLoadInfo@@@Z 0000000180057e70     win_delay_load_hook.obj
 0002:0000fe70       $unwind$??0?$output_processor@DV?$stream_output_adapter@D@__crt_stdio_output@@V?$standard_base@DV?$stream_output_adapter@D@__crt_stdio_output@@@2@@__crt_stdio_output@@QEAA@AEBV?$stream_output_adapter@D@1@_KQEBDQEAU__crt_locale_pointers@@QEAD@Z 0000000180057e70     libucrt:output.obj
 0002:0000fe70       $unwind$?Async_Close@njsILob@@CAXPEAVnjsBaton@@@Z 0000000180057e70     njsIntLob.obj
 0002:0000fe70       $unwind$dpiUtils__freeMemory 0000000180057e70     dpiUtils.obj
 0002:0000fe70       $unwind$__acrt_fp_strflt_to_string 0000000180057e70     libucrt:_fptostr.obj
 0002:0000fe70       $unwind$__acrt_update_locale_info 0000000180057e70     libucrt:locale_update.obj
 0002:0000fe70       $unwind$__scrt_initialize_crt 0000000180057e70     LIBCMT:utility.obj
 0002:0000fe70       $unwind$__acrt_allocate_buffer_for_argv 0000000180057e70     libucrt:argv_parsing.obj
 0002:0000fe70       $unwind$__scrt_uninitialize_crt 0000000180057e70     LIBCMT:utility.obj
 0002:0000fe70       $unwind$?New@njsPool@@CAXAEBV?$FunctionCallbackInfo@VValue@v8@@@Nan@@@Z 0000000180057e70     njsPool.obj
 0002:0000fe70       $unwind$?type_case_integer@?$output_processor@_WV?$stream_output_adapter@_W@__crt_stdio_output@@V?$standard_base@_WV?$stream_output_adapter@_W@__crt_stdio_output@@@2@@__crt_stdio_output@@AEAA_NI_N@Z 0000000180057e70     libucrt:output.obj
 0002:0000fe70       $unwind$?Async_Ping@njsConnection@@CAXPEAVnjsBaton@@@Z 0000000180057e70     njsConnection.obj
 0002:0000fe70       $unwind$?type_case_integer@?$output_processor@_WV?$string_output_adapter@_W@__crt_stdio_output@@V?$standard_base@_WV?$string_output_adapter@_W@__crt_stdio_output@@@2@@__crt_stdio_output@@AEAA_NI_N@Z 0000000180057e70     libucrt:output.obj
 0002:0000fe70       $unwind$__acrt_stdio_allocate_buffer_nolock 0000000180057e70     libucrt:_getbuf.obj
 0002:0000fe70       $unwind$??0bad_exception@std@@QEAA@AEBV01@@Z 0000000180057e70     libvcruntime:frame.obj
 0002:0000fe70       $unwind$?Async_ExecuteMany@njsConnection@@CAXPEAVnjsBaton@@@Z 0000000180057e70     njsConnection.obj
 0002:0000fe70       $unwind$?Async_AfterCreatePool@njsOracledb@@CAXPEAVnjsBaton@@QEAV?$Local@VValue@v8@@@v8@@@Z 0000000180057e70     njsOracle.obj
 0002:0000fe70       $unwind$??0?$output_processor@_WV?$stream_output_adapter@_W@__crt_stdio_output@@V?$standard_base@_WV?$stream_output_adapter@_W@__crt_stdio_output@@@2@@__crt_stdio_output@@QEAA@AEBV?$stream_output_adapter@_W@1@_KQEB_WQEAU__crt_locale_pointers@@QEAD@Z 0000000180057e70     libucrt:output.obj
 0002:0000fe70       $unwind$??$message_box_wait_thread@_W@@YAKQEAX@Z 0000000180057e70     libucrt:crtmbox.obj
 0002:0000fe70       $unwind$?Async_AfterGetConnection@njsPool@@CAXPEAVnjsBaton@@QEAV?$Local@VValue@v8@@@v8@@@Z 0000000180057e70     njsPool.obj
 0002:0000fe70       $unwind$?type_case_integer@?$output_processor@DV?$string_output_adapter@D@__crt_stdio_output@@V?$standard_base@DV?$string_output_adapter@D@__crt_stdio_output@@@2@@__crt_stdio_output@@AEAA_NI_N@Z 0000000180057e70     libucrt:output.obj
 0002:0000fe70       $unwind$_set_statfp        0000000180057e70     libucrt:fpctrl.obj
 0002:0000fe70       $unwind$??0bad_array_new_length@std@@QEAA@AEBV01@@Z 0000000180057e70     LIBCMT:throw_bad_alloc.obj
 0002:0000fe70       $unwind$__acrt_uninitialize_stdio 0000000180057e70     libucrt:_file.obj
 0002:0000fe70       $unwind$?state_case_normal@?$output_processor@DV?$stream_output_adapter@D@__crt_stdio_output@@V?$standard_base@DV?$stream_output_adapter@D@__crt_stdio_output@@@2@@__crt_stdio_output@@AEAA_NXZ 0000000180057e70     libucrt:output.obj
 0002:0000fe70       $unwind$_SetThrowImageBase 0000000180057e70     libvcruntime:trnsctrl.obj
 0002:0000fe70       $unwind$__vcrt_freeptd     0000000180057e70     libvcruntime:per_thread_data.obj
 0002:0000fe70       $unwind$strcpy_s           0000000180057e70     libucrt:strcpy_s.obj
 0002:0000fe70       $unwind$??2@YAPEAX_K@Z     0000000180057e70     LIBCMT:new_scalar.obj
 0002:0000fe70       $unwind$__acrt_uninitialize_locks 0000000180057e70     libucrt:locks.obj
 0002:0000fe70       $unwind$??_Gtype_info@@UEAAPEAXI@Z 0000000180057e70     LIBCMT:std_type_info_static.obj
 0002:0000fe70       $unwind$?New@njsConnection@@CAXAEBV?$FunctionCallbackInfo@VValue@v8@@@Nan@@@Z 0000000180057e70     njsConnection.obj
 0002:0000fe70       $unwind$?Async_AfterGetConnection@njsOracledb@@CAXPEAVnjsBaton@@QEAV?$Local@VValue@v8@@@v8@@@Z 0000000180057e70     njsOracle.obj
 0002:0000fe70       $unwind$?exit_or_terminate_process@@YAXI@Z 0000000180057e70     libucrt:exit.obj
 0002:0000fe70       $unwind$??0logic_error@std@@QEAA@AEBV01@@Z 0000000180057e70     libcpmt:xthrow.obj
 0002:0000fe70       $unwind$__acrt_uninitialize_winapi_thunks 0000000180057e70     libucrt:winapi_thunks.obj
 0002:0000fe70       $unwind$__acrt_AreFileApisANSI 0000000180057e70     libucrt:winapi_thunks.obj
 0002:0000fe70       $unwind$__acrt_initialize_locks 0000000180057e70     libucrt:locks.obj
 0002:0000fe70       $unwind$_calloc_base       0000000180057e70     libucrt:calloc_base.obj
 0002:0000fe70       $unwind$??0bad_alloc@std@@QEAA@AEBV01@@Z 0000000180057e70     libcpmt:xthrow.obj
 0002:0000fe70       $unwind$__vcrt_uninitialize_locks 0000000180057e70     libvcruntime:locks.obj
 0002:0000fe70       $unwind$fesetenv           0000000180057e70     libucrt:fesetenv.obj
 0002:0000fe70       $unwind$__vcrt_initialize_locks 0000000180057e70     libvcruntime:locks.obj
 0002:0000fe70       $unwind$_malloc_base       0000000180057e70     libucrt:malloc_base.obj
 0002:0000fe70       $unwind$fegetenv           0000000180057e70     libucrt:fegetenv.obj
 0002:0000fe70       $unwind$_setfpstatusword   0000000180057e70     libucrt:_fenvutils.obj
 0002:0000fe70       $unwind$__raise_securityfailure 0000000180057e70     LIBCMT:gs_report.obj
 0002:0000fe70       $unwind$?New@njsILob@@CAXAEBV?$FunctionCallbackInfo@VValue@v8@@@Nan@@@Z 0000000180057e70     njsIntLob.obj
 0002:0000fe70       $unwind$??0exception@std@@QEAA@AEBV01@@Z 0000000180057e70     libcpmt:xthrow.obj
 0002:0000fe70       $unwind$?state_case_normal_tchar@?$output_processor@DV?$stream_output_adapter@D@__crt_stdio_output@@V?$standard_base@DV?$stream_output_adapter@D@__crt_stdio_output@@@2@@__crt_stdio_output@@AEAA_ND@Z 0000000180057e70     libucrt:output.obj
 0002:0000fe70       $unwind$_IsExceptionObjectToBeDestroyed 0000000180057e70     libvcruntime:trnsctrl.obj
 0002:0000fe70       $unwind$_fflush_nolock     0000000180057e70     libucrt:fflush.obj
 0002:0000fe70       $unwind$_CreateFrameInfo   0000000180057e70     libvcruntime:trnsctrl.obj
 0002:0000fe70       $unwind$__acrt_freeptd     0000000180057e70     libucrt:per_thread_data.obj
 0002:0000fe70       $unwind$feholdexcept       0000000180057e70     libucrt:feholdexcept.obj
 0002:0000fe78       $chain$4$?GetNumOutBinds@njsBaton@@QEAAIXZ 0000000180057e78     njsCommon.obj
 0002:0000fe9c       $chain$5$?GetNumOutBinds@njsBaton@@QEAAIXZ 0000000180057e9c     njsCommon.obj
 0002:0000feac       $unwind$?QueueWork@njsBaton@@QEAAXPEBDP6AXPEAV1@@ZP6AX1QEAV?$Local@VValue@v8@@@v8@@@ZI@Z 0000000180057eac     njsCommon.obj
 0002:0000fec8       $stateUnwindMap$?QueueWork@njsBaton@@QEAAXPEBDP6AXPEAV1@@ZP6AX1QEAV?$Local@VValue@v8@@@v8@@@ZI@Z 0000000180057ec8     njsCommon.obj
 0002:0000fec8       $stateUnwindMap$?PropertyIsReadOnly@njsCommon@@KAXPEBD@Z 0000000180057ec8     njsCommon.obj
 0002:0000fec8       $stateUnwindMap$?GetIsValid@njsILob@@CAXV?$Local@VString@v8@@@v8@@AEBV?$PropertyCallbackInfo@VValue@v8@@@Nan@@@Z 0000000180057ec8     njsIntLob.obj
 0002:0000fed0       $ip2state$?QueueWork@njsBaton@@QEAAXPEBDP6AXPEAV1@@ZP6AX1QEAV?$Local@VValue@v8@@@v8@@@ZI@Z 0000000180057ed0     njsCommon.obj
 0002:0000fee8       $unwind$?CreateBaton@njsCommon@@IEAAPEAVnjsBaton@@AEBV?$FunctionCallbackInfo@VValue@v8@@@Nan@@@Z 0000000180057ee8     njsCommon.obj
 0002:0000ff04       $stateUnwindMap$?CreateBaton@njsCommon@@IEAAPEAVnjsBaton@@AEBV?$FunctionCallbackInfo@VValue@v8@@@Nan@@@Z 0000000180057f04     njsCommon.obj
 0002:0000ff30       $ip2state$?CreateBaton@njsCommon@@IEAAPEAVnjsBaton@@AEBV?$FunctionCallbackInfo@VValue@v8@@@Nan@@@Z 0000000180057f30     njsCommon.obj
 0002:0000ff78       $unwind$?fin$0@?0???$?RV<lambda_46352004c1216016012b18bd6f87e700>@@AEAV<lambda_3bd07e1a1191394380780325891bf33f>@@V<lambda_334532d3f185bcaa59b5be82d7d22bff>@@@?$__crt_seh_guarded_call@X@@QEAAX$$QEAV<lambda_46352004c1216016012b18bd6f87e700>@@AEAV<lambda_3bd07e1a1191394380780325891bf33f>@@$$QEAV<lambda_334532d3f185bcaa59b5be82d7d22bff>@@@Z@4HA 0000000180057f78     libucrt:per_thread_data.obj
 0002:0000ff78       $unwind$__acrt_lowio_ensure_fh_exists$fin$0 0000000180057f78     libucrt:osfinfo.obj
 0002:0000ff78       $unwind$?fin$0@?0???$?RV<lambda_fb3a7dec4e47f37f22dae91bb15c9095>@@AEAV<lambda_698284760c8add0bfb0756c19673e34b>@@V<lambda_dfb8eca1e75fef3034a8fb18dd509707>@@@?$__crt_seh_guarded_call@X@@QEAAX$$QEAV<lambda_fb3a7dec4e47f37f22dae91bb15c9095>@@AEAV<lambda_698284760c8add0bfb0756c19673e34b>@@$$QEAV<lambda_dfb8eca1e75fef3034a8fb18dd509707>@@@Z@4HA 0000000180057f78     libucrt:per_thread_data.obj
 0002:0000ff78       $unwind$?fin$0@?0??__acrt_stdio_allocate_stream@@YA?AV__crt_stdio_stream@@XZ@4HA 0000000180057f78     libucrt:stream.obj
 0002:0000ff78       $unwind$?fin$0@?0???$?RV<lambda_b8c45f8f788dd370798f47cfe8ac3a86>@@AEAV<lambda_4e60a939b0d047cfe11ddc22648dfba9>@@V<lambda_332c3edc96d0294ec56c57d38c1cdfd5>@@@?$__crt_seh_guarded_call@H@@QEAAH$$QEAV<lambda_b8c45f8f788dd370798f47cfe8ac3a86>@@AEAV<lambda_4e60a939b0d047cfe11ddc22648dfba9>@@$$QEAV<lambda_332c3edc96d0294ec56c57d38c1cdfd5>@@@Z@4HA 0000000180057f78     libucrt:onexit.obj
 0002:0000ff78       $unwind$?fin$0@?0???$common_fsopen@D@@YAPEAU_iobuf@@QEBD0H@Z@4HA 0000000180057f78     libucrt:fopen.obj
 0002:0000ff78       $unwind$?fin$0@?0???$?RV<lambda_aa279a7bcb127014629d5b1d62c7325d>@@AEAV<lambda_0a64b6a4deda75c01876f29c44fc5eb3>@@V<lambda_3323e69fbefe9d1a11713e670d47cdfa>@@@?$__crt_seh_guarded_call@H@@QEAAH$$QEAV<lambda_aa279a7bcb127014629d5b1d62c7325d>@@AEAV<lambda_0a64b6a4deda75c01876f29c44fc5eb3>@@$$QEAV<lambda_3323e69fbefe9d1a11713e670d47cdfa>@@@Z@4HA 0000000180057f78     libucrt:output.obj
 0002:0000ff78       $unwind$_fcloseall$fin$0   0000000180057f78     libucrt:closeall.obj
 0002:0000ff78       $unwind$?dtor$0@?0??New@njsOracledb@@CAXAEBV?$FunctionCallbackInfo@VValue@v8@@@Nan@@@Z@4HA 0000000180057f78     njsOracle.obj
 0002:0000ff78       $unwind$?fin$1@?0??common_exit@@YAXHW4_crt_exit_cleanup_mode@@W4_crt_exit_return_mode@@@Z@4HA 0000000180057f78     libucrt:exit.obj
 0002:0000ff78       $unwind$fflush$fin$0       0000000180057f78     libucrt:fflush.obj
 0002:0000ff78       $unwind$common_flush_all$fin$0 0000000180057f78     libucrt:fflush.obj
 0002:0000ff78       $unwind$?filt$0@?0??__ArrayUnwind@@YAXPEAX_K1P6AX0@Z@Z@4HA 0000000180057f78     LIBCMT:ehvecdtr.obj
 0002:0000ff78       $unwind$raise$fin$0        0000000180057f78     libucrt:signal.obj
 0002:0000ff78       $unwind$?dtor$0@?0??Async_Execute@njsConnection@@CAXPEAVnjsBaton@@@Z@4HA 0000000180057f78     njsConnection.obj
 0002:0000ff78       $unwind$__acrt_uninitialize_locale$fin$0 0000000180057f78     libucrt:wsetlocale.obj
 0002:0000ff78       $unwind$?fin$0@?0???_M@YAXPEAX_K1P6AX0@Z@Z@4HA 0000000180057f78     LIBCMT:ehvecdtr.obj
 0002:0000ff78       $unwind$_query_new_handler$fin$0 0000000180057f78     libucrt:new_handler.obj
 0002:0000ff78       $unwind$__CxxCallCatchBlock$filt$0 0000000180057f78     libvcruntime:frame.obj
 0002:0000ff78       $unwind$?fin$0@?0???$?RV<lambda_5e887d1dcbef67a5eb4283622ba103bf>@@AEAV<lambda_4466841279450cc726390878d4a41900>@@V<lambda_341c25c0346d94847f1f3c463c57e077>@@@?$__crt_seh_guarded_call@X@@QEAAX$$QEAV<lambda_5e887d1dcbef67a5eb4283622ba103bf>@@AEAV<lambda_4466841279450cc726390878d4a41900>@@$$QEAV<lambda_341c25c0346d94847f1f3c463c57e077>@@@Z@4HA 0000000180057f78     libucrt:per_thread_data.obj
 0002:0000ff78       $unwind$?dtor$0@?0???$?HDU?$char_traits@D@std@@V?$allocator@D@1@@std@@YA?AV?$basic_string@DU?$char_traits@D@std@@V?$allocator@D@2@@0@PEBDAEBV10@@Z@4HA 0000000180057f78     njsConnection.obj
 0002:0000ff78       $unwind$?fin$0@?0???$?RV<lambda_b521505b218e5242e90febf6bfebc422>@@AEAV<lambda_6978c1fb23f02e42e1d9e99668cc68aa>@@V<lambda_314360699dd331753a4119843814e9a7>@@@?$__crt_seh_guarded_call@H@@QEAAH$$QEAV<lambda_b521505b218e5242e90febf6bfebc422>@@AEAV<lambda_6978c1fb23f02e42e1d9e99668cc68aa>@@$$QEAV<lambda_314360699dd331753a4119843814e9a7>@@@Z@4HA 0000000180057f78     libucrt:commit.obj
 0002:0000ff78       $unwind$__acrt_update_thread_locale_data$fin$0 0000000180057f78     libucrt:locale_refcounting.obj
 0002:0000ff78       $unwind$?dtor$1@?0??ProcessVarBuffer@njsConnection@@CA_NPEAVnjsBaton@@PEAVnjsVariable@@PEAVnjsVariableBuffer@@@Z@4HA 0000000180057f78     njsConnection.obj
 0002:0000ff78       $unwind$_IsNonwritableInCurrentImage$filt$0 0000000180057f78     LIBCMT:pesect.obj
 0002:0000ff78       $unwind$?dtor$0@?0??Async_GetStatementInfo@njsConnection@@CAXPEAVnjsBaton@@@Z@4HA 0000000180057f78     njsConnection.obj
 0002:0000ff78       $unwind$_alloc_osfhnd$fin$0 0000000180057f78     libucrt:osfinfo.obj
 0002:0000ff78       $unwind$?fin$0@?0???$?RV<lambda_c36588078e9f5dfd39652860aa6b3aaf>@@AEAV<lambda_ec61778202f4f5fc7e7711acc23c3bca>@@V<lambda_dc9d2797ccde5d239b4a0efae8ebd7db>@@@?$__crt_seh_guarded_call@P6AXH@Z@@QEAAP6AXH@Z$$QEAV<lambda_c36588078e9f5dfd39652860aa6b3aaf>@@AEAV<lambda_ec61778202f4f5fc7e7711acc23c3bca>@@$$QEAV<lambda_dc9d2797ccde5d239b4a0efae8ebd7db>@@@Z@4HA 0000000180057f78     libucrt:signal.obj
 0002:0000ff78       $unwind$?fin$0@?0???$?RV<lambda_7b91131dde12e1c3dfc74ff76b3f2eac>@@AEAV<lambda_dd75445284c072d0bd3768540cc698fa>@@V<lambda_16bc4ecb55b4718497c16bceaea2ceaf>@@@?$__crt_seh_guarded_call@H@@QEAAH$$QEAV<lambda_7b91131dde12e1c3dfc74ff76b3f2eac>@@AEAV<lambda_dd75445284c072d0bd3768540cc698fa>@@$$QEAV<lambda_16bc4ecb55b4718497c16bceaea2ceaf>@@@Z@4HA 0000000180057f78     libucrt:output.obj
 0002:0000ff78       $unwind$?dtor$0@?0??ProcessVars@njsConnection@@SA_NPEAVnjsBaton@@PEAVnjsVariable@@II@Z@4HA 0000000180057f78     njsConnection.obj
 0002:0000ff78       $unwind$_write$fin$0       0000000180057f78     libucrt:write.obj
 0002:0000ff78       $unwind$common_flush_all$fin$1 0000000180057f78     libucrt:fflush.obj
 0002:0000ff78       $unwind$?dtor$2@?0??CreateBaton@njsCommon@@IEAAPEAVnjsBaton@@AEBV?$FunctionCallbackInfo@VValue@v8@@@Nan@@@Z@4HA 0000000180057f78     njsCommon.obj
 0002:0000ff78       $unwind$__acrt_update_thread_multibyte_data$fin$0 0000000180057f78     libucrt:mbctype.obj
 0002:0000ff78       $unwind$?fin$0@?0???$common_getenv@D@@YAPEADQEBD@Z@4HA 0000000180057f78     libucrt:getenv.obj
 0002:0000ff78       $unwind$?dtor$0@?0??InitBindVars@njsConnection@@CA_NV?$Local@VObject@v8@@@v8@@V?$Local@VArray@v8@@@3@PEAVnjsBaton@@@Z@4HA 0000000180057f78     njsConnection.obj
 0002:0000ff78       $unwind$?fin$0@?0???$common_lseek@_J@@YA_JH_JH@Z@4HA 0000000180057f78     libucrt:lseek.obj
 0002:0000ff78       $unwind$?filt$0@?0??common_exit@@YAXHW4_crt_exit_cleanup_mode@@W4_crt_exit_return_mode@@@Z@4HA 0000000180057f78     libucrt:exit.obj
 0002:0000ff78       $unwind$?fin$0@?0??dllmain_crt_process_attach@@YAHQEAUHINSTANCE__@@QEAX@Z@4HA 0000000180057f78     LIBCMT:dll_dllmain.obj
 0002:0000ff78       $unwind$__FrameUnwindToState$filt$0 0000000180057f78     libvcruntime:frame.obj
 0002:0000ff78       $unwind$?dtor$0@?0??Get@njsMessages@@SA?AV?$basic_string@DU?$char_traits@D@std@@V?$allocator@D@2@@std@@HZZ@4HA 0000000180057f78     njsMessages.obj
 0002:0000ff78       $unwind$common_control87$filt$0 0000000180057f78     libucrt:ieee.obj
 0002:0000ff78       $unwind$__DestructExceptionObject$filt$0 0000000180057f78     libvcruntime:frame.obj
 0002:0000ff78       $unwind$?dtor$0@?0??ProcessVarBuffer@njsConnection@@CA_NPEAVnjsBaton@@PEAVnjsVariable@@PEAVnjsVariableBuffer@@@Z@4HA 0000000180057f78     njsConnection.obj
 0002:0000ff78       $unwind$?fin$0@?0???_L@YAXPEAX_K1P6AX0@Z2@Z@4HA 0000000180057f78     LIBCMT:ehvecctr.obj
 0002:0000ff78       $unwind$?fin$0@?0???$?RV<lambda_bfedae4ebbf01fab1bb6dcc6a9e276e0>@@AEAV<lambda_2fe9b910cf3cbf4a0ab98a02ba45b3ec>@@V<lambda_237c231691f317818eb88cc1d5d642d6>@@@?$__crt_seh_guarded_call@H@@QEAAH$$QEAV<lambda_bfedae4ebbf01fab1bb6dcc6a9e276e0>@@AEAV<lambda_2fe9b910cf3cbf4a0ab98a02ba45b3ec>@@$$QEAV<lambda_237c231691f317818eb88cc1d5d642d6>@@@Z@4HA 0000000180057f78     libucrt:close.obj
 0002:0000ff78       $unwind$?fin$0@?0??dllmain_crt_process_detach@@YAH_N@Z@4HA 0000000180057f78     LIBCMT:dll_dllmain.obj
 0002:0000ff78       $unwind$?fin$0@?0???$?RV<lambda_e24bbb7b643b32fcea6fa61b31d4c984>@@AEAV<lambda_275893d493268fdec8709772e3fcec0e>@@V<lambda_9d71df4d7cf3f480f8d633942495c3b0>@@@?$__crt_seh_guarded_call@H@@QEAAH$$QEAV<lambda_e24bbb7b643b32fcea6fa61b31d4c984>@@AEAV<lambda_275893d493268fdec8709772e3fcec0e>@@$$QEAV<lambda_9d71df4d7cf3f480f8d633942495c3b0>@@@Z@4HA 0000000180057f78     libucrt:onexit.obj
 0002:0000ff78       $unwind$?dtor$2@?0??ProcessExecuteOptions@njsConnection@@CA_NV?$Local@VObject@v8@@@v8@@PEAVnjsBaton@@@Z@4HA 0000000180057f78     njsConnection.obj
 0002:0000ff78       $unwind$?fin$0@?0???$?RV<lambda_72d1df2b273a38828b1ce30cbf4cdab5>@@AEAV<lambda_876a65b173b8412d3a47c70a915b0cf4>@@V<lambda_41932305e351933ebe8f8be3ed8bb5dc>@@@?$__crt_seh_guarded_call@X@@QEAAX$$QEAV<lambda_72d1df2b273a38828b1ce30cbf4cdab5>@@AEAV<lambda_876a65b173b8412d3a47c70a915b0cf4>@@$$QEAV<lambda_41932305e351933ebe8f8be3ed8bb5dc>@@@Z@4HA 0000000180057f78     libucrt:per_thread_data.obj
 0002:0000ff78       $unwind$?fin$0@?0??common_fseek@@YAHV__crt_stdio_stream@@_JH@Z@4HA 0000000180057f78     libucrt:fseek.obj
 0002:0000ff78       $unwind$_ctrlfp$filt$0     0000000180057f78     libucrt:fpctrl.obj
 0002:0000ff78       $unwind$fclose$fin$0       0000000180057f78     libucrt:fclose.obj
 0002:0000ff78       $unwind$__FrameUnwindToState$fin$1 0000000180057f78     libvcruntime:frame.obj
 0002:0000ff78       $unwind$_read$fin$0        0000000180057f78     libucrt:read.obj
 0002:0000ff78       $unwind$__acrt_initialize_lowio$fin$0 0000000180057f78     libucrt:ioinit.obj
 0002:0000ff78       $unwind$?fin$0@?0???$?RV<lambda_99476a1ad63dd22509b5d3e65b0ffc95>@@AEAV<lambda_ad1ced32f4ac17aa236e5ef05d6b3b7c>@@V<lambda_f7424dd8d45958661754dc4f2697e9c3>@@@?$__crt_seh_guarded_call@X@@QEAAX$$QEAV<lambda_99476a1ad63dd22509b5d3e65b0ffc95>@@AEAV<lambda_ad1ced32f4ac17aa236e5ef05d6b3b7c>@@$$QEAV<lambda_f7424dd8d45958661754dc4f2697e9c3>@@@Z@4HA 0000000180057f78     libucrt:mbctype.obj
 0002:0000ff78       $unwind$?fin$0@?0???$?RV<lambda_7a5ef57ff966f610505f1d28a3d40618>@@AEAV<lambda_b721fa326cdb32351d23dfa67958c160>@@V<lambda_5e0fb27672408a07956fe59e48ccb2aa>@@@?$__crt_seh_guarded_call@H@@QEAAH$$QEAV<lambda_7a5ef57ff966f610505f1d28a3d40618>@@AEAV<lambda_b721fa326cdb32351d23dfa67958c160>@@$$QEAV<lambda_5e0fb27672408a07956fe59e48ccb2aa>@@@Z@4HA 0000000180057f78     libucrt:setvbuf.obj
 0002:0000ff80       $unwind$?GetObjectArg@njsCommon@@IEAA_NAEBV?$FunctionCallbackInfo@VValue@v8@@@Nan@@HAEAV?$Local@VObject@v8@@@v8@@@Z 0000000180057f80     njsCommon.obj
 0002:0000ff98       $stateUnwindMap$?GetObjectArg@njsCommon@@IEAA_NAEBV?$FunctionCallbackInfo@VValue@v8@@@Nan@@HAEAV?$Local@VObject@v8@@@v8@@@Z 0000000180057f98     njsCommon.obj
 0002:0000ffa8       $ip2state$?GetObjectArg@njsCommon@@IEAA_NAEBV?$FunctionCallbackInfo@VValue@v8@@@Nan@@HAEAV?$Local@VObject@v8@@@v8@@@Z 0000000180057fa8     njsCommon.obj
 0002:0000ffd0       $unwind$?GetStringArg@njsCommon@@IEAA_NAEBV?$FunctionCallbackInfo@VValue@v8@@@Nan@@HAEAV?$basic_string@DU?$char_traits@D@std@@V?$allocator@D@2@@std@@@Z 0000000180057fd0     njsCommon.obj
 0002:0000ffec       $stateUnwindMap$?GetStringArg@njsCommon@@IEAA_NAEBV?$FunctionCallbackInfo@VValue@v8@@@Nan@@HAEAV?$basic_string@DU?$char_traits@D@std@@V?$allocator@D@2@@std@@@Z 0000000180057fec     njsCommon.obj
 0002:00010010       $ip2state$?GetStringArg@njsCommon@@IEAA_NAEBV?$FunctionCallbackInfo@VValue@v8@@@Nan@@HAEAV?$basic_string@DU?$char_traits@D@std@@V?$allocator@D@2@@std@@@Z 0000000180058010     njsCommon.obj
 0002:00010058       $unwind$?GetUnsignedIntArg@njsCommon@@IEAA_NAEBV?$FunctionCallbackInfo@VValue@v8@@@Nan@@HPEAI@Z 0000000180058058     njsCommon.obj
 0002:00010070       $stateUnwindMap$?GetUnsignedIntArg@njsCommon@@IEAA_NAEBV?$FunctionCallbackInfo@VValue@v8@@@Nan@@HPEAI@Z 0000000180058070     njsCommon.obj
 0002:00010070       $stateUnwindMap$?SetPropInt@njsCommon@@IEAA_NV?$Local@VValue@v8@@@v8@@PEAHPEBD@Z 0000000180058070     njsCommon.obj
 0002:00010070       $stateUnwindMap$?SetPropPositiveInt@njsCommon@@IEAA_NV?$Local@VValue@v8@@@v8@@PEAIPEBD@Z 0000000180058070     njsCommon.obj
 0002:00010070       $stateUnwindMap$?SetPropUnsignedInt@njsCommon@@IEAA_NV?$Local@VValue@v8@@@v8@@PEAIPEBD@Z 0000000180058070     njsCommon.obj
 0002:00010070       $stateUnwindMap$?SetPropBool@njsCommon@@IEAA_NV?$Local@VValue@v8@@@v8@@PEA_NPEBD@Z 0000000180058070     njsCommon.obj
 0002:00010078       $ip2state$?GetUnsignedIntArg@njsCommon@@IEAA_NAEBV?$FunctionCallbackInfo@VValue@v8@@@Nan@@HPEAI@Z 0000000180058078     njsCommon.obj
 0002:00010090       $unwind$?SetPropBool@njsCommon@@IEAA_NV?$Local@VValue@v8@@@v8@@PEA_NPEBD@Z 0000000180058090     njsCommon.obj
 0002:000100a8       $ip2state$?SetPropBool@njsCommon@@IEAA_NV?$Local@VValue@v8@@@v8@@PEA_NPEBD@Z 00000001800580a8     njsCommon.obj
 0002:000100c0       $unwind$?SetPropInt@njsCommon@@IEAA_NV?$Local@VValue@v8@@@v8@@PEAHPEBD@Z 00000001800580c0     njsCommon.obj
 0002:000100d8       $ip2state$?SetPropInt@njsCommon@@IEAA_NV?$Local@VValue@v8@@@v8@@PEAHPEBD@Z 00000001800580d8     njsCommon.obj
 0002:000100f0       $unwind$?SetPropPositiveInt@njsCommon@@IEAA_NV?$Local@VValue@v8@@@v8@@PEAIPEBD@Z 00000001800580f0     njsCommon.obj
 0002:00010108       $ip2state$?SetPropPositiveInt@njsCommon@@IEAA_NV?$Local@VValue@v8@@@v8@@PEAIPEBD@Z 0000000180058108     njsCommon.obj
 0002:00010120       $unwind$?SetPropString@njsCommon@@IEAA_NV?$Local@VValue@v8@@@v8@@PEAV?$basic_string@DU?$char_traits@D@std@@V?$allocator@D@2@@std@@PEBD@Z 0000000180058120     njsCommon.obj
 0002:00010134       $stateUnwindMap$?SetPropString@njsCommon@@IEAA_NV?$Local@VValue@v8@@@v8@@PEAV?$basic_string@DU?$char_traits@D@std@@V?$allocator@D@2@@std@@PEBD@Z 0000000180058134     njsCommon.obj
 0002:00010150       $ip2state$?SetPropString@njsCommon@@IEAA_NV?$Local@VValue@v8@@@v8@@PEAV?$basic_string@DU?$char_traits@D@std@@V?$allocator@D@2@@std@@PEBD@Z 0000000180058150     njsCommon.obj
 0002:00010188       $unwind$?SetPropUnsignedInt@njsCommon@@IEAA_NV?$Local@VValue@v8@@@v8@@PEAIPEBD@Z 0000000180058188     njsCommon.obj
 0002:000101a0       $ip2state$?SetPropUnsignedInt@njsCommon@@IEAA_NV?$Local@VValue@v8@@@v8@@PEAIPEBD@Z 00000001800581a0     njsCommon.obj
 0002:000101b8       $unwind$?Validate@njsCommon@@KA_NPEAV1@_N@Z 00000001800581b8     njsCommon.obj
 0002:000101d4       $stateUnwindMap$?ValidateArgs@njsCommon@@KAPEAV1@AEBV?$FunctionCallbackInfo@VValue@v8@@@Nan@@HH@Z 00000001800581d4     njsCommon.obj
 0002:000101d4       $stateUnwindMap$?Validate@njsCommon@@KA_NPEAV1@_N@Z 00000001800581d4     njsCommon.obj
 0002:000101f0       $ip2state$?Validate@njsCommon@@KA_NPEAV1@_N@Z 00000001800581f0     njsCommon.obj
 0002:00010228       $unwind$?ValidateArgs@njsCommon@@KAPEAV1@AEBV?$FunctionCallbackInfo@VValue@v8@@@Nan@@HH@Z 0000000180058228     njsCommon.obj
 0002:00010250       $ip2state$?ValidateArgs@njsCommon@@KAPEAV1@AEBV?$FunctionCallbackInfo@VValue@v8@@@Nan@@HH@Z 0000000180058250     njsCommon.obj
 0002:00010288       $unwind$?PropertyIsReadOnly@njsCommon@@KAXPEBD@Z 0000000180058288     njsCommon.obj
 0002:000102a0       $ip2state$?PropertyIsReadOnly@njsCommon@@KAXPEBD@Z 00000001800582a0     njsCommon.obj
 0002:000102b8       $unwind$__acrt_stdio_flush_nolock 00000001800582b8     libucrt:fflush.obj
 0002:000102b8       $unwind$dpiHandleList__create 00000001800582b8     dpiHandleList.obj
 0002:000102b8       $unwind$dpiGen__setRefCount 00000001800582b8     dpiGen.obj
 0002:000102b8       $unwind$dpiOci__sessionEnd 00000001800582b8     dpiOci.obj
 0002:000102b8       $unwind$?type_case_n@?$output_processor@_WV?$string_output_adapter@_W@__crt_stdio_output@@V?$standard_base@_WV?$string_output_adapter@_W@__crt_stdio_output@@@2@@__crt_stdio_output@@AEAA_NXZ 00000001800582b8     libucrt:output.obj
 0002:000102b8       $unwind$_exception_enabled 00000001800582b8     libucrt:libm_error.obj
 0002:000102b8       $unwind$dpiOci__lobIsOpen  00000001800582b8     dpiOci.obj
 0002:000102b8       $unwind$__acrt_getptd_noexit 00000001800582b8     libucrt:per_thread_data.obj
 0002:000102b8       $unwind$dpiOci__memoryFree 00000001800582b8     dpiOci.obj
 0002:000102b8       $unwind$dpiOci__transCommit 00000001800582b8     dpiOci.obj
 0002:000102b8       $unwind$?type_case_Z@?$output_processor@_WV?$stream_output_adapter@_W@__crt_stdio_output@@V?$standard_base@_WV?$stream_output_adapter@_W@__crt_stdio_output@@@2@@__crt_stdio_output@@AEAA_NXZ 00000001800582b8     libucrt:output.obj
 0002:000102b8       $unwind$dpiObject__free    00000001800582b8     dpiObject.obj
 0002:000102b8       $unwind$dpiOci__lobGetLength2 00000001800582b8     dpiOci.obj
 0002:000102b8       $unwind$??$Reset@VObject@v8@@@?$Persistent@VObject@v8@@V?$NonCopyablePersistentTraits@VObject@v8@@@2@@Nan@@QEAAXAEBV?$PersistentBase@VObject@v8@@@v8@@@Z 00000001800582b8     njsPool.obj
 0002:000102b8       $unwind$dpiHandlePool__create 00000001800582b8     dpiHandlePool.obj
 0002:000102b8       $unwind$?type_case_n@?$output_processor@DV?$stream_output_adapter@D@__crt_stdio_output@@V?$standard_base@DV?$stream_output_adapter@D@__crt_stdio_output@@@2@@__crt_stdio_output@@AEAA_NXZ 00000001800582b8     libucrt:output.obj
 0002:000102b8       $unwind$memcpy_s           00000001800582b8     libucrt:cfout.obj
 0002:000102b8       $unwind$?type_case_Z@?$output_processor@DV?$stream_output_adapter@D@__crt_stdio_output@@V?$standard_base@DV?$stream_output_adapter@D@__crt_stdio_output@@@2@@__crt_stdio_output@@AEAA_NXZ 00000001800582b8     libucrt:output.obj
 0002:000102b8       $unwind$?assign@?$basic_string@DU?$char_traits@D@std@@V?$allocator@D@2@@std@@QEAAAEAV12@PEBD_K@Z 00000001800582b8     njsCommon.obj
 0002:000102b8       $unwind$?type_case_Z@?$output_processor@_WV?$string_output_adapter@_W@__crt_stdio_output@@V?$standard_base@_WV?$string_output_adapter@_W@__crt_stdio_output@@@2@@__crt_stdio_output@@AEAA_NXZ 00000001800582b8     libucrt:output.obj
 0002:000102b8       $unwind$_DllMainCRTStartup 00000001800582b8     LIBCMT:dll_dllmain.obj
 0002:000102b8       $unwind$__acrt_stdio_flush_and_write_wide_nolock 00000001800582b8     libucrt:_flsbuf.obj
 0002:000102b8       $unwind$dpiOci__loadSymbol 00000001800582b8     dpiOci.obj
 0002:000102b8       $unwind$dpiOci__numberToReal 00000001800582b8     dpiOci.obj
 0002:000102b8       $unwind$??$common_getenv_nolock@D@@YAPEADQEBD@Z 00000001800582b8     libucrt:getenv.obj
 0002:000102b8       $unwind$dpiOci__threadKeyDestroy 00000001800582b8     dpiOci.obj
 0002:000102b8       $unwind$??R<lambda_ad1ced32f4ac17aa236e5ef05d6b3b7c>@@QEBAXXZ 00000001800582b8     libucrt:mbctype.obj
 0002:000102b8       $unwind$__acrt_FlsSetValue 00000001800582b8     libucrt:winapi_thunks.obj
 0002:000102b8       $unwind$?_Tidy@?$basic_string@DU?$char_traits@D@std@@V?$allocator@D@2@@std@@QEAAX_N_K@Z 00000001800582b8     njsCommon.obj
 0002:000102b8       $unwind$?type_case_Z@?$output_processor@DV?$string_output_adapter@D@__crt_stdio_output@@V?$standard_base@DV?$string_output_adapter@D@__crt_stdio_output@@@2@@__crt_stdio_output@@AEAA_NXZ 00000001800582b8     libucrt:output.obj
 0002:000102b8       $unwind$__vcrt_getptd_noexit 00000001800582b8     libvcruntime:per_thread_data.obj
 0002:000102b8       $unwind$?type_case_n@?$output_processor@DV?$string_output_adapter@D@__crt_stdio_output@@V?$standard_base@DV?$string_output_adapter@D@__crt_stdio_output@@@2@@__crt_stdio_output@@AEAA_NXZ 00000001800582b8     libucrt:output.obj
 0002:000102b8       $unwind$_RTC_Terminate     00000001800582b8     LIBCMT:_initsect_.obj
 0002:000102b8       $unwind$?type_case_s@?$output_processor@_WV?$stream_output_adapter@_W@__crt_stdio_output@@V?$standard_base@_WV?$stream_output_adapter@_W@__crt_stdio_output@@@2@@__crt_stdio_output@@AEAA_NXZ 00000001800582b8     libucrt:output.obj
 0002:000102b8       $unwind$dpiOci__transRollback 00000001800582b8     dpiOci.obj
 0002:000102b8       $unwind$?type_case_n@?$output_processor@_WV?$stream_output_adapter@_W@__crt_stdio_output@@V?$standard_base@_WV?$stream_output_adapter@_W@__crt_stdio_output@@@2@@__crt_stdio_output@@AEAA_NXZ 00000001800582b8     libucrt:output.obj
 0002:000102b8       $unwind$_RTC_Initialize    00000001800582b8     LIBCMT:_initsect_.obj
 0002:000102b8       $unwind$??$common_lseek_nolock@_J@@YA_JH_JH@Z 00000001800582b8     libucrt:lseek.obj
 0002:000102b8       $unwind$?Async_AfterClose@njsResultSet@@CAXPEAVnjsBaton@@QEAV?$Local@VValue@v8@@@v8@@@Z 00000001800582b8     njsResultSet.obj
 0002:000102b8       $unwind$__vcrt_FlsSetValue 00000001800582b8     libvcruntime:winapi_downlevel.obj
 0002:000102b8       $unwind$?type_case_s@?$output_processor@DV?$stream_output_adapter@D@__crt_stdio_output@@V?$standard_base@DV?$stream_output_adapter@D@__crt_stdio_output@@@2@@__crt_stdio_output@@AEAA_NXZ 00000001800582b8     libucrt:output.obj
 0002:000102b8       $unwind$?type_case_s@?$output_processor@_WV?$string_output_adapter@_W@__crt_stdio_output@@V?$standard_base@_WV?$string_output_adapter@_W@__crt_stdio_output@@@2@@__crt_stdio_output@@AEAA_NXZ 00000001800582b8     libucrt:output.obj
 0002:000102b8       $unwind$_initterm_e        00000001800582b8     libucrt:initterm.obj
 0002:000102b8       $unwind$__acrt_stdio_flush_and_write_narrow_nolock 00000001800582b8     libucrt:_flsbuf.obj
 0002:000102b8       $unwind$?free_crt_array_internal@@YAXQEAPEBX_K@Z 00000001800582b8     libucrt:inittime.obj
 0002:000102b8       $unwind$dpiOci__serverDetach 00000001800582b8     dpiOci.obj
 0002:000102b8       $unwind$dpiOci__lobFreeTemporary 00000001800582b8     dpiOci.obj
 0002:000102b8       $unwind$dpiOci__nlsNumericInfoGet 00000001800582b8     dpiOci.obj
 0002:000102b8       $unwind$dpiOci__lobGetChunkSize 00000001800582b8     dpiOci.obj
 0002:000102b8       $unwind$__acrt_LocaleNameToLCID 00000001800582b8     libucrt:winapi_thunks.obj
 0002:000102b8       $unwind$dpiDataBuffer__toOracleNumberFromDouble 00000001800582b8     dpiData.obj
 0002:000102b8       $unwind$?type_case_s@?$output_processor@DV?$string_output_adapter@D@__crt_stdio_output@@V?$standard_base@DV?$string_output_adapter@D@__crt_stdio_output@@@2@@__crt_stdio_output@@AEAA_NXZ 00000001800582b8     libucrt:output.obj
 0002:000102b8       $unwind$dpiObjectType__free 00000001800582b8     dpiObjectType.obj
 0002:000102b8       $unwind$__acrt_execute_uninitializers 00000001800582b8     libucrt:shared_initialization.obj
 0002:000102c8       $unwind$_free_osfhnd       00000001800582c8     libucrt:osfinfo.obj
 0002:000102c8       $unwind$?assign@?$basic_string@DU?$char_traits@D@std@@V?$allocator@D@2@@std@@QEAAAEAV12@AEBV12@_K1@Z 00000001800582c8     njsCommon.obj
 0002:000102c8       $unwind$?initialize_stdio_handles_nolock@@YAXXZ 00000001800582c8     libucrt:ioinit.obj
 0002:000102c8       $unwind$__std_exception_copy 00000001800582c8     libvcruntime:std_exception.obj
 0002:000102dc       $unwind$?_Copy@?$basic_string@DU?$char_traits@D@std@@V?$allocator@D@2@@std@@QEAAX_K0@Z 00000001800582dc     njsCommon.obj
 0002:000102f0       $unwind$??$New@VString@v8@@V?$basic_string@DU?$char_traits@D@std@@V?$allocator@D@2@@std@@@Nan@@YA?AV?$MaybeLocal@VString@v8@@@v8@@V?$basic_string@DU?$char_traits@D@std@@V?$allocator@D@2@@std@@@Z 00000001800582f0     njsCommon.obj
 0002:0001030c       $stateUnwindMap$??$New@VString@v8@@V?$basic_string@DU?$char_traits@D@std@@V?$allocator@D@2@@std@@@Nan@@YA?AV?$MaybeLocal@VString@v8@@@v8@@V?$basic_string@DU?$char_traits@D@std@@V?$allocator@D@2@@std@@@Z 000000018005830c     njsCommon.obj
 0002:00010318       $ip2state$??$New@VString@v8@@V?$basic_string@DU?$char_traits@D@std@@V?$allocator@D@2@@std@@@Nan@@YA?AV?$MaybeLocal@VString@v8@@@v8@@V?$basic_string@DU?$char_traits@D@std@@V?$allocator@D@2@@std@@@Z 0000000180058318     njsCommon.obj
 0002:00010330       $unwind$??$Unwrap@VnjsPool@@@ObjectWrap@Nan@@SAPEAVnjsPool@@V?$Local@VObject@v8@@@v8@@@Z 0000000180058330     njsPool.obj
 0002:00010330       $unwind$??$Unwrap@VnjsCommon@@@ObjectWrap@Nan@@SAPEAVnjsCommon@@V?$Local@VObject@v8@@@v8@@@Z 0000000180058330     njsCommon.obj
 0002:00010330       $unwind$init               0000000180058330     njsOracle.obj
 0002:00010330       $unwind$??$Unwrap@VnjsResultSet@@@ObjectWrap@Nan@@SAPEAVnjsResultSet@@V?$Local@VObject@v8@@@v8@@@Z 0000000180058330     njsResultSet.obj
 0002:00010330       $unwind$??$Unwrap@VnjsConnection@@@ObjectWrap@Nan@@SAPEAVnjsConnection@@V?$Local@VObject@v8@@@v8@@@Z 0000000180058330     njsConnection.obj
 0002:00010330       $unwind$??$Unwrap@VnjsOracledb@@@ObjectWrap@Nan@@SAPEAVnjsOracledb@@V?$Local@VObject@v8@@@v8@@@Z 0000000180058330     njsCommon.obj
 0002:00010330       $unwind$??$Unwrap@VnjsILob@@@ObjectWrap@Nan@@SAPEAVnjsILob@@V?$Local@VObject@v8@@@v8@@@Z 0000000180058330     njsIntLob.obj
 0002:00010338       $unwind$sprintf            0000000180058338     njsOracle.obj
 0002:00010338       $unwind$fwprintf           0000000180058338     libucrt:assert.obj
 0002:00010344       $unwind$?FunctionCallbackWrapper@imp@Nan@@YAXAEBV?$FunctionCallbackInfo@VValue@v8@@@v8@@@Z 0000000180058344     njsOracle.obj
 0002:00010354       $unwind$?GetterCallbackWrapper@imp@Nan@@YAXV?$Local@VName@v8@@@v8@@AEBV?$PropertyCallbackInfo@VValue@v8@@@4@@Z 0000000180058354     njsOracle.obj
 0002:00010360       $unwind$?SetterCallbackWrapper@imp@Nan@@YAXV?$Local@VName@v8@@@v8@@V?$Local@VValue@v8@@@4@AEBV?$PropertyCallbackInfo@X@4@@Z 0000000180058360     njsOracle.obj
 0002:0001036c       $unwind$?NewInstance@Nan@@YA?AV?$MaybeLocal@VObject@v8@@@v8@@V?$Local@VObjectTemplate@v8@@@3@@Z 000000018005836c     njsOracle.obj
 0002:00010380       $ip2state$?NewInstance@Nan@@YA?AV?$MaybeLocal@VObject@v8@@@v8@@V?$Local@VObjectTemplate@v8@@@3@@Z 0000000180058380     njsOracle.obj
 0002:00010398       $unwind$?Get@Nan@@YA?AV?$MaybeLocal@VValue@v8@@@v8@@V?$Local@VObject@v8@@@3@I@Z 0000000180058398     njsOracle.obj
 0002:000103b0       $ip2state$?Get@Nan@@YA?AV?$MaybeLocal@VValue@v8@@@v8@@V?$Local@VObject@v8@@@3@I@Z 00000001800583b0     njsOracle.obj
 0002:000103c8       $unwind$?New@?$Factory@VFunctionTemplate@v8@@@imp@Nan@@SA?AV?$Local@VFunctionTemplate@v8@@@v8@@P6AXAEBV?$FunctionCallbackInfo@VValue@v8@@@3@@ZV?$Local@VValue@v8@@@5@V?$Local@VSignature@v8@@@5@@Z 00000001800583c8     njsOracle.obj
 0002:000103e0       $stateUnwindMap$?New@?$Factory@VFunctionTemplate@v8@@@imp@Nan@@SA?AV?$Local@VFunctionTemplate@v8@@@v8@@P6AXAEBV?$FunctionCallbackInfo@VValue@v8@@@3@@ZV?$Local@VValue@v8@@@5@V?$Local@VSignature@v8@@@5@@Z 00000001800583e0     njsOracle.obj
 0002:000103e8       $ip2state$?New@?$Factory@VFunctionTemplate@v8@@@imp@Nan@@SA?AV?$Local@VFunctionTemplate@v8@@@v8@@P6AXAEBV?$FunctionCallbackInfo@VValue@v8@@@3@@ZV?$Local@VValue@v8@@@5@V?$Local@VSignature@v8@@@5@@Z 00000001800583e8     njsOracle.obj
 0002:00010400       $unwind$?Error@Nan@@YA?AV?$Local@VValue@v8@@@v8@@PEBD@Z 0000000180058400     njsOracle.obj
 0002:00010418       $ip2state$?Error@Nan@@YA?AV?$Local@VValue@v8@@@v8@@PEBD@Z 0000000180058418     njsOracle.obj
 0002:00010430       $unwind$?SetPrototypeMethod@Nan@@YAXV?$Local@VFunctionTemplate@v8@@@v8@@PEBDP6AXAEBV?$FunctionCallbackInfo@VValue@v8@@@1@@Z@Z 0000000180058430     njsOracle.obj
 0002:00010448       $stateUnwindMap$?Async_AfterExecute@njsConnection@@CAXPEAVnjsBaton@@QEAV?$Local@VValue@v8@@@v8@@@Z 0000000180058448     njsConnection.obj
 0002:00010448       $stateUnwindMap$?SetPrototypeMethod@Nan@@YAXV?$Local@VFunctionTemplate@v8@@@v8@@PEBDP6AXAEBV?$FunctionCallbackInfo@VValue@v8@@@1@@Z@Z 0000000180058448     njsOracle.obj
 0002:00010450       $ip2state$?SetPrototypeMethod@Nan@@YAXV?$Local@VFunctionTemplate@v8@@@v8@@PEBDP6AXAEBV?$FunctionCallbackInfo@VValue@v8@@@1@@Z@Z 0000000180058450     njsOracle.obj
 0002:00010468       $unwind$?SetAccessor@Nan@@YAXV?$Local@VObjectTemplate@v8@@@v8@@V?$Local@VString@v8@@@3@P6AX1AEBV?$PropertyCallbackInfo@VValue@v8@@@1@@ZP6AX1V?$Local@VValue@v8@@@3@AEBV?$PropertyCallbackInfo@X@1@@Z4W4AccessControl@3@W4PropertyAttribute@3@V?$Local@VAccessorSignature@v8@@@3@@Z 0000000180058468     njsOracle.obj
 0002:00010480       $stateUnwindMap$?SetAccessor@Nan@@YAXV?$Local@VObjectTemplate@v8@@@v8@@V?$Local@VString@v8@@@3@P6AX1AEBV?$PropertyCallbackInfo@VValue@v8@@@1@@ZP6AX1V?$Local@VValue@v8@@@3@AEBV?$PropertyCallbackInfo@X@1@@Z4W4AccessControl@3@W4PropertyAttribute@3@V?$Local@VAccessorSignature@v8@@@3@@Z 0000000180058480     njsOracle.obj
 0002:00010480       $stateUnwindMap$?Async_AfterGetStatementInfo@njsConnection@@CAXPEAVnjsBaton@@QEAV?$Local@VValue@v8@@@v8@@@Z 0000000180058480     njsConnection.obj
 0002:00010480       $stateUnwindMap$?GetOutBinds@njsConnection@@CA_NAEAV?$Local@VValue@v8@@@v8@@IIPEAVnjsBaton@@@Z 0000000180058480     njsConnection.obj
 0002:00010488       $ip2state$?SetAccessor@Nan@@YAXV?$Local@VObjectTemplate@v8@@@v8@@V?$Local@VString@v8@@@3@P6AX1AEBV?$PropertyCallbackInfo@VValue@v8@@@1@@ZP6AX1V?$Local@VValue@v8@@@3@AEBV?$PropertyCallbackInfo@X@1@@Z4W4AccessControl@3@W4PropertyAttribute@3@V?$Local@VAccessorSignature@v8@@@3@@Z 0000000180058488     njsOracle.obj
 0002:000104a0       $unwind$??1ObjectWrap@Nan@@UEAA@XZ 00000001800584a0     njsOracle.obj
 0002:000104b0       $ip2state$??1ObjectWrap@Nan@@UEAA@XZ 00000001800584b0     njsOracle.obj
 0002:000104b8       $unwind$??$free_environment@_W@@YAXQEAPEA_W@Z 00000001800584b8     libucrt:environment_initialization.obj
 0002:000104b8       $unwind$?Wrap@ObjectWrap@Nan@@IEAAXV?$Local@VObject@v8@@@v8@@@Z 00000001800584b8     njsOracle.obj
 0002:000104b8       $unwind$??$free_environment@D@@YAXQEAPEAD@Z 00000001800584b8     libucrt:environment_initialization.obj
 0002:000104c4       $unwind$??1njsOracledb@@EEAA@XZ 00000001800584c4     njsOracle.obj
 0002:000104d8       $ip2state$??1njsOracledb@@EEAA@XZ 00000001800584d8     njsOracle.obj
 0002:000104e0       $unwind$??__F?oracledbTemplate_s@njsOracledb@@0V?$Persistent@VFunctionTemplate@v8@@V?$NonCopyablePersistentTraits@VFunctionTemplate@v8@@@2@@Nan@@A@@YAXXZ 00000001800584e0     njsOracle.obj
 0002:000104f0       $ip2state$??__F?oracledbTemplate_s@njsOracledb@@0V?$Persistent@VFunctionTemplate@v8@@V?$NonCopyablePersistentTraits@VFunctionTemplate@v8@@@2@@Nan@@A@@YAXXZ 00000001800584f0     njsOracle.obj
 0002:000104f8       $unwind$??0njsOracledb@@AEAA@XZ 00000001800584f8     njsOracle.obj
 0002:00010510       $stateUnwindMap$??0njsOracledb@@AEAA@XZ 0000000180058510     njsOracle.obj
 0002:00010538       $ip2state$??0njsOracledb@@AEAA@XZ 0000000180058538     njsOracle.obj
 0002:00010570       $unwind$?Init@njsOracledb@@SAXV?$Local@VObject@v8@@@v8@@@Z 0000000180058570     njsOracle.obj
 0002:00010588       $stateUnwindMap$?Init@njsOracledb@@SAXV?$Local@VObject@v8@@@v8@@@Z 0000000180058588     njsOracle.obj
 0002:00010590       $ip2state$?Init@njsOracledb@@SAXV?$Local@VObject@v8@@@v8@@@Z 0000000180058590     njsOracle.obj
 0002:000105a8       $unwind$?New@njsOracledb@@CAXAEBV?$FunctionCallbackInfo@VValue@v8@@@Nan@@@Z 00000001800585a8     njsOracle.obj
 0002:000105b8       $stateUnwindMap$?New@njsOracledb@@CAXAEBV?$FunctionCallbackInfo@VValue@v8@@@Nan@@@Z 00000001800585b8     njsOracle.obj
 0002:000105c0       $ip2state$?New@njsOracledb@@CAXAEBV?$FunctionCallbackInfo@VValue@v8@@@Nan@@@Z 00000001800585c0     njsOracle.obj
 0002:000105d8       $unwind$?SetPieceSize@njsILob@@CAXV?$Local@VString@v8@@@v8@@V?$Local@VValue@v8@@@3@AEBV?$PropertyCallbackInfo@X@Nan@@@Z 00000001800585d8     njsIntLob.obj
 0002:000105d8       $unwind$__acrt_locale_free_lc_time_if_unreferenced 00000001800585d8     libucrt:locale_refcounting.obj
 0002:000105d8       $unwind$_free_base         00000001800585d8     libucrt:free_base.obj
 0002:000105d8       $unwind$?SetEdition@njsOracledb@@CAXV?$Local@VString@v8@@@v8@@V?$Local@VValue@v8@@@3@AEBV?$PropertyCallbackInfo@X@Nan@@@Z 00000001800585d8     njsOracle.obj
 0002:000105d8       $unwind$?SetOffset@njsILob@@CAXV?$Local@VString@v8@@@v8@@V?$Local@VValue@v8@@@3@AEBV?$PropertyCallbackInfo@X@Nan@@@Z 00000001800585d8     njsIntLob.obj
 0002:000105d8       $unwind$?SetFetchArraySize@njsOracledb@@CAXV?$Local@VString@v8@@@v8@@V?$Local@VValue@v8@@@3@AEBV?$PropertyCallbackInfo@X@Nan@@@Z 00000001800585d8     njsOracle.obj
 0002:000105d8       $unwind$?SetConnectionClass@njsOracledb@@CAXV?$Local@VString@v8@@@v8@@V?$Local@VValue@v8@@@3@AEBV?$PropertyCallbackInfo@X@Nan@@@Z 00000001800585d8     njsOracle.obj
 0002:000105d8       $unwind$?SetExtendedMetaData@njsOracledb@@CAXV?$Local@VString@v8@@@v8@@V?$Local@VValue@v8@@@3@AEBV?$PropertyCallbackInfo@X@Nan@@@Z 00000001800585d8     njsOracle.obj
 0002:000105d8       $unwind$?SetStmtCacheSize@njsOracledb@@CAXV?$Local@VString@v8@@@v8@@V?$Local@VValue@v8@@@3@AEBV?$PropertyCallbackInfo@X@Nan@@@Z 00000001800585d8     njsOracle.obj
 0002:000105d8       $unwind$?SetMaxRows@njsOracledb@@CAXV?$Local@VString@v8@@@v8@@V?$Local@VValue@v8@@@3@AEBV?$PropertyCallbackInfo@X@Nan@@@Z 00000001800585d8     njsOracle.obj
 0002:000105d8       $unwind$?SetLobPrefetchSize@njsOracledb@@CAXV?$Local@VString@v8@@@v8@@V?$Local@VValue@v8@@@3@AEBV?$PropertyCallbackInfo@X@Nan@@@Z 00000001800585d8     njsOracle.obj
 0002:000105d8       $unwind$?SetAutoCommit@njsOracledb@@CAXV?$Local@VString@v8@@@v8@@V?$Local@VValue@v8@@@3@AEBV?$PropertyCallbackInfo@X@Nan@@@Z 00000001800585d8     njsOracle.obj
 0002:000105d8       $unwind$?SetEvents@njsOracledb@@CAXV?$Local@VString@v8@@@v8@@V?$Local@VValue@v8@@@3@AEBV?$PropertyCallbackInfo@X@Nan@@@Z 00000001800585d8     njsOracle.obj
 0002:000105d8       $unwind$__acrt_locale_free_numeric 00000001800585d8     libucrt:initnum.obj
 0002:000105d8       $unwind$?SetExternalAuth@njsOracledb@@CAXV?$Local@VString@v8@@@v8@@V?$Local@VValue@v8@@@3@AEBV?$PropertyCallbackInfo@X@Nan@@@Z 00000001800585d8     njsOracle.obj
 0002:000105d8       $unwind$?SetPoolTimeout@njsOracledb@@CAXV?$Local@VString@v8@@@v8@@V?$Local@VValue@v8@@@3@AEBV?$PropertyCallbackInfo@X@Nan@@@Z 00000001800585d8     njsOracle.obj
 0002:000105d8       $unwind$?SetPoolIncrement@njsOracledb@@CAXV?$Local@VString@v8@@@v8@@V?$Local@VValue@v8@@@3@AEBV?$PropertyCallbackInfo@X@Nan@@@Z 00000001800585d8     njsOracle.obj
 0002:000105d8       $unwind$?SetPoolPingInterval@njsOracledb@@CAXV?$Local@VString@v8@@@v8@@V?$Local@VValue@v8@@@3@AEBV?$PropertyCallbackInfo@X@Nan@@@Z 00000001800585d8     njsOracle.obj
 0002:000105d8       $unwind$?SetOutFormat@njsOracledb@@CAXV?$Local@VString@v8@@@v8@@V?$Local@VValue@v8@@@3@AEBV?$PropertyCallbackInfo@X@Nan@@@Z 00000001800585d8     njsOracle.obj
 0002:000105d8       $unwind$?destroy_fls@@YAXPEAX@Z 00000001800585d8     libucrt:per_thread_data.obj
 0002:000105d8       $unwind$?SetPoolMax@njsOracledb@@CAXV?$Local@VString@v8@@@v8@@V?$Local@VValue@v8@@@3@AEBV?$PropertyCallbackInfo@X@Nan@@@Z 00000001800585d8     njsOracle.obj
 0002:000105d8       $unwind$?SetPoolMin@njsOracledb@@CAXV?$Local@VString@v8@@@v8@@V?$Local@VValue@v8@@@3@AEBV?$PropertyCallbackInfo@X@Nan@@@Z 00000001800585d8     njsOracle.obj
 0002:000105e0       $unwind$abort              00000001800585e0     libucrt:abort.obj
 0002:000105e0       $unwind$__scrt_dllmain_crt_thread_detach 00000001800585e0     LIBCMT:utility.obj
 0002:000105e0       $unwind$__acrt_initialize_command_line 00000001800585e0     libucrt:argv_data.obj
 0002:000105e0       $unwind$?validate_stream_is_ansi_if_required@?$__acrt_stdio_char_traits@D@@SA_NQEAU_iobuf@@@Z 00000001800585e0     libucrt:output.obj
 0002:000105e0       $unwind$__acrt_uninitialize_ptd 00000001800585e0     libucrt:per_thread_data.obj
 0002:000105e0       $unwind$?SetAction@njsConnection@@CAXV?$Local@VString@v8@@@v8@@V?$Local@VValue@v8@@@3@AEBV?$PropertyCallbackInfo@X@Nan@@@Z 00000001800585e0     njsConnection.obj
 0002:000105e0       $unwind$__acrt_initialize_ptd 00000001800585e0     libucrt:per_thread_data.obj
 0002:000105e0       $unwind$_set_errno_from_matherr 00000001800585e0     libucrt:fpexcept.obj
 0002:000105e0       $unwind$_fileno            00000001800585e0     libucrt:fileno.obj
 0002:000105e0       $unwind$__std_terminate    00000001800585e0     libvcruntime:frame.obj
 0002:000105e0       $unwind$__scrt_dllmain_crt_thread_attach 00000001800585e0     LIBCMT:utility.obj
 0002:000105e0       $unwind$?state_case_size@?$output_processor@DV?$string_output_adapter@D@__crt_stdio_output@@V?$standard_base@DV?$string_output_adapter@D@__crt_stdio_output@@@2@@__crt_stdio_output@@AEAA_NXZ 00000001800585e0     libucrt:output.obj
 0002:000105e0       $unwind$?state_case_normal_tchar@?$output_processor@DV?$string_output_adapter@D@__crt_stdio_output@@V?$standard_base@DV?$string_output_adapter@D@__crt_stdio_output@@@2@@__crt_stdio_output@@AEAA_ND@Z 00000001800585e0     libucrt:output.obj
 0002:000105e0       $unwind$_get_osfhandle     00000001800585e0     libucrt:osfinfo.obj
 0002:000105e0       $unwind$?SetModule@njsConnection@@CAXV?$Local@VString@v8@@@v8@@V?$Local@VValue@v8@@@3@AEBV?$PropertyCallbackInfo@X@Nan@@@Z 00000001800585e0     njsConnection.obj
 0002:000105e0       $unwind$?SetOracleServerVersion@njsConnection@@CAXV?$Local@VString@v8@@@v8@@V?$Local@VValue@v8@@@3@AEBV?$PropertyCallbackInfo@X@Nan@@@Z 00000001800585e0     njsConnection.obj
 0002:000105e0       $unwind$__scrt_dllmain_uninitialize_critical 00000001800585e0     LIBCMT:utility.obj
 0002:000105e0       $unwind$dpiGlobal__initialize 00000001800585e0     dpiGlobal.obj
 0002:000105e0       $unwind$_statfp            00000001800585e0     libucrt:fpctrl.obj
 0002:000105e0       $unwind$?SetClientId@njsConnection@@CAXV?$Local@VString@v8@@@v8@@V?$Local@VValue@v8@@@3@AEBV?$PropertyCallbackInfo@X@Nan@@@Z 00000001800585e0     njsConnection.obj
 0002:000105e0       $unwind$tolower            00000001800585e0     libucrt:tolower_toupper.obj
 0002:000105e0       $unwind$__FrameUnwindFilter 00000001800585e0     libvcruntime:frame.obj
 0002:000105e0       $unwind$?SetStmtCacheSize@njsConnection@@CAXV?$Local@VString@v8@@@v8@@V?$Local@VValue@v8@@@3@AEBV?$PropertyCallbackInfo@X@Nan@@@Z 00000001800585e0     njsConnection.obj
 0002:000105e0       $unwind$?SetOracleClientVersionString@njsOracledb@@CAXV?$Local@VString@v8@@@v8@@V?$Local@VValue@v8@@@3@AEBV?$PropertyCallbackInfo@X@Nan@@@Z 00000001800585e0     njsOracle.obj
 0002:000105e0       $unwind$??$uninitialize_environment_internal@_W@@YAXAEAPEAPEA_W@Z 00000001800585e0     libucrt:environment_initialization.obj
 0002:000105e0       $unwind$_set_error_mode    00000001800585e0     libucrt:set_error_mode.obj
 0002:000105e0       $unwind$_strnicmp          00000001800585e0     libucrt:strnicmp.obj
 0002:000105e0       $unwind$?SetOracleClientVersion@njsOracledb@@CAXV?$Local@VString@v8@@@v8@@V?$Local@VValue@v8@@@3@AEBV?$PropertyCallbackInfo@X@Nan@@@Z 00000001800585e0     njsOracle.obj
 0002:000105e0       $unwind$?SetOracleServerVersionString@njsConnection@@CAXV?$Local@VString@v8@@@v8@@V?$Local@VValue@v8@@@3@AEBV?$PropertyCallbackInfo@X@Nan@@@Z 00000001800585e0     njsConnection.obj
 0002:000105e0       $unwind$_get_fmode         00000001800585e0     libucrt:setmode.obj
 0002:000105e0       $unwind$__acrt_release_locale_ref 00000001800585e0     libucrt:locale_refcounting.obj
 0002:000105e0       $unwind$__dcrt_terminate_console_output 00000001800585e0     libucrt:initcon.obj
 0002:000105e0       $unwind$__scrt_initialize_default_local_stdio_options 00000001800585e0     LIBCMT:default_local_stdio_options.obj
 0002:000105e0       $unwind$??$uninitialize_environment_internal@D@@YAXAEAPEAPEAD@Z 00000001800585e0     libucrt:environment_initialization.obj
 0002:000105e0       $unwind$__scrt_dllmain_uninitialize_c 00000001800585e0     LIBCMT:utility.obj
 0002:000105e0       $unwind$__vcrt_initialize  00000001800585e0     libvcruntime:initialization.obj
 0002:000105e0       $unwind$__scrt_dllmain_after_initialize_c 00000001800585e0     LIBCMT:utility.obj
 0002:000105e0       $unwind$?SetVersionString@njsOracledb@@CAXV?$Local@VString@v8@@@v8@@V?$Local@VValue@v8@@@3@AEBV?$PropertyCallbackInfo@X@Nan@@@Z 00000001800585e0     njsOracle.obj
 0002:000105e0       $unwind$__vcrt_uninitialize 00000001800585e0     libvcruntime:initialization.obj
 0002:000105e0       $unwind$dpiOracleType__getFromNum 00000001800585e0     dpiOracleType.obj
 0002:000105e0       $unwind$__scrt_dllmain_before_initialize_c 00000001800585e0     LIBCMT:utility.obj
 0002:000105e0       $unwind$_invoke_watson     00000001800585e0     libucrt:invalid_parameter.obj
 0002:000105e0       $unwind$_stricmp           00000001800585e0     libucrt:stricmp.obj
 0002:000105e0       $unwind$__dcrt_uninitialize_environments_nolock 00000001800585e0     libucrt:environment_initialization.obj
 0002:000105e0       $unwind$__vcrt_uninitialize_critical 00000001800585e0     libvcruntime:initialization.obj
 0002:000105e0       $unwind$?state_case_size@?$output_processor@_WV?$stream_output_adapter@_W@__crt_stdio_output@@V?$standard_base@_WV?$stream_output_adapter@_W@__crt_stdio_output@@@2@@__crt_stdio_output@@AEAA_NXZ 00000001800585e0     libucrt:output.obj
 0002:000105e0       $unwind$__vcrt_thread_attach 00000001800585e0     libvcruntime:initialization.obj
 0002:000105e0       $unwind$_errno             00000001800585e0     libucrt:errno.obj
 0002:000105e0       $unwind$__acrt_initialize_heap 00000001800585e0     libucrt:heap_handle.obj
 0002:000105e0       $unwind$dpiContext__create 00000001800585e0     dpiContext.obj
 0002:000105e0       $unwind$__report_rangecheckfailure 00000001800585e0     LIBCMT:gs_report.obj
 0002:000105e0       $unwind$__vcrt_thread_detach 00000001800585e0     libvcruntime:initialization.obj
 0002:000105e0       $unwind$__doserrno         00000001800585e0     libucrt:errno.obj
 0002:000105e0       $unwind$?SetChunkSize@njsILob@@CAXV?$Local@VString@v8@@@v8@@V?$Local@VValue@v8@@@3@AEBV?$PropertyCallbackInfo@X@Nan@@@Z 00000001800585e0     njsIntLob.obj
 0002:000105e0       $unwind$?SetLength@njsILob@@CAXV?$Local@VString@v8@@@v8@@V?$Local@VValue@v8@@@3@AEBV?$PropertyCallbackInfo@X@Nan@@@Z 00000001800585e0     njsIntLob.obj
 0002:000105e0       $unwind$_msize             00000001800585e0     libucrt:msize.obj
 0002:000105e0       $unwind$?SetVersionSuffix@njsOracledb@@CAXV?$Local@VString@v8@@@v8@@V?$Local@VValue@v8@@@3@AEBV?$PropertyCallbackInfo@X@Nan@@@Z 00000001800585e0     njsOracle.obj
 0002:000105e0       $unwind$?SetStmtCacheSize@njsPool@@CAXV?$Local@VString@v8@@@v8@@V?$Local@VValue@v8@@@3@AEBV?$PropertyCallbackInfo@X@Nan@@@Z 00000001800585e0     njsPool.obj
 0002:000105e0       $unwind$?SetPoolPingInterval@njsPool@@CAXV?$Local@VString@v8@@@v8@@V?$Local@VValue@v8@@@3@AEBV?$PropertyCallbackInfo@X@Nan@@@Z 00000001800585e0     njsPool.obj
 0002:000105e0       $unwind$__vcrt_initialize_ptd 00000001800585e0     libvcruntime:per_thread_data.obj
 0002:000105e0       $unwind$__acrt_DownlevelLocaleNameToLCID 00000001800585e0     libucrt:lcidtoname_downlevel.obj
 0002:000105e0       $unwind$__acrt_uninitialize_critical 00000001800585e0     libucrt:initialization.obj
 0002:000105e0       $unwind$__GSHandlerCheck   00000001800585e0     LIBCMT:_gshandler_.obj
 0002:000105e0       $unwind$__vcrt_uninitialize_ptd 00000001800585e0     libvcruntime:per_thread_data.obj
 0002:000105e0       $unwind$?initialize_multibyte@@YAHXZ 00000001800585e0     libucrt:multibyte_initializer.obj
 0002:000105e0       $unwind$__vcrt_getptd      00000001800585e0     libvcruntime:per_thread_data.obj
 0002:000105e0       $unwind$?SetConnectionsInUse@njsPool@@CAXV?$Local@VString@v8@@@v8@@V?$Local@VValue@v8@@@3@AEBV?$PropertyCallbackInfo@X@Nan@@@Z 00000001800585e0     njsPool.obj
 0002:000105e0       $unwind$?SetConnectionsOpen@njsPool@@CAXV?$Local@VString@v8@@@v8@@V?$Local@VValue@v8@@@3@AEBV?$PropertyCallbackInfo@X@Nan@@@Z 00000001800585e0     njsPool.obj
 0002:000105e0       $unwind$?SetType@njsILob@@CAXV?$Local@VString@v8@@@v8@@V?$Local@VValue@v8@@@3@AEBV?$PropertyCallbackInfo@X@Nan@@@Z 00000001800585e0     njsIntLob.obj
 0002:000105e0       $unwind$?SetPoolTimeout@njsPool@@CAXV?$Local@VString@v8@@@v8@@V?$Local@VValue@v8@@@3@AEBV?$PropertyCallbackInfo@X@Nan@@@Z 00000001800585e0     njsPool.obj
 0002:000105e0       $unwind$__scrt_acquire_startup_lock 00000001800585e0     LIBCMT:utility.obj
 0002:000105e0       $unwind$__vcrt_freefls     00000001800585e0     libvcruntime:per_thread_data.obj
 0002:000105e0       $unwind$?SetIsAutoClose@njsILob@@CAXV?$Local@VString@v8@@@v8@@V?$Local@VValue@v8@@@3@AEBV?$PropertyCallbackInfo@X@Nan@@@Z 00000001800585e0     njsIntLob.obj
 0002:000105e0       $unwind$__acrt_thread_attach 00000001800585e0     libucrt:initialization.obj
 0002:000105e0       $unwind$?SetIsValid@njsILob@@CAXV?$Local@VString@v8@@@v8@@V?$Local@VValue@v8@@@3@AEBV?$PropertyCallbackInfo@X@Nan@@@Z 00000001800585e0     njsIntLob.obj
 0002:000105e0       $unwind$?SetPoolIncrement@njsPool@@CAXV?$Local@VString@v8@@@v8@@V?$Local@VValue@v8@@@3@AEBV?$PropertyCallbackInfo@X@Nan@@@Z 00000001800585e0     njsPool.obj
 0002:000105e0       $unwind$_GetThrowImageBase 00000001800585e0     libvcruntime:trnsctrl.obj
 0002:000105e0       $unwind$?SetPoolMax@njsPool@@CAXV?$Local@VString@v8@@@v8@@V?$Local@VValue@v8@@@3@AEBV?$PropertyCallbackInfo@X@Nan@@@Z 00000001800585e0     njsPool.obj
 0002:000105e0       $unwind$atexit             00000001800585e0     LIBCMT:utility.obj
 0002:000105e0       $unwind$?SetPoolMin@njsPool@@CAXV?$Local@VString@v8@@@v8@@V?$Local@VValue@v8@@@3@AEBV?$PropertyCallbackInfo@X@Nan@@@Z 00000001800585e0     njsPool.obj
 0002:000105e0       $unwind$__pctype_func      00000001800585e0     libucrt:ctype.obj
 0002:000105e0       $unwind$?state_case_size@?$output_processor@DV?$stream_output_adapter@D@__crt_stdio_output@@V?$standard_base@DV?$stream_output_adapter@D@__crt_stdio_output@@@2@@__crt_stdio_output@@AEAA_NXZ 00000001800585e0     libucrt:output.obj
 0002:000105e0       $unwind$_GetImageBase      00000001800585e0     libvcruntime:trnsctrl.obj
 0002:000105e0       $unwind$__acrt_initialize_multibyte 00000001800585e0     libucrt:mbctype.obj
 0002:000105e0       $unwind$_isatty            00000001800585e0     libucrt:isatty.obj
 0002:000105e0       $unwind$__acrt_thread_detach 00000001800585e0     libucrt:initialization.obj
 0002:000105e0       $unwind$dpiDebug__initialize 00000001800585e0     dpiDebug.obj
 0002:000105e0       $unwind$?state_case_size@?$output_processor@_WV?$string_output_adapter@_W@__crt_stdio_output@@V?$standard_base@_WV?$string_output_adapter@_W@__crt_stdio_output@@@2@@__crt_stdio_output@@AEAA_NXZ 00000001800585e0     libucrt:output.obj
 0002:000105e0       $unwind$_getfpstatusword   00000001800585e0     libucrt:_fenvutils.obj
 0002:000105e0       $unwind$initialize_c       00000001800585e0     libucrt:initialization.obj
 0002:000105e0       $unwind$?dllmain_crt_dispatch@@YAHQEAUHINSTANCE__@@KQEAX@Z 00000001800585e0     LIBCMT:dll_dllmain.obj
 0002:000105e0       $unwind$_getfpcontrolword  00000001800585e0     libucrt:_fenvutils.obj
 0002:000105e0       $unwind$?SetVersion@njsOracledb@@CAXV?$Local@VString@v8@@@v8@@V?$Local@VValue@v8@@@3@AEBV?$PropertyCallbackInfo@X@Nan@@@Z 00000001800585e0     njsOracle.obj
 0002:000105e0       $unwind$?__GetCurrentState@@YAHPEA_KPEAU_xDISPATCHER_CONTEXT@@PEBU_s_FuncInfo@@@Z 00000001800585e0     libvcruntime:ehstate.obj
 0002:000105e0       $unwind$?SetMetaData@njsResultSet@@CAXV?$Local@VString@v8@@@v8@@V?$Local@VValue@v8@@@3@AEBV?$PropertyCallbackInfo@X@Nan@@@Z 00000001800585e0     njsResultSet.obj
 0002:000105e0       $unwind$uninitialize_environment 00000001800585e0     libucrt:initialization.obj
 0002:000105e8       $unwind$wcstol             00000001800585e8     libucrt:strtox.obj
 0002:000105e8       $unwind$??0out_of_range@std@@QEAA@PEBD@Z 00000001800585e8     libcpmt:xthrow.obj
 0002:000105e8       $unwind$dpiOci__loadLibValidate 00000001800585e8     dpiOci.obj
 0002:000105e8       $unwind$?GetVersionString@njsOracledb@@CAXV?$Local@VString@v8@@@v8@@AEBV?$PropertyCallbackInfo@VValue@v8@@@Nan@@@Z 00000001800585e8     njsOracle.obj
 0002:000105e8       $unwind$dpiGlobal__extendedInitialize 00000001800585e8     dpiGlobal.obj
 0002:000105e8       $unwind$strtol             00000001800585e8     libucrt:strtox.obj
 0002:000105e8       $unwind$dpiConn__getServerCharset 00000001800585e8     dpiConn.obj
 0002:000105e8       $unwind$??$common_xtox_s@K_W@@YAHKQEA_W_KI_N@Z 00000001800585e8     libucrt:xtoa.obj
 0002:000105e8       $unwind$??0length_error@std@@QEAA@PEBD@Z 00000001800585e8     libcpmt:xthrow.obj
 0002:000105e8       $unwind$_time64            00000001800585e8     libucrt:time.obj
 0002:000105f0       $unwind$dpiOci__lobCreateTemporary 00000001800585f0     dpiOci.obj
 0002:000105f0       $unwind$?GetConnectionClass@njsOracledb@@CAXV?$Local@VString@v8@@@v8@@AEBV?$PropertyCallbackInfo@VValue@v8@@@Nan@@@Z 00000001800585f0     njsOracle.obj
 0002:000105f0       $unwind$?GetOracleClientVersion@njsOracledb@@CAXV?$Local@VString@v8@@@v8@@AEBV?$PropertyCallbackInfo@VValue@v8@@@Nan@@@Z 00000001800585f0     njsOracle.obj
 0002:000105f0       $unwind$_mbsdec_l          00000001800585f0     libucrt:mbsdec.obj
 0002:000105f0       $unwind$?GetOracleServerVersion@njsConnection@@CAXV?$Local@VString@v8@@@v8@@AEBV?$PropertyCallbackInfo@VValue@v8@@@Nan@@@Z 00000001800585f0     njsConnection.obj
 0002:000105f0       $unwind$?GetEdition@njsOracledb@@CAXV?$Local@VString@v8@@@v8@@AEBV?$PropertyCallbackInfo@VValue@v8@@@Nan@@@Z 00000001800585f0     njsOracle.obj
 0002:000105fc       $unwind$?SetFetchAsString@njsOracledb@@CAXV?$Local@VString@v8@@@v8@@V?$Local@VValue@v8@@@3@AEBV?$PropertyCallbackInfo@X@Nan@@@Z 00000001800585fc     njsOracle.obj
 0002:0001061c       $stateUnwindMap$?SetFetchAsBuffer@njsOracledb@@CAXV?$Local@VString@v8@@@v8@@V?$Local@VValue@v8@@@3@AEBV?$PropertyCallbackInfo@X@Nan@@@Z 000000018005861c     njsOracle.obj
 0002:0001061c       $stateUnwindMap$?SetFetchAsString@njsOracledb@@CAXV?$Local@VString@v8@@@v8@@V?$Local@VValue@v8@@@3@AEBV?$PropertyCallbackInfo@X@Nan@@@Z 000000018005861c     njsOracle.obj
 0002:00010638       $ip2state$?SetFetchAsString@njsOracledb@@CAXV?$Local@VString@v8@@@v8@@V?$Local@VValue@v8@@@3@AEBV?$PropertyCallbackInfo@X@Nan@@@Z 0000000180058638     njsOracle.obj
 0002:00010670       $unwind$?SetFetchAsBuffer@njsOracledb@@CAXV?$Local@VString@v8@@@v8@@V?$Local@VValue@v8@@@3@AEBV?$PropertyCallbackInfo@X@Nan@@@Z 0000000180058670     njsOracle.obj
 0002:00010690       $ip2state$?SetFetchAsBuffer@njsOracledb@@CAXV?$Local@VString@v8@@@v8@@V?$Local@VValue@v8@@@3@AEBV?$PropertyCallbackInfo@X@Nan@@@Z 0000000180058690     njsOracle.obj
 0002:000106c8       $unwind$?GetOracleClientVersionString@njsOracledb@@CAXV?$Local@VString@v8@@@v8@@AEBV?$PropertyCallbackInfo@VValue@v8@@@Nan@@@Z 00000001800586c8     njsOracle.obj
 0002:000106e0       $unwind$?GetConnection@njsOracledb@@CAXAEBV?$FunctionCallbackInfo@VValue@v8@@@Nan@@@Z 00000001800586e0     njsOracle.obj
 0002:000106ec       $chain$0$?GetConnection@njsOracledb@@CAXAEBV?$FunctionCallbackInfo@VValue@v8@@@Nan@@@Z 00000001800586ec     njsOracle.obj
 0002:00010700       $chain$3$?GetConnection@njsOracledb@@CAXAEBV?$FunctionCallbackInfo@VValue@v8@@@Nan@@@Z 0000000180058700     njsOracle.obj
 0002:0001071c       $chain$4$?GetConnection@njsOracledb@@CAXAEBV?$FunctionCallbackInfo@VValue@v8@@@Nan@@@Z 000000018005871c     njsOracle.obj
 0002:0001072c       $chain$5$?GetConnection@njsOracledb@@CAXAEBV?$FunctionCallbackInfo@VValue@v8@@@Nan@@@Z 000000018005872c     njsOracle.obj
 0002:0001073c       $unwind$?Async_GetConnection@njsOracledb@@CAXPEAVnjsBaton@@@Z 000000018005873c     njsOracle.obj
 0002:0001074c       $unwind$?CreatePool@njsOracledb@@CAXAEBV?$FunctionCallbackInfo@VValue@v8@@@Nan@@@Z 000000018005874c     njsOracle.obj
 0002:00010758       $chain$0$?CreatePool@njsOracledb@@CAXAEBV?$FunctionCallbackInfo@VValue@v8@@@Nan@@@Z 0000000180058758     njsOracle.obj
 0002:0001076c       $chain$2$?CreatePool@njsOracledb@@CAXAEBV?$FunctionCallbackInfo@VValue@v8@@@Nan@@@Z 000000018005876c     njsOracle.obj
 0002:00010784       $chain$5$?CreatePool@njsOracledb@@CAXAEBV?$FunctionCallbackInfo@VValue@v8@@@Nan@@@Z 0000000180058784     njsOracle.obj
 0002:000107a0       $chain$6$?CreatePool@njsOracledb@@CAXAEBV?$FunctionCallbackInfo@VValue@v8@@@Nan@@@Z 00000001800587a0     njsOracle.obj
 0002:000107b0       $chain$7$?CreatePool@njsOracledb@@CAXAEBV?$FunctionCallbackInfo@VValue@v8@@@Nan@@@Z 00000001800587b0     njsOracle.obj
 0002:000107c0       $chain$8$?CreatePool@njsOracledb@@CAXAEBV?$FunctionCallbackInfo@VValue@v8@@@Nan@@@Z 00000001800587c0     njsOracle.obj
 0002:000107d0       $unwind$?Async_CreatePool@njsOracledb@@CAXPEAVnjsBaton@@@Z 00000001800587d0     njsOracle.obj
 0002:000107e0       $unwind$?SetFetchAsStringTypesOnBaton@njsOracledb@@QEBAXPEAVnjsBaton@@@Z 00000001800587e0     njsOracle.obj
 0002:000107f8       $ip2state$?SetFetchAsStringTypesOnBaton@njsOracledb@@QEBAXPEAVnjsBaton@@@Z 00000001800587f8     njsOracle.obj
 0002:00010810       $unwind$?SetFetchAsBufferTypesOnBaton@njsOracledb@@QEBAXPEAVnjsBaton@@@Z 0000000180058810     njsOracle.obj
 0002:00010828       $ip2state$?SetFetchAsBufferTypesOnBaton@njsOracledb@@QEBAXPEAVnjsBaton@@@Z 0000000180058828     njsOracle.obj
 0002:00010840       $unwind$?ThrowDPIError@njsOracledb@@SAXXZ 0000000180058840     njsOracle.obj
 0002:00010868       $stateUnwindMap$?ThrowDPIError@njsOracledb@@SAXXZ 0000000180058868     njsOracle.obj
 0002:00010878       $ip2state$?ThrowDPIError@njsOracledb@@SAXXZ 0000000180058878     njsOracle.obj
 0002:000108a0       $unwind$?NewInstance@Nan@@YA?AV?$MaybeLocal@VObject@v8@@@v8@@V?$Local@VFunction@v8@@@3@@Z 00000001800588a0     njsPool.obj
 0002:000108b8       $ip2state$?NewInstance@Nan@@YA?AV?$MaybeLocal@VObject@v8@@@v8@@V?$Local@VFunction@v8@@@3@@Z 00000001800588b8     njsPool.obj
 0002:000108d0       $unwind$?GetFunction@Nan@@YA?AV?$MaybeLocal@VFunction@v8@@@v8@@V?$Local@VFunctionTemplate@v8@@@3@@Z 00000001800588d0     njsPool.obj
 0002:000108e8       $ip2state$?GetFunction@Nan@@YA?AV?$MaybeLocal@VFunction@v8@@@v8@@V?$Local@VFunctionTemplate@v8@@@3@@Z 00000001800588e8     njsPool.obj
 0002:00010900       $unwind$??_GnjsPool@@EEAAPEAXI@Z 0000000180058900     njsPool.obj
 0002:00010914       $stateUnwindMap$??_GnjsPool@@EEAAPEAXI@Z 0000000180058914     njsPool.obj
 0002:00010914       $stateUnwindMap$??_GnjsConnection@@EEAAPEAXI@Z 0000000180058914     njsConnection.obj
 0002:00010928       $ip2state$??_GnjsPool@@EEAAPEAXI@Z 0000000180058928     njsPool.obj
 0002:00010940       $unwind$??__F?poolTemplate_s@njsPool@@0V?$Persistent@VFunctionTemplate@v8@@V?$NonCopyablePersistentTraits@VFunctionTemplate@v8@@@2@@Nan@@A@@YAXXZ 0000000180058940     njsPool.obj
 0002:00010950       $ip2state$??__F?poolTemplate_s@njsPool@@0V?$Persistent@VFunctionTemplate@v8@@V?$NonCopyablePersistentTraits@VFunctionTemplate@v8@@@2@@Nan@@A@@YAXXZ 0000000180058950     njsPool.obj
 0002:00010958       $unwind$?Init@njsPool@@SAXV?$Local@VObject@v8@@@v8@@@Z 0000000180058958     njsPool.obj
 0002:0001096c       $stateUnwindMap$?Init@njsResultSet@@SAXV?$Local@VObject@v8@@@v8@@@Z 000000018005896c     njsResultSet.obj
 0002:0001096c       $stateUnwindMap$?Init@njsConnection@@SAXV?$Local@VObject@v8@@@v8@@@Z 000000018005896c     njsConnection.obj
 0002:0001096c       $stateUnwindMap$?Init@njsILob@@SAXV?$Local@VObject@v8@@@v8@@@Z 000000018005896c     njsIntLob.obj
 0002:0001096c       $stateUnwindMap$?Init@njsPool@@SAXV?$Local@VObject@v8@@@v8@@@Z 000000018005896c     njsPool.obj
 0002:00010978       $ip2state$?Init@njsPool@@SAXV?$Local@VObject@v8@@@v8@@@Z 0000000180058978     njsPool.obj
 0002:00010990       $unwind$?CreateFromBaton@njsPool@@SA?AV?$Local@VObject@v8@@@v8@@PEAVnjsBaton@@@Z 0000000180058990     njsPool.obj
 0002:000109b0       $ip2state$?CreateFromBaton@njsPool@@SA?AV?$Local@VObject@v8@@@v8@@PEAVnjsBaton@@@Z 00000001800589b0     njsPool.obj
 0002:000109c8       $unwind$?Break@njsConnection@@CAXAEBV?$FunctionCallbackInfo@VValue@v8@@@Nan@@@Z 00000001800589c8     njsConnection.obj
 0002:000109c8       $unwind$?Close@njsPool@@CAXAEBV?$FunctionCallbackInfo@VValue@v8@@@Nan@@@Z 00000001800589c8     njsPool.obj
 0002:000109c8       $unwind$?Ping@njsConnection@@CAXAEBV?$FunctionCallbackInfo@VValue@v8@@@Nan@@@Z 00000001800589c8     njsConnection.obj
 0002:000109c8       $unwind$dpiConn__getHandles 00000001800589c8     dpiConn.obj
 0002:000109c8       $unwind$?Rollback@njsConnection@@CAXAEBV?$FunctionCallbackInfo@VValue@v8@@@Nan@@@Z 00000001800589c8     njsConnection.obj
 0002:000109c8       $unwind$?GetConnection@njsPool@@CAXAEBV?$FunctionCallbackInfo@VValue@v8@@@Nan@@@Z 00000001800589c8     njsPool.obj
 0002:000109c8       $unwind$??$__acrt_stdio_parse_mode@D@@YA?AU__acrt_stdio_stream_mode@@QEBD@Z 00000001800589c8     libucrt:openfile.obj
 0002:000109c8       $unwind$dpiStmt__free      00000001800589c8     dpiStmt.obj
 0002:000109c8       $unwind$?Close@njsConnection@@CAXAEBV?$FunctionCallbackInfo@VValue@v8@@@Nan@@@Z 00000001800589c8     njsConnection.obj
 0002:000109c8       $unwind$?Commit@njsConnection@@CAXAEBV?$FunctionCallbackInfo@VValue@v8@@@Nan@@@Z 00000001800589c8     njsConnection.obj
 0002:000109d4       $unwind$?Async_GetConnection@njsPool@@CAXPEAVnjsBaton@@@Z 00000001800589d4     njsPool.obj
 0002:000109e0       $unwind$?Set@Nan@@YA?AV?$Maybe@_N@v8@@V?$Local@VObject@v8@@@3@IV?$Local@VValue@v8@@@3@@Z 00000001800589e0     njsConnection.obj
 0002:000109f8       $ip2state$?Set@Nan@@YA?AV?$Maybe@_N@v8@@V?$Local@VObject@v8@@@3@IV?$Local@VValue@v8@@@3@@Z 00000001800589f8     njsConnection.obj
 0002:00010a10       $unwind$?DefineOwnProperty@Nan@@YA?AV?$Maybe@_N@v8@@V?$Local@VObject@v8@@@3@V?$Local@VString@v8@@@3@V?$Local@VValue@v8@@@3@W4PropertyAttribute@3@@Z 0000000180058a10     njsConnection.obj
 0002:00010a28       $ip2state$?DefineOwnProperty@Nan@@YA?AV?$Maybe@_N@v8@@V?$Local@VObject@v8@@@3@V?$Local@VString@v8@@@3@V?$Local@VValue@v8@@@3@W4PropertyAttribute@3@@Z 0000000180058a28     njsConnection.obj
 0002:00010a40       $unwind$?convert@?$ToFactory@VInteger@v8@@@imp@Nan@@SA?AV?$MaybeLocal@VInteger@v8@@@v8@@V?$Local@VValue@v8@@@5@@Z 0000000180058a40     njsConnection.obj
 0002:00010a58       $ip2state$?convert@?$ToFactory@VInteger@v8@@@imp@Nan@@SA?AV?$MaybeLocal@VInteger@v8@@@v8@@V?$Local@VValue@v8@@@5@@Z 0000000180058a58     njsConnection.obj
 0002:00010a70       $unwind$?convert@?$ToFactory@VInt32@v8@@@imp@Nan@@SA?AV?$MaybeLocal@VInt32@v8@@@v8@@V?$Local@VValue@v8@@@5@@Z 0000000180058a70     njsConnection.obj
 0002:00010a88       $ip2state$?convert@?$ToFactory@VInt32@v8@@@imp@Nan@@SA?AV?$MaybeLocal@VInt32@v8@@@v8@@V?$Local@VValue@v8@@@5@@Z 0000000180058a88     njsConnection.obj
 0002:00010aa0       $unwind$?New@?$Factory@VDate@v8@@@imp@Nan@@SA?AV?$MaybeLocal@VDate@v8@@@v8@@N@Z 0000000180058aa0     njsConnection.obj
 0002:00010ab8       $ip2state$?New@?$Factory@VDate@v8@@@imp@Nan@@SA?AV?$MaybeLocal@VDate@v8@@@v8@@N@Z 0000000180058ab8     njsConnection.obj
 0002:00010ad0       $unwind$??_GnjsConnection@@EEAAPEAXI@Z 0000000180058ad0     njsConnection.obj
 0002:00010ae8       $ip2state$??_GnjsConnection@@EEAAPEAXI@Z 0000000180058ae8     njsConnection.obj
 0002:00010b00       $unwind$??__F?connectionTemplate_s@njsConnection@@0V?$Persistent@VFunctionTemplate@v8@@V?$NonCopyablePersistentTraits@VFunctionTemplate@v8@@@2@@Nan@@A@@YAXXZ 0000000180058b00     njsConnection.obj
 0002:00010b10       $ip2state$??__F?connectionTemplate_s@njsConnection@@0V?$Persistent@VFunctionTemplate@v8@@V?$NonCopyablePersistentTraits@VFunctionTemplate@v8@@@2@@Nan@@A@@YAXXZ 0000000180058b10     njsConnection.obj
 0002:00010b18       $unwind$?Init@njsConnection@@SAXV?$Local@VObject@v8@@@v8@@@Z 0000000180058b18     njsConnection.obj
 0002:00010b30       $ip2state$?Init@njsConnection@@SAXV?$Local@VObject@v8@@@v8@@@Z 0000000180058b30     njsConnection.obj
 0002:00010b48       $unwind$?CreateFromBaton@njsConnection@@SA?AV?$Local@VObject@v8@@@v8@@PEAVnjsBaton@@@Z 0000000180058b48     njsConnection.obj
 0002:00010b68       $ip2state$?CreateFromBaton@njsConnection@@SA?AV?$Local@VObject@v8@@@v8@@PEAVnjsBaton@@@Z 0000000180058b68     njsConnection.obj
 0002:00010b80       $unwind$?ProcessQueryVars@njsConnection@@SA_NPEAVnjsBaton@@PEAUdpiStmt@@PEAVnjsVariable@@I@Z 0000000180058b80     njsConnection.obj
 0002:00010ba8       $stateUnwindMap$?ProcessQueryVars@njsConnection@@SA_NPEAVnjsBaton@@PEAUdpiStmt@@PEAVnjsVariable@@I@Z 0000000180058ba8     njsConnection.obj
 0002:00010bc0       $ip2state$?ProcessQueryVars@njsConnection@@SA_NPEAVnjsBaton@@PEAUdpiStmt@@PEAVnjsVariable@@I@Z 0000000180058bc0     njsConnection.obj
 0002:00010c00       $unwind$?ProcessVars@njsConnection@@SA_NPEAVnjsBaton@@PEAVnjsVariable@@II@Z 0000000180058c00     njsConnection.obj
 0002:00010c24       $stateUnwindMap$?ProcessVars@njsConnection@@SA_NPEAVnjsBaton@@PEAVnjsVariable@@II@Z 0000000180058c24     njsConnection.obj
 0002:00010c38       $ip2state$?ProcessVars@njsConnection@@SA_NPEAVnjsBaton@@PEAVnjsVariable@@II@Z 0000000180058c38     njsConnection.obj
 0002:00010c60       $unwind$?ProcessVarBuffer@njsConnection@@CA_NPEAVnjsBaton@@PEAVnjsVariable@@PEAVnjsVariableBuffer@@@Z 0000000180058c60     njsConnection.obj
 0002:00010c80       $stateUnwindMap$?ProcessVarBuffer@njsConnection@@CA_NPEAVnjsBaton@@PEAVnjsVariable@@PEAVnjsVariableBuffer@@@Z 0000000180058c80     njsConnection.obj
 0002:00010c90       $ip2state$?ProcessVarBuffer@njsConnection@@CA_NPEAVnjsBaton@@PEAVnjsVariable@@PEAVnjsVariableBuffer@@@Z 0000000180058c90     njsConnection.obj
 0002:00010cb8       $unwind$?MapByName@njsConnection@@CA_NPEAVnjsBaton@@PEAUdpiQueryInfo@@AEAW4dpiOracleTypeNum@@@Z 0000000180058cb8     njsConnection.obj
 0002:00010cd8       $unwind$?PrepareAndBind@njsConnection@@CA_NPEAVnjsBaton@@@Z 0000000180058cd8     njsConnection.obj
 0002:00010cf4       $stateUnwindMap$?PrepareAndBind@njsConnection@@CA_NPEAVnjsBaton@@@Z 0000000180058cf4     njsConnection.obj
 0002:00010d00       $ip2state$?PrepareAndBind@njsConnection@@CA_NPEAVnjsBaton@@@Z 0000000180058d00     njsConnection.obj
 0002:00010d18       $unwind$?GetMetaData@njsConnection@@SA?AV?$Local@VValue@v8@@@v8@@PEAVnjsVariable@@I_N@Z 0000000180058d18     njsConnection.obj
 0002:00010d40       $stateUnwindMap$?GetMetaData@njsConnection@@SA?AV?$Local@VValue@v8@@@v8@@PEAVnjsVariable@@I_N@Z 0000000180058d40     njsConnection.obj
 0002:00010d48       $ip2state$?GetMetaData@njsConnection@@SA?AV?$Local@VValue@v8@@@v8@@PEAVnjsVariable@@I_N@Z 0000000180058d48     njsConnection.obj
 0002:00010d68       $unwind$?CreateVarBuffer@njsConnection@@CA_NPEAVnjsVariable@@PEAVnjsBaton@@@Z 0000000180058d68     njsConnection.obj
 0002:00010d7c       $stateUnwindMap$?CreateVarBuffer@njsConnection@@CA_NPEAVnjsVariable@@PEAVnjsBaton@@@Z 0000000180058d7c     njsConnection.obj
 0002:00010da0       $ip2state$?CreateVarBuffer@njsConnection@@CA_NPEAVnjsVariable@@PEAVnjsBaton@@@Z 0000000180058da0     njsConnection.obj
 0002:00010df0       $unwind$?ProcessExecuteBinds@njsConnection@@CA_NV?$Local@VObject@v8@@@v8@@PEAVnjsBaton@@@Z 0000000180058df0     njsConnection.obj
 0002:00010e08       $ip2state$?ProcessExecuteBinds@njsConnection@@CA_NV?$Local@VObject@v8@@@v8@@PEAVnjsBaton@@@Z 0000000180058e08     njsConnection.obj
 0002:00010e20       $unwind$?ScanExecuteBinds@njsConnection@@CA_NV?$Local@VObject@v8@@@v8@@V?$Local@VArray@v8@@@3@PEAVnjsBaton@@@Z 0000000180058e20     njsConnection.obj
 0002:00010e48       $stateUnwindMap$?ScanExecuteBinds@njsConnection@@CA_NV?$Local@VObject@v8@@@v8@@V?$Local@VArray@v8@@@3@PEAVnjsBaton@@@Z 0000000180058e48     njsConnection.obj
 0002:00010e60       $ip2state$?ScanExecuteBinds@njsConnection@@CA_NV?$Local@VObject@v8@@@v8@@V?$Local@VArray@v8@@@3@PEAVnjsBaton@@@Z 0000000180058e60     njsConnection.obj
 0002:00010e98       $unwind$?ScanExecuteBindUnit@njsConnection@@CA_NV?$Local@VObject@v8@@@v8@@PEAVnjsVariable@@_NPEAVnjsBaton@@@Z 0000000180058e98     njsConnection.obj
 0002:00010ec0       $stateUnwindMap$?ScanExecuteBindUnit@njsConnection@@CA_NV?$Local@VObject@v8@@@v8@@PEAVnjsVariable@@_NPEAVnjsBaton@@@Z 0000000180058ec0     njsConnection.obj
 0002:00010f00       $ip2state$?ScanExecuteBindUnit@njsConnection@@CA_NV?$Local@VObject@v8@@@v8@@PEAVnjsVariable@@_NPEAVnjsBaton@@@Z 0000000180058f00     njsConnection.obj
 0002:00010f98       $unwind$?ProcessExecuteManyBinds@njsConnection@@CA_NV?$Local@VArray@v8@@@v8@@V?$Local@VObject@v8@@@3@PEAVnjsBaton@@@Z 0000000180058f98     njsConnection.obj
 0002:00010fb8       $stateUnwindMap$?GetArrayValueFromVar@njsConnection@@CA_NPEAVnjsBaton@@PEAVnjsVariable@@IAEAV?$Local@VValue@v8@@@v8@@@Z 0000000180058fb8     njsConnection.obj
 0002:00010fb8       $stateUnwindMap$?ProcessExecuteManyBinds@njsConnection@@CA_NV?$Local@VArray@v8@@@v8@@V?$Local@VObject@v8@@@3@PEAVnjsBaton@@@Z 0000000180058fb8     njsConnection.obj
 0002:00010fc0       $ip2state$?ProcessExecuteManyBinds@njsConnection@@CA_NV?$Local@VArray@v8@@@v8@@V?$Local@VObject@v8@@@3@PEAVnjsBaton@@@Z 0000000180058fc0     njsConnection.obj
 0002:00010fd8       $unwind$?ScanExecuteManyBinds@njsConnection@@CA_NV?$Local@VArray@v8@@@v8@@0PEAVnjsBaton@@@Z 0000000180058fd8     njsConnection.obj
 0002:00011000       $stateUnwindMap$?ScanExecuteManyBinds@njsConnection@@CA_NV?$Local@VArray@v8@@@v8@@0PEAVnjsBaton@@@Z 0000000180059000     njsConnection.obj
 0002:00011010       $ip2state$?ScanExecuteManyBinds@njsConnection@@CA_NV?$Local@VArray@v8@@@v8@@0PEAVnjsBaton@@@Z 0000000180059010     njsConnection.obj
 0002:00011038       $unwind$?TransferExecuteManyBinds@njsConnection@@CA_NV?$Local@VArray@v8@@@v8@@0PEAVnjsBaton@@@Z 0000000180059038     njsConnection.obj
 0002:00011060       $stateUnwindMap$?TransferExecuteManyBinds@njsConnection@@CA_NV?$Local@VArray@v8@@@v8@@0PEAVnjsBaton@@@Z 0000000180059060     njsConnection.obj
 0002:00011070       $ip2state$?TransferExecuteManyBinds@njsConnection@@CA_NV?$Local@VArray@v8@@@v8@@0PEAVnjsBaton@@@Z 0000000180059070     njsConnection.obj
 0002:00011098       $unwind$?InitBindVars@njsConnection@@CA_NV?$Local@VObject@v8@@@v8@@V?$Local@VArray@v8@@@3@PEAVnjsBaton@@@Z 0000000180059098     njsConnection.obj
 0002:000110bc       $stateUnwindMap$?InitBindVars@njsConnection@@CA_NV?$Local@VObject@v8@@@v8@@V?$Local@VArray@v8@@@3@PEAVnjsBaton@@@Z 00000001800590bc     njsConnection.obj
 0002:000110e0       $ip2state$?InitBindVars@njsConnection@@CA_NV?$Local@VObject@v8@@@v8@@V?$Local@VArray@v8@@@3@PEAVnjsBaton@@@Z 00000001800590e0     njsConnection.obj
 0002:00011140       $unwind$?ProcessBindValue@njsConnection@@CA_NV?$Local@VValue@v8@@@v8@@PEAVnjsVariable@@PEAVnjsBaton@@@Z 0000000180059140     njsConnection.obj
 0002:0001115c       $stateUnwindMap$?ProcessBindValue@njsConnection@@CA_NV?$Local@VValue@v8@@@v8@@PEAVnjsVariable@@PEAVnjsBaton@@@Z 000000018005915c     njsConnection.obj
 0002:00011178       $ip2state$?ProcessBindValue@njsConnection@@CA_NV?$Local@VValue@v8@@@v8@@PEAVnjsVariable@@PEAVnjsBaton@@@Z 0000000180059178     njsConnection.obj
 0002:000111b0       $unwind$?ProcessScalarBindValue@njsConnection@@CA_NV?$Local@VValue@v8@@@v8@@PEAVnjsVariable@@I_NPEAVnjsBaton@@@Z 00000001800591b0     njsConnection.obj
 0002:000111d4       $stateUnwindMap$?ProcessScalarBindValue@njsConnection@@CA_NV?$Local@VValue@v8@@@v8@@PEAVnjsVariable@@I_NPEAVnjsBaton@@@Z 00000001800591d4     njsConnection.obj
 0002:00011210       $ip2state$?ProcessScalarBindValue@njsConnection@@CA_NV?$Local@VValue@v8@@@v8@@PEAVnjsVariable@@I_NPEAVnjsBaton@@@Z 0000000180059210     njsConnection.obj
 0002:00011288       $unwind$?GetBindTypeAndSizeFromValue@njsConnection@@CA_NPEAVnjsVariable@@V?$Local@VValue@v8@@@v8@@PEAW4njsDataType@@PEAIPEAVnjsBaton@@_N@Z 0000000180059288     njsConnection.obj
 0002:000112a4       $stateUnwindMap$?GetBindTypeAndSizeFromValue@njsConnection@@CA_NPEAVnjsVariable@@V?$Local@VValue@v8@@@v8@@PEAW4njsDataType@@PEAIPEAVnjsBaton@@_N@Z 00000001800592a4     njsConnection.obj
 0002:000112b8       $ip2state$?GetBindTypeAndSizeFromValue@njsConnection@@CA_NPEAVnjsVariable@@V?$Local@VValue@v8@@@v8@@PEAW4njsDataType@@PEAIPEAVnjsBaton@@_N@Z 00000001800592b8     njsConnection.obj
 0002:000112e0       $unwind$?ProcessExecuteOptions@njsConnection@@CA_NV?$Local@VObject@v8@@@v8@@PEAVnjsBaton@@@Z 00000001800592e0     njsConnection.obj
 0002:00011304       $stateUnwindMap$?ProcessExecuteOptions@njsConnection@@CA_NV?$Local@VObject@v8@@@v8@@PEAVnjsBaton@@@Z 0000000180059304     njsConnection.obj
 0002:00011340       $ip2state$?ProcessExecuteOptions@njsConnection@@CA_NV?$Local@VObject@v8@@@v8@@PEAVnjsBaton@@@Z 0000000180059340     njsConnection.obj
 0002:000113c8       $unwind$?ProcessExecuteManyOptions@njsConnection@@CA_NV?$Local@VObject@v8@@@v8@@PEAVnjsBaton@@@Z 00000001800593c8     njsConnection.obj
 0002:000113d0       $unwind$?GetScalarValueFromVar@njsConnection@@SA_NPEAVnjsBaton@@PEAVnjsVariable@@PEAVnjsVariableBuffer@@IAEAV?$Local@VValue@v8@@@v8@@@Z 00000001800593d0     njsConnection.obj
 0002:000113f8       $stateUnwindMap$?GetScalarValueFromVar@njsConnection@@SA_NPEAVnjsBaton@@PEAVnjsVariable@@PEAVnjsVariableBuffer@@IAEAV?$Local@VValue@v8@@@v8@@@Z 00000001800593f8     njsConnection.obj
 0002:00011408       $ip2state$?GetScalarValueFromVar@njsConnection@@SA_NPEAVnjsBaton@@PEAVnjsVariable@@PEAVnjsVariableBuffer@@IAEAV?$Local@VValue@v8@@@v8@@@Z 0000000180059408     njsConnection.obj
 0002:00011438       $unwind$?GetArrayValueFromVar@njsConnection@@CA_NPEAVnjsBaton@@PEAVnjsVariable@@IAEAV?$Local@VValue@v8@@@v8@@@Z 0000000180059438     njsConnection.obj
 0002:00011458       $ip2state$?GetArrayValueFromVar@njsConnection@@CA_NPEAVnjsBaton@@PEAVnjsVariable@@IAEAV?$Local@VValue@v8@@@v8@@@Z 0000000180059458     njsConnection.obj
 0002:00011470       $unwind$?GetExecuteManyOutBinds@njsConnection@@CA_NAEAV?$Local@VValue@v8@@@v8@@IPEAVnjsBaton@@@Z 0000000180059470     njsConnection.obj
 0002:00011488       $stateUnwindMap$?GetExecuteManyOutBinds@njsConnection@@CA_NAEAV?$Local@VValue@v8@@@v8@@IPEAVnjsBaton@@@Z 0000000180059488     njsConnection.obj
 0002:00011488       $stateUnwindMap$?CreateFromRefCursor@njsResultSet@@SA_NPEAVnjsBaton@@PEAUdpiStmt@@PEAVnjsVariable@@IAEAV?$Local@VValue@v8@@@v8@@@Z 0000000180059488     njsResultSet.obj
 0002:00011490       $ip2state$?GetExecuteManyOutBinds@njsConnection@@CA_NAEAV?$Local@VValue@v8@@@v8@@IPEAVnjsBaton@@@Z 0000000180059490     njsConnection.obj
 0002:000114a8       $unwind$?GetOutBinds@njsConnection@@CA_NAEAV?$Local@VValue@v8@@@v8@@IIPEAVnjsBaton@@@Z 00000001800594a8     njsConnection.obj
 0002:000114c8       $ip2state$?GetOutBinds@njsConnection@@CA_NAEAV?$Local@VValue@v8@@@v8@@IIPEAVnjsBaton@@@Z 00000001800594c8     njsConnection.obj
 0002:000114e0       $unwind$?SetTextAttribute@njsConnection@@CAXAEBV?$PropertyCallbackInfo@X@Nan@@PEBDV?$Local@VValue@v8@@@v8@@P6AHPEAUdpiConn@@1I@Z@Z 00000001800594e0     njsConnection.obj
 0002:000114f8       $stateUnwindMap$?SetTextAttribute@njsConnection@@CAXAEBV?$PropertyCallbackInfo@X@Nan@@PEBDV?$Local@VValue@v8@@@v8@@P6AHPEAUdpiConn@@1I@Z@Z 00000001800594f8     njsConnection.obj
 0002:00011508       $ip2state$?SetTextAttribute@njsConnection@@CAXAEBV?$PropertyCallbackInfo@X@Nan@@PEBDV?$Local@VValue@v8@@@v8@@P6AHPEAUdpiConn@@1I@Z@Z 0000000180059508     njsConnection.obj
 0002:00011530       $unwind$?Execute@njsConnection@@CAXAEBV?$FunctionCallbackInfo@VValue@v8@@@Nan@@@Z 0000000180059530     njsConnection.obj
 0002:00011550       $stateUnwindMap$?ExecuteMany@njsConnection@@CAXAEBV?$FunctionCallbackInfo@VValue@v8@@@Nan@@@Z 0000000180059550     njsConnection.obj
 0002:00011550       $stateUnwindMap$?Execute@njsConnection@@CAXAEBV?$FunctionCallbackInfo@VValue@v8@@@Nan@@@Z 0000000180059550     njsConnection.obj
 0002:00011560       $ip2state$?Execute@njsConnection@@CAXAEBV?$FunctionCallbackInfo@VValue@v8@@@Nan@@@Z 0000000180059560     njsConnection.obj
 0002:00011588       $unwind$?Async_Execute@njsConnection@@CAXPEAVnjsBaton@@@Z 0000000180059588     njsConnection.obj
 0002:000115a0       $stateUnwindMap$?Async_Execute@njsConnection@@CAXPEAVnjsBaton@@@Z 00000001800595a0     njsConnection.obj
 0002:000115a8       $ip2state$?Async_Execute@njsConnection@@CAXPEAVnjsBaton@@@Z 00000001800595a8     njsConnection.obj
 0002:000115c0       $unwind$?Async_AfterExecute@njsConnection@@CAXPEAVnjsBaton@@QEAV?$Local@VValue@v8@@@v8@@@Z 00000001800595c0     njsConnection.obj
 0002:000115d8       $ip2state$?Async_AfterExecute@njsConnection@@CAXPEAVnjsBaton@@QEAV?$Local@VValue@v8@@@v8@@@Z 00000001800595d8     njsConnection.obj
 0002:000115f0       $unwind$?ExecuteMany@njsConnection@@CAXAEBV?$FunctionCallbackInfo@VValue@v8@@@Nan@@@Z 00000001800595f0     njsConnection.obj
 0002:00011610       $ip2state$?ExecuteMany@njsConnection@@CAXAEBV?$FunctionCallbackInfo@VValue@v8@@@Nan@@@Z 0000000180059610     njsConnection.obj
 0002:00011638       $chain$0$?Async_ExecuteMany@njsConnection@@CAXPEAVnjsBaton@@@Z 0000000180059638     njsConnection.obj
 0002:0001164c       $chain$1$?Async_ExecuteMany@njsConnection@@CAXPEAVnjsBaton@@@Z 000000018005964c     njsConnection.obj
 0002:0001165c       $unwind$?Async_AfterExecuteMany@njsConnection@@CAXPEAVnjsBaton@@QEAV?$Local@VValue@v8@@@v8@@@Z 000000018005965c     njsConnection.obj
 0002:00011688       $stateUnwindMap$?Async_AfterExecuteMany@njsConnection@@CAXPEAVnjsBaton@@QEAV?$Local@VValue@v8@@@v8@@@Z 0000000180059688     njsConnection.obj
 0002:00011698       $ip2state$?Async_AfterExecuteMany@njsConnection@@CAXPEAVnjsBaton@@QEAV?$Local@VValue@v8@@@v8@@@Z 0000000180059698     njsConnection.obj
 0002:000116c0       $unwind$?GetStatementInfo@njsConnection@@CAXAEBV?$FunctionCallbackInfo@VValue@v8@@@Nan@@@Z 00000001800596c0     njsConnection.obj
 0002:000116d8       $stateUnwindMap$?Close@njsResultSet@@CAXAEBV?$FunctionCallbackInfo@VValue@v8@@@Nan@@@Z 00000001800596d8     njsResultSet.obj
 0002:000116d8       $stateUnwindMap$?Read@njsILob@@CAXAEBV?$FunctionCallbackInfo@VValue@v8@@@Nan@@@Z 00000001800596d8     njsIntLob.obj
 0002:000116d8       $stateUnwindMap$?GetStatementInfo@njsConnection@@CAXAEBV?$FunctionCallbackInfo@VValue@v8@@@Nan@@@Z 00000001800596d8     njsConnection.obj
 0002:000116d8       $stateUnwindMap$?Close@njsILob@@CAXAEBV?$FunctionCallbackInfo@VValue@v8@@@Nan@@@Z 00000001800596d8     njsIntLob.obj
 0002:000116e0       $ip2state$?GetStatementInfo@njsConnection@@CAXAEBV?$FunctionCallbackInfo@VValue@v8@@@Nan@@@Z 00000001800596e0     njsConnection.obj
 0002:000116f8       $unwind$?Async_GetStatementInfo@njsConnection@@CAXPEAVnjsBaton@@@Z 00000001800596f8     njsConnection.obj
 0002:00011710       $stateUnwindMap$?Async_GetStatementInfo@njsConnection@@CAXPEAVnjsBaton@@@Z 0000000180059710     njsConnection.obj
 0002:00011718       $ip2state$?Async_GetStatementInfo@njsConnection@@CAXPEAVnjsBaton@@@Z 0000000180059718     njsConnection.obj
 0002:00011730       $unwind$?Async_AfterGetStatementInfo@njsConnection@@CAXPEAVnjsBaton@@QEAV?$Local@VValue@v8@@@v8@@@Z 0000000180059730     njsConnection.obj
 0002:00011750       $ip2state$?Async_AfterGetStatementInfo@njsConnection@@CAXPEAVnjsBaton@@QEAV?$Local@VValue@v8@@@v8@@@Z 0000000180059750     njsConnection.obj
 0002:00011768       $unwind$?CreateLob@njsConnection@@CAXAEBV?$FunctionCallbackInfo@VValue@v8@@@Nan@@@Z 0000000180059768     njsConnection.obj
 0002:00011788       $ip2state$?CreateLob@njsConnection@@CAXAEBV?$FunctionCallbackInfo@VValue@v8@@@Nan@@@Z 0000000180059788     njsConnection.obj
 0002:000117a0       $unwind$?truncate_ctrl_z_if_present@@YAHH@Z 00000001800597a0     libucrt:open.obj
 0002:000117a0       $unwind$?type_case_c_tchar@?$output_processor@_WV?$stream_output_adapter@_W@__crt_stdio_output@@V?$standard_base@_WV?$stream_output_adapter@_W@__crt_stdio_output@@@2@@__crt_stdio_output@@AEAA_N_W@Z 00000001800597a0     libucrt:output.obj
 0002:000117a0       $unwind$?type_case_c_tchar@?$output_processor@_WV?$string_output_adapter@_W@__crt_stdio_output@@V?$standard_base@_WV?$string_output_adapter@_W@__crt_stdio_output@@@2@@__crt_stdio_output@@AEAA_N_W@Z 00000001800597a0     libucrt:output.obj
 0002:000117a0       $unwind$?Async_CreateLob@njsConnection@@CAXPEAVnjsBaton@@@Z 00000001800597a0     njsConnection.obj
 0002:000117a0       $unwind$??R<lambda_b721fa326cdb32351d23dfa67958c160>@@QEBAHXZ 00000001800597a0     libucrt:setvbuf.obj
 0002:000117b0       $unwind$?Async_AfterCreateLob@njsConnection@@CAXPEAVnjsBaton@@QEAV?$Local@VValue@v8@@@v8@@@Z 00000001800597b0     njsConnection.obj
 0002:000117c8       $ip2state$?Async_AfterCreateLob@njsConnection@@CAXPEAVnjsBaton@@QEAV?$Local@VValue@v8@@@v8@@@Z 00000001800597c8     njsConnection.obj
 0002:000117e0       $unwind$?ChangePassword@njsConnection@@CAXAEBV?$FunctionCallbackInfo@VValue@v8@@@Nan@@@Z 00000001800597e0     njsConnection.obj
 0002:00011804       $stateUnwindMap$?ChangePassword@njsConnection@@CAXAEBV?$FunctionCallbackInfo@VValue@v8@@@Nan@@@Z 0000000180059804     njsConnection.obj
 0002:00011820       $ip2state$?ChangePassword@njsConnection@@CAXAEBV?$FunctionCallbackInfo@VValue@v8@@@Nan@@@Z 0000000180059820     njsConnection.obj
 0002:00011858       $unwind$_isleadbyte_l      0000000180059858     libucrt:_wctype.obj
 0002:00011858       $unwind$?getSystemCP@@YAHH@Z 0000000180059858     libucrt:mbctype.obj
 0002:00011858       $unwind$isspace            0000000180059858     libucrt:_ctype.obj
 0002:00011858       $unwind$isdigit            0000000180059858     libucrt:_ctype.obj
 0002:00011858       $unwind$?Async_ChangePassword@njsConnection@@CAXPEAVnjsBaton@@@Z 0000000180059858     njsConnection.obj
 0002:00011860       $unwind$?GetOracleServerVersionString@njsConnection@@CAXV?$Local@VString@v8@@@v8@@AEBV?$PropertyCallbackInfo@VValue@v8@@@Nan@@@Z 0000000180059860     njsConnection.obj
 0002:00011878       $unwind$?append@?$basic_string@DU?$char_traits@D@std@@V?$allocator@D@2@@std@@QEAAAEAV12@PEBD_K@Z 0000000180059878     njsConnection.obj
 0002:0001188c       $unwind$??$?HDU?$char_traits@D@std@@V?$allocator@D@1@@std@@YA?AV?$basic_string@DU?$char_traits@D@std@@V?$allocator@D@2@@0@PEBDAEBV10@@Z 000000018005988c     njsConnection.obj
 0002:000118a8       $stateUnwindMap$??$?HDU?$char_traits@D@std@@V?$allocator@D@1@@std@@YA?AV?$basic_string@DU?$char_traits@D@std@@V?$allocator@D@2@@0@PEBDAEBV10@@Z 00000001800598a8     njsConnection.obj
 0002:000118b0       $ip2state$??$?HDU?$char_traits@D@std@@V?$allocator@D@1@@std@@YA?AV?$basic_string@DU?$char_traits@D@std@@V?$allocator@D@2@@0@PEBDAEBV10@@Z 00000001800598b0     njsConnection.obj
 0002:000118c0       $unwind$??__F?resultSetTemplate_s@njsResultSet@@0V?$Persistent@VFunctionTemplate@v8@@V?$NonCopyablePersistentTraits@VFunctionTemplate@v8@@@2@@Nan@@A@@YAXXZ 00000001800598c0     njsResultSet.obj
 0002:000118d0       $ip2state$??__F?resultSetTemplate_s@njsResultSet@@0V?$Persistent@VFunctionTemplate@v8@@V?$NonCopyablePersistentTraits@VFunctionTemplate@v8@@@2@@Nan@@A@@YAXXZ 00000001800598d0     njsResultSet.obj
 0002:000118d8       $unwind$??1njsResultSet@@EEAA@XZ 00000001800598d8     njsResultSet.obj
 0002:000118f0       $ip2state$??1njsResultSet@@EEAA@XZ 00000001800598f0     njsResultSet.obj
 0002:00011908       $unwind$?Init@njsResultSet@@SAXV?$Local@VObject@v8@@@v8@@@Z 0000000180059908     njsResultSet.obj
 0002:00011920       $ip2state$?Init@njsResultSet@@SAXV?$Local@VObject@v8@@@v8@@@Z 0000000180059920     njsResultSet.obj
 0002:00011938       $unwind$?CreateFromBaton@njsResultSet@@SA?AV?$Local@VObject@v8@@@v8@@PEAVnjsBaton@@@Z 0000000180059938     njsResultSet.obj
 0002:00011958       $ip2state$?CreateFromBaton@njsResultSet@@SA?AV?$Local@VObject@v8@@@v8@@PEAVnjsBaton@@@Z 0000000180059958     njsResultSet.obj
 0002:00011970       $unwind$?CreateFromRefCursor@njsResultSet@@SA_NPEAVnjsBaton@@PEAUdpiStmt@@PEAVnjsVariable@@IAEAV?$Local@VValue@v8@@@v8@@@Z 0000000180059970     njsResultSet.obj
 0002:00011998       $ip2state$?CreateFromRefCursor@njsResultSet@@SA_NPEAVnjsBaton@@PEAUdpiStmt@@PEAVnjsVariable@@IAEAV?$Local@VValue@v8@@@v8@@@Z 0000000180059998     njsResultSet.obj
 0002:000119b0       $unwind$?IsValid@njsResultSet@@UEBA_NXZ 00000001800599b0     njsResultSet.obj
 0002:000119c0       $ip2state$?IsValid@njsResultSet@@UEBA_NXZ 00000001800599c0     njsResultSet.obj
 0002:000119d8       $unwind$?GetRows@njsResultSet@@CAXAEBV?$FunctionCallbackInfo@VValue@v8@@@Nan@@@Z 00000001800599d8     njsResultSet.obj
 0002:000119f4       $stateUnwindMap$?GetRows@njsResultSet@@CAXAEBV?$FunctionCallbackInfo@VValue@v8@@@Nan@@@Z 00000001800599f4     njsResultSet.obj
 0002:00011a08       $ip2state$?GetRows@njsResultSet@@CAXAEBV?$FunctionCallbackInfo@VValue@v8@@@Nan@@@Z 0000000180059a08     njsResultSet.obj
 0002:00011a30       $unwind$?GetRowsHelper@njsResultSet@@AEAA_NPEAVnjsBaton@@PEAH@Z 0000000180059a30     njsResultSet.obj
 0002:00011a4c       $unwind$?Async_AfterGetRows@njsResultSet@@CAXPEAVnjsBaton@@QEAV?$Local@VValue@v8@@@v8@@@Z 0000000180059a4c     njsResultSet.obj
 0002:00011a6c       $stateUnwindMap$?Async_AfterGetRows@njsResultSet@@CAXPEAVnjsBaton@@QEAV?$Local@VValue@v8@@@v8@@@Z 0000000180059a6c     njsResultSet.obj
 0002:00011a80       $ip2state$?Async_AfterGetRows@njsResultSet@@CAXPEAVnjsBaton@@QEAV?$Local@VValue@v8@@@v8@@@Z 0000000180059a80     njsResultSet.obj
 0002:00011aa8       $unwind$?Close@njsResultSet@@CAXAEBV?$FunctionCallbackInfo@VValue@v8@@@Nan@@@Z 0000000180059aa8     njsResultSet.obj
 0002:00011ac0       $ip2state$?Close@njsResultSet@@CAXAEBV?$FunctionCallbackInfo@VValue@v8@@@Nan@@@Z 0000000180059ac0     njsResultSet.obj
 0002:00011ad8       $unwind$?Get@njsMessages@@SA?AV?$basic_string@DU?$char_traits@D@std@@V?$allocator@D@2@@std@@HZZ 0000000180059ad8     njsMessages.obj
 0002:00011af4       $stateUnwindMap$?Get@njsMessages@@SA?AV?$basic_string@DU?$char_traits@D@std@@V?$allocator@D@2@@std@@HZZ 0000000180059af4     njsMessages.obj
 0002:00011b00       $ip2state$?Get@njsMessages@@SA?AV?$basic_string@DU?$char_traits@D@std@@V?$allocator@D@2@@std@@HZZ 0000000180059b00     njsMessages.obj
 0002:00011b10       $unwind$??_GnjsILob@@EEAAPEAXI@Z 0000000180059b10     njsIntLob.obj
 0002:00011b28       $ip2state$??_GnjsILob@@EEAAPEAXI@Z 0000000180059b28     njsIntLob.obj
 0002:00011b40       $unwind$??__F?iLobTemplate_s@njsILob@@0V?$Persistent@VFunctionTemplate@v8@@V?$NonCopyablePersistentTraits@VFunctionTemplate@v8@@@2@@Nan@@A@@YAXXZ 0000000180059b40     njsIntLob.obj
 0002:00011b50       $ip2state$??__F?iLobTemplate_s@njsILob@@0V?$Persistent@VFunctionTemplate@v8@@V?$NonCopyablePersistentTraits@VFunctionTemplate@v8@@@2@@Nan@@A@@YAXXZ 0000000180059b50     njsIntLob.obj
 0002:00011b58       $unwind$?Init@njsILob@@SAXV?$Local@VObject@v8@@@v8@@@Z 0000000180059b58     njsIntLob.obj
 0002:00011b70       $ip2state$?Init@njsILob@@SAXV?$Local@VObject@v8@@@v8@@@Z 0000000180059b70     njsIntLob.obj
 0002:00011b88       $unwind$?CreateFromProtoLob@njsILob@@SA?AV?$Local@VObject@v8@@@v8@@PEAVnjsProtoILob@@@Z 0000000180059b88     njsIntLob.obj
 0002:00011ba0       $ip2state$?CreateFromProtoLob@njsILob@@SA?AV?$Local@VObject@v8@@@v8@@PEAVnjsProtoILob@@@Z 0000000180059ba0     njsIntLob.obj
 0002:00011bb8       $unwind$?GetInstance@njsILob@@SAPEAV1@V?$Local@VValue@v8@@@v8@@@Z 0000000180059bb8     njsIntLob.obj
 0002:00011bd0       $ip2state$?GetInstance@njsILob@@SAPEAV1@V?$Local@VValue@v8@@@v8@@@Z 0000000180059bd0     njsIntLob.obj
 0002:00011be8       $unwind$?GetIsValid@njsILob@@CAXV?$Local@VString@v8@@@v8@@AEBV?$PropertyCallbackInfo@VValue@v8@@@Nan@@@Z 0000000180059be8     njsIntLob.obj
 0002:00011c00       $ip2state$?GetIsValid@njsILob@@CAXV?$Local@VString@v8@@@v8@@AEBV?$PropertyCallbackInfo@VValue@v8@@@Nan@@@Z 0000000180059c00     njsIntLob.obj
 0002:00011c18       $unwind$?Read@njsILob@@CAXAEBV?$FunctionCallbackInfo@VValue@v8@@@Nan@@@Z 0000000180059c18     njsIntLob.obj
 0002:00011c38       $ip2state$?Read@njsILob@@CAXAEBV?$FunctionCallbackInfo@VValue@v8@@@Nan@@@Z 0000000180059c38     njsIntLob.obj
 0002:00011c50       $unwind$dpiOci__sessionRelease 0000000180059c50     dpiOci.obj
 0002:00011c50       $unwind$dpiEnv__getCharacterSetIdAndName 0000000180059c50     dpiEnv.obj
 0002:00011c50       $unwind$dpiOci__stmtFetch2 0000000180059c50     dpiOci.obj
 0002:00011c50       $unwind$dpiOci__nlsEnvironmentVariableGet 0000000180059c50     dpiOci.obj
 0002:00011c50       $unwind$dpiEnv__initError  0000000180059c50     dpiEnv.obj
 0002:00011c50       $unwind$dpiError__check    0000000180059c50     dpiError.obj
 0002:00011c50       $unwind$dpiConn__free      0000000180059c50     dpiConn.obj
 0002:00011c50       $unwind$dpiOci__bindDynamic 0000000180059c50     dpiOci.obj
 0002:00011c50       $unwind$?Async_Read@njsILob@@CAXPEAVnjsBaton@@@Z 0000000180059c50     njsIntLob.obj
 0002:00011c50       $unwind$dpiStmt__init      0000000180059c50     dpiStmt.obj
 0002:00011c50       $unwind$dpiOci__contextSetValue 0000000180059c50     dpiOci.obj
 0002:00011c50       $unwind$dpiOci__contextGetValue 0000000180059c50     dpiOci.obj
 0002:00011c50       $unwind$dpiOci__stmtRelease 0000000180059c50     dpiOci.obj
 0002:00011c50       $unwind$dpiUtils__setAttributesFromCommonCreateParams 0000000180059c50     dpiUtils.obj
 0002:00011c60       $unwind$?Close@njsILob@@CAXAEBV?$FunctionCallbackInfo@VValue@v8@@@Nan@@@Z 0000000180059c60     njsIntLob.obj
 0002:00011c78       $ip2state$?Close@njsILob@@CAXAEBV?$FunctionCallbackInfo@VValue@v8@@@Nan@@@Z 0000000180059c78     njsIntLob.obj
 0002:00011c90       $unwind$?Async_AfterRead@njsILob@@CAXPEAVnjsBaton@@QEAV?$Local@VValue@v8@@@v8@@@Z 0000000180059c90     njsIntLob.obj
 0002:00011cb0       $ip2state$?Async_AfterRead@njsILob@@CAXPEAVnjsBaton@@QEAV?$Local@VValue@v8@@@v8@@@Z 0000000180059cb0     njsIntLob.obj
 0002:00011cc8       $unwind$?Write@njsILob@@CAXAEBV?$FunctionCallbackInfo@VValue@v8@@@Nan@@@Z 0000000180059cc8     njsIntLob.obj
 0002:00011ce8       $ip2state$?Write@njsILob@@CAXAEBV?$FunctionCallbackInfo@VValue@v8@@@Nan@@@Z 0000000180059ce8     njsIntLob.obj
 0002:00011d00       $unwind$dpiConn__close     0000000180059d00     dpiConn.obj
 0002:00011d20       $unwind$dpiConn__create    0000000180059d20     dpiConn.obj
 0002:00011d34       $chain$1$dpiConn__create   0000000180059d34     dpiConn.obj
 0002:00011d4c       $chain$2$dpiConn__create   0000000180059d4c     dpiConn.obj
 0002:00011d5c       $unwind$dpiConn__createStandalone 0000000180059d5c     dpiConn.obj
 0002:00011d70       $chain$0$dpiConn__createStandalone 0000000180059d70     dpiConn.obj
 0002:00011d84       $chain$1$dpiConn__createStandalone 0000000180059d84     dpiConn.obj
 0002:00011d98       $chain$2$dpiConn__createStandalone 0000000180059d98     dpiConn.obj
 0002:00011da8       $unwind$dpiConn__get       0000000180059da8     dpiConn.obj
 0002:00011dc0       $chain$0$dpiConn__get      0000000180059dc0     dpiConn.obj
 0002:00011dd4       $chain$1$dpiConn__get      0000000180059dd4     dpiConn.obj
 0002:00011de4       $unwind$dpiConn__getServerVersion 0000000180059de4     dpiConn.obj
 0002:00011dfc       $chain$0$dpiConn__getServerVersion 0000000180059dfc     dpiConn.obj
 0002:00011e10       $chain$1$dpiConn__getServerVersion 0000000180059e10     dpiConn.obj
 0002:00011e20       $unwind$dpiConn__getSession 0000000180059e20     dpiConn.obj
 0002:00011e3c       $unwind$dpiConn__setAppContext 0000000180059e3c     dpiConn.obj
 0002:00011e4c       $chain$1$dpiConn__setAppContext 0000000180059e4c     dpiConn.obj
 0002:00011e64       $chain$3$dpiConn__setAppContext 0000000180059e64     dpiConn.obj
 0002:00011e7c       $unwind$dpiConn__setAttributesFromCreateParams 0000000180059e7c     dpiConn.obj
 0002:00011e90       $unwind$dpiConn_breakExecution 0000000180059e90     dpiConn.obj
 0002:00011e90       $unwind$dpiVar_getReturnedData 0000000180059e90     dpiVar.obj
 0002:00011e90       $unwind$dpiConn_rollback   0000000180059e90     dpiConn.obj
 0002:00011e90       $unwind$dpiLob_readBytes   0000000180059e90     dpiLob.obj
 0002:00011e90       $unwind$dpiStmt_execute    0000000180059e90     dpiStmt.obj
 0002:00011e90       $unwind$dpiConn__setAttributeText 0000000180059e90     dpiConn.obj
 0002:00011e90       $unwind$dpiOci__nlsCharSetConvert 0000000180059e90     dpiOci.obj
 0002:00011e90       $unwind$?fp_format_e@@YAHQEBNQEAD_K12H_NIQEAU__crt_locale_pointers@@@Z 0000000180059e90     libucrt:cvt.obj
 0002:00011e90       $unwind$dpiStmt_getInfo    0000000180059e90     dpiStmt.obj
 0002:00011e90       $unwind$dpiVar_setFromBytes 0000000180059e90     dpiVar.obj
 0002:00011e90       $unwind$dpiLob_writeBytes  0000000180059e90     dpiLob.obj
 0002:00011e90       $unwind$_sopen_nolock      0000000180059e90     libucrt:open.obj
 0002:00011ea4       $unwind$dpiConn__setShardingKey 0000000180059ea4     dpiConn.obj
 0002:00011eb0       $chain$0$dpiConn__setShardingKey 0000000180059eb0     dpiConn.obj
 0002:00011ec4       $chain$5$dpiConn__setShardingKey 0000000180059ec4     dpiConn.obj
 0002:00011ee4       $chain$7$dpiConn__setShardingKey 0000000180059ee4     dpiConn.obj
 0002:00011f04       $chain$8$dpiConn__setShardingKey 0000000180059f04     dpiConn.obj
 0002:00011f14       $unwind$dpiConn__setShardingKeyValue 0000000180059f14     dpiConn.obj
 0002:00011f28       $chain$2$dpiConn__setShardingKeyValue 0000000180059f28     dpiConn.obj
 0002:00011f44       $chain$3$dpiConn__setShardingKeyValue 0000000180059f44     dpiConn.obj
 0002:00011f44       $chain$5$dpiConn__setShardingKeyValue 0000000180059f44     dpiConn.obj
 0002:00011f54       $chain$4$dpiConn__setShardingKeyValue 0000000180059f54     dpiConn.obj
 0002:00011f70       $unwind$dpiConn_changePassword 0000000180059f70     dpiConn.obj
 0002:00011f70       $unwind$dpiOci__lobRead2   0000000180059f70     dpiOci.obj
 0002:00011f88       $unwind$?type_case_a@?$output_processor@DV?$stream_output_adapter@D@__crt_stdio_output@@V?$standard_base@DV?$stream_output_adapter@D@__crt_stdio_output@@@2@@__crt_stdio_output@@AEAA_NXZ 0000000180059f88     libucrt:output.obj
 0002:00011f88       $unwind$?type_case_a@?$output_processor@DV?$string_output_adapter@D@__crt_stdio_output@@V?$standard_base@DV?$string_output_adapter@D@__crt_stdio_output@@@2@@__crt_stdio_output@@AEAA_NXZ 0000000180059f88     libucrt:output.obj
 0002:00011f88       $unwind$dpiConn_close      0000000180059f88     dpiConn.obj
 0002:00011f94       $chain$0$dpiConn_close     0000000180059f94     dpiConn.obj
 0002:00011fa8       $unwind$dpiStmt_setFetchArraySize 0000000180059fa8     dpiStmt.obj
 0002:00011fa8       $unwind$dpiStmt_close      0000000180059fa8     dpiStmt.obj
 0002:00011fa8       $unwind$dpiPool__getAttributeUint 0000000180059fa8     dpiPool.obj
 0002:00011fa8       $unwind$dpiVar_setFromLob  0000000180059fa8     dpiVar.obj
 0002:00011fa8       $unwind$dpiConn_commit     0000000180059fa8     dpiConn.obj
 0002:00011fa8       $unwind$dpiConn_getStmtCacheSize 0000000180059fa8     dpiConn.obj
 0002:00011fa8       $unwind$dpiStmt_getBindCount 0000000180059fa8     dpiStmt.obj
 0002:00011fa8       $unwind$dpiLob_getChunkSize 0000000180059fa8     dpiLob.obj
 0002:00011fa8       $unwind$dpiLob_getSize     0000000180059fa8     dpiLob.obj
 0002:00011fa8       $unwind$dpiConn_ping       0000000180059fa8     dpiConn.obj
 0002:00011fa8       $unwind$dpiLob_close       0000000180059fa8     dpiLob.obj
 0002:00011fa8       $unwind$dpiPool_close      0000000180059fa8     dpiPool.obj
 0002:00011fb8       $chain$0$dpiConn_commit    0000000180059fb8     dpiConn.obj
 0002:00011fcc       $chain$1$dpiConn_commit    0000000180059fcc     dpiConn.obj
 0002:00011fdc       $unwind$dpiConn_create     0000000180059fdc     dpiConn.obj
 0002:00011ff8       $chain$2$dpiConn_create    0000000180059ff8     dpiConn.obj
 0002:0001200c       $chain$3$dpiConn_create    000000018005a00c     dpiConn.obj
 0002:0001200c       $chain$5$dpiConn_create    000000018005a00c     dpiConn.obj
 0002:0001201c       $chain$4$dpiConn_create    000000018005a01c     dpiConn.obj
 0002:00012030       $unwind$dpiConn_getServerVersion 000000018005a030     dpiConn.obj
 0002:00012030       $unwind$dpiConn_newTempLob 000000018005a030     dpiConn.obj
 0002:00012044       $chain$0$dpiConn_getStmtCacheSize 000000018005a044     dpiConn.obj
 0002:00012058       $chain$1$dpiConn_getStmtCacheSize 000000018005a058     dpiConn.obj
 0002:00012068       $unwind$dpiConn_newVar     000000018005a068     dpiConn.obj
 0002:0001207c       $chain$0$dpiConn_ping      000000018005a07c     dpiConn.obj
 0002:00012090       $chain$1$dpiConn_ping      000000018005a090     dpiConn.obj
 0002:000120a0       $unwind$dpiConn_prepareStmt 000000018005a0a0     dpiConn.obj
 0002:000120b8       $unwind$wctomb_s           000000018005a0b8     libucrt:wctomb.obj
 0002:000120b8       $unwind$_invalid_parameter_noinfo 000000018005a0b8     libucrt:invalid_parameter.obj
 0002:000120b8       $unwind$_itow_s            000000018005a0b8     libucrt:xtoa.obj
 0002:000120b8       $unwind$_sopen_s           000000018005a0b8     libucrt:open.obj
 0002:000120b8       $unwind$fread              000000018005a0b8     libucrt:fread.obj
 0002:000120b8       $unwind$_log10_special     000000018005a0b8     libucrt:log_special.obj
 0002:000120b8       $unwind$dpiConn_setAction  000000018005a0b8     dpiConn.obj
 0002:000120b8       $unwind$dpiConn_setModule  000000018005a0b8     dpiConn.obj
 0002:000120b8       $unwind$_invalid_parameter_noinfo_noreturn 000000018005a0b8     libucrt:invalid_parameter.obj
 0002:000120b8       $unwind$dpiConn_setClientIdentifier 000000018005a0b8     dpiConn.obj
 0002:000120c0       $unwind$dpiConn_setStmtCacheSize 000000018005a0c0     dpiConn.obj
 0002:000120d0       $chain$0$dpiConn_setStmtCacheSize 000000018005a0d0     dpiConn.obj
 0002:000120e4       $chain$1$dpiConn_setStmtCacheSize 000000018005a0e4     dpiConn.obj
 0002:000120f4       $chain$0$dpiContext__create 000000018005a0f4     dpiContext.obj
 0002:00012108       $chain$2$dpiContext__create 000000018005a108     dpiContext.obj
 0002:0001211c       $unwind$dpiContext_getClientVersion 000000018005a11c     dpiContext.obj
 0002:0001211c       $unwind$dpiContext_initCommonCreateParams 000000018005a11c     dpiContext.obj
 0002:0001212c       $unwind$dpiContext_initConnCreateParams 000000018005a12c     dpiContext.obj
 0002:0001212c       $unwind$dpiVar_getNumElementsInArray 000000018005a12c     dpiVar.obj
 0002:0001213c       $unwind$dpiContext_initPoolCreateParams 000000018005a13c     dpiContext.obj
 0002:0001214c       $chain$1$dpiContext_initPoolCreateParams 000000018005a14c     dpiContext.obj
 0002:00012160       $chain$2$dpiContext_initPoolCreateParams 000000018005a160     dpiContext.obj
 0002:00012170       $unwind$dpiDataBuffer__fromOracleNumberAsText 000000018005a170     dpiData.obj
 0002:00012190       $unwind$?__SehTransFilter@@YAHPEAU_EXCEPTION_POINTERS@@PEAUEHExceptionRecord@@PEA_KPEAU_CONTEXT@@PEAU_xDISPATCHER_CONTEXT@@PEBU_s_FuncInfo@@PEAH@Z 000000018005a190     libvcruntime:trnsctrl.obj
 0002:00012190       $unwind$_strnicmp_l        000000018005a190     libucrt:strnicmp.obj
 0002:00012190       $unwind$dpiOci__stmtExecute 000000018005a190     dpiOci.obj
 0002:00012190       $unwind$dpiDataBuffer__fromOracleTimestamp 000000018005a190     dpiData.obj
 0002:00012190       $unwind$dpiOci__objectPin  000000018005a190     dpiOci.obj
 0002:000121a4       $unwind$dpiDataBuffer__fromOracleTimestampAsDouble 000000018005a1a4     dpiData.obj
 0002:000121b8       $unwind$dpiDataBuffer__toOracleNumberFromText 000000018005a1b8     dpiData.obj
 0002:000121cc       $chain$1$dpiDataBuffer__toOracleNumberFromText 000000018005a1cc     dpiData.obj
 0002:000121e4       $chain$2$dpiDataBuffer__toOracleNumberFromText 000000018005a1e4     dpiData.obj
 0002:000121f4       $chain$3$dpiDataBuffer__toOracleNumberFromText 000000018005a1f4     dpiData.obj
 0002:0001220c       $unwind$dpiDataBuffer__toOracleTimestamp 000000018005a20c     dpiData.obj
 0002:00012224       $unwind$dpiDataBuffer__toOracleTimestampFromDouble 000000018005a224     dpiData.obj
 0002:00012238       $unwind$dpiDebug__getFormatWithPrefix 000000018005a238     dpiDebug.obj
 0002:00012254       $unwind$dpiDebug__print    000000018005a254     dpiDebug.obj
 0002:00012268       $unwind$dpiEnv__init       000000018005a268     dpiEnv.obj
 0002:00012280       $chain$0$dpiEnv__init      000000018005a280     dpiEnv.obj
 0002:00012294       $chain$2$dpiEnv__init      000000018005a294     dpiEnv.obj
 0002:000122ac       $chain$3$dpiEnv__init      000000018005a2ac     dpiEnv.obj
 0002:000122bc       $chain$4$dpiEnv__init      000000018005a2bc     dpiEnv.obj
 0002:000122cc       $unwind$dpiError__set      000000018005a2cc     dpiError.obj
 0002:000122d8       $chain$3$dpiError__set     000000018005a2d8     dpiError.obj
 0002:000122f8       $chain$4$dpiError__set     000000018005a2f8     dpiError.obj
 0002:00012308       $unwind$dpiOci__bindObject 000000018005a308     dpiOci.obj
 0002:00012308       $unwind$dpiOci__describeAny 000000018005a308     dpiOci.obj
 0002:00012308       $unwind$?x_ismbbtype_l@@YAHPEAU__crt_locale_pointers@@IHH@Z 000000018005a308     libucrt:ismbbyte.obj
 0002:00012308       $unwind$_stricmp_l         000000018005a308     libucrt:stricmp.obj
 0002:00012308       $unwind$dpiGen__addRef     000000018005a308     dpiGen.obj
 0002:00012308       $unwind$dpiGen__release    000000018005a308     dpiGen.obj
 0002:00012308       $unwind$dpiOci__defineObject 000000018005a308     dpiOci.obj
 0002:00012318       $unwind$dpiGen__allocate   000000018005a318     dpiGen.obj
 0002:00012334       $unwind$dpiGen__endPublicFn 000000018005a334     dpiGen.obj
 0002:00012344       $chain$0$dpiGen__endPublicFn 000000018005a344     dpiGen.obj
 0002:00012358       $chain$1$dpiGen__endPublicFn 000000018005a358     dpiGen.obj
 0002:00012368       $unwind$dpiGen__startPublicFn 000000018005a368     dpiGen.obj
 0002:0001237c       $chain$0$dpiGlobal__extendedInitialize 000000018005a37c     dpiGlobal.obj
 0002:00012390       $chain$2$dpiGlobal__extendedInitialize 000000018005a390     dpiGlobal.obj
 0002:000123a4       $unwind$dpiGlobal__finalize 000000018005a3a4     dpiGlobal.obj
 0002:000123ac       $chain$0$dpiGlobal__finalize 000000018005a3ac     dpiGlobal.obj
 0002:000123c0       $chain$1$dpiGlobal__finalize 000000018005a3c0     dpiGlobal.obj
 0002:000123d0       $unwind$dpiGlobal__initError 000000018005a3d0     dpiGlobal.obj
 0002:000123e0       $unwind$dpiGlobal__lookupCharSet 000000018005a3e0     dpiGlobal.obj
 0002:000123e0       $unwind$dpiGlobal__lookupEncoding 000000018005a3e0     dpiGlobal.obj
 0002:000123f8       $unwind$?write_string@?$string_output_adapter@_W@__crt_stdio_output@@QEBAXQEB_WHQEAH1@Z 000000018005a3f8     libucrt:output.obj
 0002:000123f8       $unwind$dpiHandleList__addHandle 000000018005a3f8     dpiHandleList.obj
 0002:000123f8       $unwind$?try_get_function@@YAPEAXW4function_id@?A0x63058377@@QEBDQEBW4module_id@2@2@Z 000000018005a3f8     libucrt:winapi_thunks.obj
 0002:000123f8       $unwind$?IsInExceptionSpec@@YAEPEAUEHExceptionRecord@@PEBU_s_ESTypeList@@@Z 000000018005a3f8     libvcruntime:frame.obj
 0002:000123f8       $unwind$?try_get_function@@YAPEAXW4function_id@?A0x679b24ab@@QEBDQEBW4module_id@2@2@Z 000000018005a3f8     libvcruntime:winapi_downlevel.obj
 0002:00012414       $unwind$?write_string@?$stream_output_adapter@D@__crt_stdio_output@@QEBAXQEBDHQEAH1@Z 000000018005a414     libucrt:output.obj
 0002:00012414       $unwind$dpiHandlePool__acquire 000000018005a414     dpiHandlePool.obj
 0002:00012414       $unwind$_chsize_nolock     000000018005a414     libucrt:chsize.obj
 0002:0001242c       $unwind$dpiLob__allocate   000000018005a42c     dpiLob.obj
 0002:00012444       $unwind$?write_string@?$stream_output_adapter@_W@__crt_stdio_output@@QEBAXQEB_WHQEAH1@Z 000000018005a444     libucrt:output.obj
 0002:00012444       $unwind$dpiLob__close      000000018005a444     dpiLob.obj
 0002:0001245c       $unwind$dpiLob__readBytes  000000018005a45c     dpiLob.obj
 0002:00012470       $chain$0$dpiLob_close      000000018005a470     dpiLob.obj
 0002:00012484       $chain$1$dpiLob_close      000000018005a484     dpiLob.obj
 0002:00012494       $unwind$dpiLob_copy        000000018005a494     dpiLob.obj
 0002:000124a4       $chain$0$dpiLob_copy       000000018005a4a4     dpiLob.obj
 0002:000124b8       $chain$2$dpiLob_copy       000000018005a4b8     dpiLob.obj
 0002:000124cc       $chain$3$dpiLob_copy       000000018005a4cc     dpiLob.obj
 0002:000124dc       $unwind$dpiStmt_define     000000018005a4dc     dpiStmt.obj
 0002:000124dc       $unwind$dpiLob_getBufferSize 000000018005a4dc     dpiLob.obj
 0002:000124dc       $unwind$dpiStmt_getRowCount 000000018005a4dc     dpiStmt.obj
 0002:000124dc       $unwind$dpiStmt_getNumQueryColumns 000000018005a4dc     dpiStmt.obj
 0002:000124dc       $unwind$dpiStmt_getBatchErrorCount 000000018005a4dc     dpiStmt.obj
 0002:000124dc       $unwind$dpiStmt_getRowCounts 000000018005a4dc     dpiStmt.obj
 0002:000124dc       $unwind$dpiStmt_getQueryInfo 000000018005a4dc     dpiStmt.obj
 0002:000124ec       $chain$0$dpiLob_getChunkSize 000000018005a4ec     dpiLob.obj
 0002:00012500       $chain$1$dpiLob_getChunkSize 000000018005a500     dpiLob.obj
 0002:00012510       $chain$0$dpiLob_getSize    000000018005a510     dpiLob.obj
 0002:00012524       $chain$1$dpiLob_getSize    000000018005a524     dpiLob.obj
 0002:00012534       $unwind$dpiObject__allocate 000000018005a534     dpiObject.obj
 0002:00012548       $unwind$dpiObjectType__allocate 000000018005a548     dpiObjectType.obj
 0002:0001255c       $unwind$__CxxFrameHandler3 000000018005a55c     libvcruntime:trnsctrl.obj
 0002:0001255c       $unwind$dpiObjectType__describe 000000018005a55c     dpiObjectType.obj
 0002:0001256c       $unwind$dpiObjectType__init 000000018005a56c     dpiObjectType.obj
 0002:00012580       $unwind$swprintf           000000018005a580     libucrt:assert.obj
 0002:00012580       $unwind$snprintf           000000018005a580     dpiOci.obj
 0002:00012590       $unwind$dpiOci__descriptorAlloc 000000018005a590     dpiOci.obj
 0002:00012590       $unwind$dpiOci__arrayDescriptorAlloc 000000018005a590     dpiOci.obj
 0002:000125a4       $unwind$dpiOci__bindByName2 000000018005a5a4     dpiOci.obj
 0002:000125a4       $unwind$dpiOci__bindByName 000000018005a5a4     dpiOci.obj
 0002:000125b4       $chain$3$dpiOci__bindByName 000000018005a5b4     dpiOci.obj
 0002:000125d4       $chain$5$dpiOci__bindByName 000000018005a5d4     dpiOci.obj
 0002:000125f4       $chain$3$dpiOci__bindByName2 000000018005a5f4     dpiOci.obj
 0002:00012614       $chain$5$dpiOci__bindByName2 000000018005a614     dpiOci.obj
 0002:00012634       $unwind$dpiOci__bindByPos  000000018005a634     dpiOci.obj
 0002:00012634       $unwind$dpiOci__bindByPos2 000000018005a634     dpiOci.obj
 0002:00012644       $chain$2$dpiOci__bindByPos 000000018005a644     dpiOci.obj
 0002:00012660       $chain$4$dpiOci__bindByPos 000000018005a660     dpiOci.obj
 0002:0001267c       $chain$2$dpiOci__bindByPos2 000000018005a67c     dpiOci.obj
 0002:00012698       $chain$4$dpiOci__bindByPos2 000000018005a698     dpiOci.obj
 0002:000126b4       $unwind$dpiOci__sessionGet 000000018005a6b4     dpiOci.obj
 0002:000126b4       $unwind$dpiOci__dateTimeConstruct 000000018005a6b4     dpiOci.obj
 0002:000126cc       $unwind$dpiOci__dateTimeGetDate 000000018005a6cc     dpiOci.obj
 0002:000126cc       $unwind$dpiOci__dateTimeSubtract 000000018005a6cc     dpiOci.obj
 0002:000126cc       $unwind$dpiOci__shardingKeyColumnAdd 000000018005a6cc     dpiOci.obj
 0002:000126cc       $unwind$dpiOci__intervalGetYearMonth 000000018005a6cc     dpiOci.obj
 0002:000126cc       $unwind$dpiOci__intervalSetYearMonth 000000018005a6cc     dpiOci.obj
 0002:000126cc       $unwind$dpiOci__handleAlloc 000000018005a6cc     dpiOci.obj
 0002:000126cc       $unwind$dpiOci__dateTimeIntervalAdd 000000018005a6cc     dpiOci.obj
 0002:000126cc       $unwind$dpiOci__dateTimeGetTimeZoneOffset 000000018005a6cc     dpiOci.obj
 0002:000126e4       $unwind$dpiOci__intervalSetDaySecond 000000018005a6e4     dpiOci.obj
 0002:000126e4       $unwind$dpiOci__dateTimeGetTime 000000018005a6e4     dpiOci.obj
 0002:000126e4       $unwind$dpiOci__intervalGetDaySecond 000000018005a6e4     dpiOci.obj
 0002:000126e4       $unwind$dpiOci__errorGet   000000018005a6e4     dpiOci.obj
 0002:000126fc       $unwind$dpiOci__defineByPos 000000018005a6fc     dpiOci.obj
 0002:000126fc       $unwind$dpiOci__defineByPos2 000000018005a6fc     dpiOci.obj
 0002:00012710       $chain$0$dpiOci__defineByPos 000000018005a710     dpiOci.obj
 0002:00012724       $chain$1$dpiOci__defineByPos 000000018005a724     dpiOci.obj
 0002:00012734       $chain$2$dpiOci__defineByPos 000000018005a734     dpiOci.obj
 0002:00012748       $chain$0$dpiOci__defineByPos2 000000018005a748     dpiOci.obj
 0002:0001275c       $chain$1$dpiOci__defineByPos2 000000018005a75c     dpiOci.obj
 0002:0001276c       $chain$2$dpiOci__defineByPos2 000000018005a76c     dpiOci.obj
 0002:00012780       $unwind$dpiOci__envNlsCreate 000000018005a780     dpiOci.obj
 0002:0001279c       $unwind$dpiOci__freeMem    000000018005a79c     dpiOci.obj
 0002:000127ac       $unwind$dpiOci__findAndCheckDllArchitecture 000000018005a7ac     dpiOci.obj
 0002:000127d0       $unwind$dpiOci__getLoadErrorOnWindows 000000018005a7d0     dpiOci.obj
 0002:000127e0       $chain$0$dpiOci__getLoadErrorOnWindows 000000018005a7e0     dpiOci.obj
 0002:000127f4       $chain$1$dpiOci__getLoadErrorOnWindows 000000018005a7f4     dpiOci.obj
 0002:00012804       $unwind$dpiOci__loadLib    000000018005a804     dpiOci.obj
 0002:00012824       $unwind$_wassert           000000018005a824     libucrt:assert.obj
 0002:00012824       $unwind$?find_or_allocate_unused_stream_nolock@@YA?AV__crt_stdio_stream@@XZ 000000018005a824     libucrt:stream.obj
 0002:00012824       $unwind$dpiOci__nlsCharSetNameToId 000000018005a824     dpiOci.obj
 0002:00012824       $unwind$?setSBCS@@YAXPEAU__crt_multibyte_data@@@Z 000000018005a824     libucrt:mbctype.obj
 0002:00012824       $unwind$__vcrt_InitializeCriticalSectionEx 000000018005a824     libvcruntime:winapi_downlevel.obj
 0002:00012824       $unwind$??$ensure_buffer_is_big_enough@D@formatting_buffer@__crt_stdio_output@@QEAA_N_K@Z 000000018005a824     libucrt:output.obj
 0002:00012824       $unwind$__acrt_lowio_create_handle_array 000000018005a824     libucrt:osfinfo.obj
 0002:00012824       $unwind$__acrt_free_locale 000000018005a824     libucrt:locale_refcounting.obj
 0002:00012824       $unwind$__acrt_InitializeCriticalSectionEx 000000018005a824     libucrt:winapi_thunks.obj
 0002:00012824       $unwind$?_ExecutionInCatch@@YAHPEAU_xDISPATCHER_CONTEXT@@PEBU_s_FuncInfo@@@Z 000000018005a824     libvcruntime:trnsctrl.obj
 0002:00012824       $unwind$__acrt_execute_initializers 000000018005a824     libucrt:shared_initialization.obj
 0002:00012824       $unwind$_recalloc_base     000000018005a824     libucrt:recalloc.obj
 0002:00012824       $unwind$dpiOci__lobIsTemporary 000000018005a824     dpiOci.obj
 0002:00012824       $unwind$?expand_if_necessary@?$argument_list@D@?A0xca0879c4@@AEAAHXZ 000000018005a824     libucrt:argv_wildcards.obj
 0002:00012824       $unwind$?dllmain_raw@@YAHQEAUHINSTANCE__@@KQEAX@Z 000000018005a824     LIBCMT:dll_dllmain.obj
 0002:00012824       $unwind$_seh_filter_exe    000000018005a824     libucrt:exception_filter.obj
 0002:00012824       $unwind$__scrt_dllmain_exception_filter 000000018005a824     LIBCMT:utility.obj
 0002:00012838       $unwind$dpiOci__lobWrite2  000000018005a838     dpiOci.obj
 0002:0001284c       $unwind$dpiStmt__prepare   000000018005a84c     dpiStmt.obj
 0002:0001284c       $unwind$dpiOci__numberToInt 000000018005a84c     dpiOci.obj
 0002:0001284c       $unwind$dpiOci__numberFromInt 000000018005a84c     dpiOci.obj
 0002:0001284c       $unwind$dpiOci__sessionBegin 000000018005a84c     dpiOci.obj
 0002:0001284c       $unwind$dpiOci__serverAttach 000000018005a84c     dpiOci.obj
 0002:0001284c       $unwind$dpiOci__memoryAlloc 000000018005a84c     dpiOci.obj
 0002:00012860       $unwind$dpiOci__nlsCharSetIdToName 000000018005a860     dpiOci.obj
 0002:00012870       $unwind$dpiOci__nlsNameMap 000000018005a870     dpiOci.obj
 0002:00012880       $unwind$dpiOci__numberFromReal 000000018005a880     dpiOci.obj
 0002:0001288c       $unwind$dpiOci__objectNew  000000018005a88c     dpiOci.obj
 0002:00012898       $unwind$dpiStmt_fetchRows  000000018005a898     dpiStmt.obj
 0002:00012898       $unwind$dpiOci__passwordChange 000000018005a898     dpiOci.obj
 0002:000128b0       $unwind$dpiOci__reallocMem 000000018005a8b0     dpiOci.obj
 0002:000128c4       $unwind$dpiOci__sessionPoolCreate 000000018005a8c4     dpiOci.obj
 0002:000128dc       $unwind$dpiOci__stmtPrepare2 000000018005a8dc     dpiOci.obj
 0002:000128f4       $unwind$dpiOci__threadKeyInit 000000018005a8f4     dpiOci.obj
 0002:00012900       $unwind$dpiOci__threadKeySet 000000018005a900     dpiOci.obj
 0002:00012914       $unwind$dpiOracleType__populateTypeInfo 000000018005a914     dpiOracleType.obj
 0002:00012928       $chain$0$dpiOracleType__populateTypeInfo 000000018005a928     dpiOracleType.obj
 0002:0001293c       $unwind$dpiPool__acquireConnection 000000018005a93c     dpiPool.obj
 0002:00012950       $unwind$dpiPool__create    000000018005a950     dpiPool.obj
 0002:00012964       $chain$1$dpiPool__create   000000018005a964     dpiPool.obj
 0002:0001297c       $chain$2$dpiPool__create   000000018005a97c     dpiPool.obj
 0002:0001298c       $chain$0$dpiPool__getAttributeUint 000000018005a98c     dpiPool.obj
 0002:000129a0       $chain$1$dpiPool__getAttributeUint 000000018005a9a0     dpiPool.obj
 0002:000129b0       $unwind$dpiPool__setAttributeUint 000000018005a9b0     dpiPool.obj
 0002:000129c0       $chain$0$dpiPool__setAttributeUint 000000018005a9c0     dpiPool.obj
 0002:000129d4       $chain$1$dpiPool__setAttributeUint 000000018005a9d4     dpiPool.obj
 0002:000129e4       $unwind$dpiPool_acquireConnection 000000018005a9e4     dpiPool.obj
 0002:000129f8       $chain$0$dpiPool_acquireConnection 000000018005a9f8     dpiPool.obj
 0002:00012a0c       $chain$3$dpiPool_acquireConnection 000000018005aa0c     dpiPool.obj
 0002:00012a0c       $chain$1$dpiPool_acquireConnection 000000018005aa0c     dpiPool.obj
 0002:00012a1c       $chain$2$dpiPool_acquireConnection 000000018005aa1c     dpiPool.obj
 0002:00012a30       $chain$0$dpiPool_close     000000018005aa30     dpiPool.obj
 0002:00012a44       $chain$1$dpiPool_close     000000018005aa44     dpiPool.obj
 0002:00012a54       $unwind$dpiPool_create     000000018005aa54     dpiPool.obj
 0002:00012a6c       $chain$1$dpiPool_create    000000018005aa6c     dpiPool.obj
 0002:00012a80       $chain$2$dpiPool_create    000000018005aa80     dpiPool.obj
 0002:00012a94       $chain$3$dpiPool_create    000000018005aa94     dpiPool.obj
 0002:00012aa4       $chain$6$dpiPool_create    000000018005aaa4     dpiPool.obj
 0002:00012aa4       $chain$4$dpiPool_create    000000018005aaa4     dpiPool.obj
 0002:00012ab4       $chain$5$dpiPool_create    000000018005aab4     dpiPool.obj
 0002:00012acc       $unwind$dpiRowid__allocate 000000018005aacc     dpiRowid.obj
 0002:00012ae0       $unwind$dpiRowid_getStringValue 000000018005aae0     dpiRowid.obj
 0002:00012afc       $chain$3$dpiRowid_getStringValue 000000018005aafc     dpiRowid.obj
 0002:00012b10       $chain$6$dpiRowid_getStringValue 000000018005ab10     dpiRowid.obj
 0002:00012b10       $chain$4$dpiRowid_getStringValue 000000018005ab10     dpiRowid.obj
 0002:00012b20       $chain$5$dpiRowid_getStringValue 000000018005ab20     dpiRowid.obj
 0002:00012b34       $unwind$dpiStmt__bind      000000018005ab34     dpiStmt.obj
 0002:00012b50       $unwind$dpiStmt__clearBindVars 000000018005ab50     dpiStmt.obj
 0002:00012b60       $chain$1$dpiStmt__clearBindVars 000000018005ab60     dpiStmt.obj
 0002:00012b78       $chain$2$dpiStmt__clearBindVars 000000018005ab78     dpiStmt.obj
 0002:00012b8c       $chain$3$dpiStmt__clearBindVars 000000018005ab8c     dpiStmt.obj
 0002:00012b9c       $unwind$dpiStmt__clearQueryVars 000000018005ab9c     dpiStmt.obj
 0002:00012bac       $chain$0$dpiStmt__clearQueryVars 000000018005abac     dpiStmt.obj
 0002:00012bc0       $chain$1$dpiStmt__clearQueryVars 000000018005abc0     dpiStmt.obj
 0002:00012bd4       $chain$2$dpiStmt__clearQueryVars 000000018005abd4     dpiStmt.obj
 0002:00012be4       $chain$3$dpiStmt__clearQueryVars 000000018005abe4     dpiStmt.obj
 0002:00012bf4       $unwind$dpiStmt__close     000000018005abf4     dpiStmt.obj
 0002:00012c08       $chain$0$dpiStmt__close    000000018005ac08     dpiStmt.obj
 0002:00012c1c       $chain$1$dpiStmt__close    000000018005ac1c     dpiStmt.obj
 0002:00012c2c       $unwind$dpiStmt__createQueryVars 000000018005ac2c     dpiStmt.obj
 0002:00012c38       $chain$0$dpiStmt__createQueryVars 000000018005ac38     dpiStmt.obj
 0002:00012c4c       $chain$4$dpiStmt__createQueryVars 000000018005ac4c     dpiStmt.obj
 0002:00012c4c       $chain$2$dpiStmt__createQueryVars 000000018005ac4c     dpiStmt.obj
 0002:00012c60       $unwind$dpiStmt__define    000000018005ac60     dpiStmt.obj
 0002:00012c70       $chain$0$dpiStmt__define   000000018005ac70     dpiStmt.obj
 0002:00012c84       $unwind$dpiStmt__execute   000000018005ac84     dpiStmt.obj
 0002:00012c9c       $unwind$dpiStmt__fetch     000000018005ac9c     dpiStmt.obj
 0002:00012cac       $unwind$dpiStmt__getBatchErrors 000000018005acac     dpiStmt.obj
 0002:00012cc0       $chain$2$dpiStmt__getBatchErrors 000000018005acc0     dpiStmt.obj
 0002:00012cd4       $chain$3$dpiStmt__getBatchErrors 000000018005acd4     dpiStmt.obj
 0002:00012ce4       $unwind$dpiStmt__getQueryInfo 000000018005ace4     dpiStmt.obj
 0002:00012ce4       $unwind$?write_stored_string_tchar@?$output_processor@_WV?$stream_output_adapter@_W@__crt_stdio_output@@V?$standard_base@_WV?$stream_output_adapter@_W@__crt_stdio_output@@@2@@__crt_stdio_output@@AEAA_N_W@Z 000000018005ace4     libucrt:output.obj
 0002:00012cf8       $unwind$dpiStmt__getQueryInfoFromParam 000000018005acf8     dpiStmt.obj
 0002:00012d0c       $unwind$dpiStmt__postFetch 000000018005ad0c     dpiStmt.obj
 0002:00012d28       $unwind$dpiStmt__preFetch  000000018005ad28     dpiStmt.obj
 0002:00012d34       $chain$2$dpiStmt__preFetch 000000018005ad34     dpiStmt.obj
 0002:00012d50       $chain$4$dpiStmt__preFetch 000000018005ad50     dpiStmt.obj
 0002:00012d6c       $unwind$dpiStmt__reExecute 000000018005ad6c     dpiStmt.obj
 0002:00012d88       $unwind$dpiStmt_bindByName 000000018005ad88     dpiStmt.obj
 0002:00012d88       $unwind$_strnicoll_l       000000018005ad88     libucrt:strnicol.obj
 0002:00012d9c       $unwind$dpiStmt_bindByPos  000000018005ad9c     dpiStmt.obj
 0002:00012db0       $chain$0$dpiStmt_bindByPos 000000018005adb0     dpiStmt.obj
 0002:00012dc4       $chain$1$dpiStmt_bindByPos 000000018005adc4     dpiStmt.obj
 0002:00012dd4       $chain$0$dpiStmt_close     000000018005add4     dpiStmt.obj
 0002:00012de8       $chain$1$dpiStmt_close     000000018005ade8     dpiStmt.obj
 0002:00012df8       $unwind$dpiStmt_executeMany 000000018005adf8     dpiStmt.obj
 0002:00012e10       $unwind$dpiStmt_getBatchErrors 000000018005ae10     dpiStmt.obj
 0002:00012e10       $unwind$__acrt_CompareStringA 000000018005ae10     libucrt:comparestringa.obj
 0002:00012e20       $chain$0$dpiStmt_getBindCount 000000018005ae20     dpiStmt.obj
 0002:00012e34       $chain$1$dpiStmt_getBindCount 000000018005ae34     dpiStmt.obj
 0002:00012e44       $unwind$dpiStmt_getBindNames 000000018005ae44     dpiStmt.obj
 0002:00012e64       $chain$0$dpiStmt_setFetchArraySize 000000018005ae64     dpiStmt.obj
 0002:00012e78       $chain$2$dpiStmt_setFetchArraySize 000000018005ae78     dpiStmt.obj
 0002:00012e8c       $chain$3$dpiStmt_setFetchArraySize 000000018005ae8c     dpiStmt.obj
 0002:00012e9c       $unwind$dpiUtils__getAttrStringWithDup 000000018005ae9c     dpiUtils.obj
 0002:00012eb4       $unwind$dpiUtils__parseNumberString 000000018005aeb4     dpiUtils.obj
 0002:00012ed0       $chain$2$dpiUtils__parseNumberString 000000018005aed0     dpiUtils.obj
 0002:00012eec       $chain$7$dpiUtils__parseNumberString 000000018005aeec     dpiUtils.obj
 0002:00012eec       $chain$3$dpiUtils__parseNumberString 000000018005aeec     dpiUtils.obj
 0002:00012efc       $chain$6$dpiUtils__parseNumberString 000000018005aefc     dpiUtils.obj
 0002:00012efc       $chain$4$dpiUtils__parseNumberString 000000018005aefc     dpiUtils.obj
 0002:00012f14       $chain$5$dpiUtils__parseNumberString 000000018005af14     dpiUtils.obj
 0002:00012f14       $chain$8$dpiUtils__parseNumberString 000000018005af14     dpiUtils.obj
 0002:00012f30       $unwind$dpiVar__allocate   000000018005af30     dpiVar.obj
 0002:00012f40       $chain$0$dpiVar__allocate  000000018005af40     dpiVar.obj
 0002:00012f54       $chain$1$dpiVar__allocate  000000018005af54     dpiVar.obj
 0002:00012f68       $chain$2$dpiVar__allocate  000000018005af68     dpiVar.obj
 0002:00012f7c       $chain$3$dpiVar__allocate  000000018005af7c     dpiVar.obj
 0002:00012f7c       $chain$6$dpiVar__allocate  000000018005af7c     dpiVar.obj
 0002:00012f8c       $chain$5$dpiVar__allocate  000000018005af8c     dpiVar.obj
 0002:00012fa0       $chain$4$dpiVar__allocate  000000018005afa0     dpiVar.obj
 0002:00012fb4       $chain$7$dpiVar__allocate  000000018005afb4     dpiVar.obj
 0002:00012fc4       $chain$9$dpiVar__allocate  000000018005afc4     dpiVar.obj
 0002:00012fe4       $chain$10$dpiVar__allocate 000000018005afe4     dpiVar.obj
 0002:00012ff4       $unwind$dpiVar__allocateChunks 000000018005aff4     dpiVar.obj
 0002:0001300c       $unwind$dpiVar__allocateDynamicBytes 000000018005b00c     dpiVar.obj
 0002:00013020       $unwind$dpiVar__convertToLob 000000018005b020     dpiVar.obj
 0002:00013030       $chain$2$dpiVar__convertToLob 000000018005b030     dpiVar.obj
 0002:0001304c       $chain$4$dpiVar__convertToLob 000000018005b04c     dpiVar.obj
 0002:00013068       $unwind$dpiVar__defineCallback 000000018005b068     dpiVar.obj
 0002:00013080       $unwind$dpiVar__extendedPreFetch 000000018005b080     dpiVar.obj
 0002:000130a0       $unwind$dpiVar__finalizeBuffer 000000018005b0a0     dpiVar.obj
 0002:000130ac       $chain$1$dpiVar__finalizeBuffer 000000018005b0ac     dpiVar.obj
 0002:000130c4       $chain$2$dpiVar__finalizeBuffer 000000018005b0c4     dpiVar.obj
 0002:000130d8       $chain$3$dpiVar__finalizeBuffer 000000018005b0d8     dpiVar.obj
 0002:000130ec       $chain$4$dpiVar__finalizeBuffer 000000018005b0ec     dpiVar.obj
 0002:000130fc       $chain$5$dpiVar__finalizeBuffer 000000018005b0fc     dpiVar.obj
 0002:0001310c       $chain$6$dpiVar__finalizeBuffer 000000018005b10c     dpiVar.obj
 0002:0001311c       $chain$0$dpiVar__free      000000018005b11c     dpiVar.obj
 0002:00013130       $chain$1$dpiVar__free      000000018005b130     dpiVar.obj
 0002:00013144       $chain$2$dpiVar__free      000000018005b144     dpiVar.obj
 0002:00013158       $chain$3$dpiVar__free      000000018005b158     dpiVar.obj
 0002:00013168       $chain$4$dpiVar__free      000000018005b168     dpiVar.obj
 0002:00013178       $chain$5$dpiVar__free      000000018005b178     dpiVar.obj
 0002:00013188       $unwind$dpiVar__getValue   000000018005b188     dpiVar.obj
 0002:00013194       $chain$0$dpiVar__getValue  000000018005b194     dpiVar.obj
 0002:000131a8       $chain$2$dpiVar__getValue  000000018005b1a8     dpiVar.obj
 0002:000131a8       $chain$6$dpiVar__getValue  000000018005b1a8     dpiVar.obj
 0002:000131a8       $chain$14$dpiVar__getValue 000000018005b1a8     dpiVar.obj
 0002:000131a8       $chain$8$dpiVar__getValue  000000018005b1a8     dpiVar.obj
 0002:000131a8       $chain$10$dpiVar__getValue 000000018005b1a8     dpiVar.obj
 0002:000131a8       $chain$16$dpiVar__getValue 000000018005b1a8     dpiVar.obj
 0002:000131a8       $chain$34$dpiVar__getValue 000000018005b1a8     dpiVar.obj
 0002:000131a8       $chain$4$dpiVar__getValue  000000018005b1a8     dpiVar.obj
 0002:000131a8       $chain$32$dpiVar__getValue 000000018005b1a8     dpiVar.obj
 0002:000131a8       $chain$30$dpiVar__getValue 000000018005b1a8     dpiVar.obj
 0002:000131a8       $chain$18$dpiVar__getValue 000000018005b1a8     dpiVar.obj
 0002:000131a8       $chain$28$dpiVar__getValue 000000018005b1a8     dpiVar.obj
 0002:000131a8       $chain$26$dpiVar__getValue 000000018005b1a8     dpiVar.obj
 0002:000131a8       $chain$24$dpiVar__getValue 000000018005b1a8     dpiVar.obj
 0002:000131a8       $chain$20$dpiVar__getValue 000000018005b1a8     dpiVar.obj
 0002:000131a8       $chain$22$dpiVar__getValue 000000018005b1a8     dpiVar.obj
 0002:000131a8       $chain$12$dpiVar__getValue 000000018005b1a8     dpiVar.obj
 0002:000131bc       $chain$35$dpiVar__getValue 000000018005b1bc     dpiVar.obj
 0002:000131cc       $unwind$dpiVar__initBuffer 000000018005b1cc     dpiVar.obj
 0002:000131e4       $chain$0$dpiVar__initBuffer 000000018005b1e4     dpiVar.obj
 0002:000131f8       $chain$1$dpiVar__initBuffer 000000018005b1f8     dpiVar.obj
 0002:00013208       $unwind$?state_case_type@?$output_processor@DV?$stream_output_adapter@D@__crt_stdio_output@@V?$standard_base@DV?$stream_output_adapter@D@__crt_stdio_output@@@2@@__crt_stdio_output@@AEAA_NXZ 000000018005b208     libucrt:output.obj
 0002:00013208       $unwind$?configure_text_mode@@YAHHUfile_options@?A0x656cf9f4@@HAEAW4__crt_lowio_text_mode@@@Z 000000018005b208     libucrt:open.obj
 0002:00013208       $unwind$dpiVar__outBindCallback 000000018005b208     dpiVar.obj
 0002:00013208       $unwind$?state_case_type@?$output_processor@DV?$string_output_adapter@D@__crt_stdio_output@@V?$standard_base@DV?$string_output_adapter@D@__crt_stdio_output@@@2@@__crt_stdio_output@@AEAA_NXZ 000000018005b208     libucrt:output.obj
 0002:00013220       $unwind$dpiVar__setBytesFromDynamicBytes 000000018005b220     dpiVar.obj
 0002:00013238       $chain$3$dpiVar__setBytesFromDynamicBytes 000000018005b238     dpiVar.obj
 0002:0001324c       $chain$4$dpiVar__setBytesFromDynamicBytes 000000018005b24c     dpiVar.obj
 0002:0001325c       $unwind$dpiVar__setBytesFromLob 000000018005b25c     dpiVar.obj
 0002:00013270       $chain$0$dpiVar__setBytesFromLob 000000018005b270     dpiVar.obj
 0002:00013284       $chain$1$dpiVar__setBytesFromLob 000000018005b284     dpiVar.obj
 0002:00013294       $unwind$dpiVar__setFromBytes 000000018005b294     dpiVar.obj
 0002:000132ac       $chain$0$dpiVar__setFromBytes 000000018005b2ac     dpiVar.obj
 0002:000132c0       $chain$2$dpiVar__setFromBytes 000000018005b2c0     dpiVar.obj
 0002:000132d4       $chain$3$dpiVar__setFromBytes 000000018005b2d4     dpiVar.obj
 0002:000132e4       $unwind$?parse_int_from_format_string@?$output_processor@_WV?$string_output_adapter@_W@__crt_stdio_output@@V?$standard_base@_WV?$string_output_adapter@_W@__crt_stdio_output@@@2@@__crt_stdio_output@@AEAA_NQEAH@Z 000000018005b2e4     libucrt:output.obj
 0002:000132e4       $unwind$?parse_int_from_format_string@?$output_processor@_WV?$stream_output_adapter@_W@__crt_stdio_output@@V?$standard_base@_WV?$stream_output_adapter@_W@__crt_stdio_output@@@2@@__crt_stdio_output@@AEAA_NQEAH@Z 000000018005b2e4     libucrt:output.obj
 0002:000132e4       $unwind$dpiVar__setFromLob 000000018005b2e4     dpiVar.obj
 0002:000132f8       $chain$0$dpiVar__setFromLob 000000018005b2f8     dpiVar.obj
 0002:0001330c       $chain$1$dpiVar__setFromLob 000000018005b30c     dpiVar.obj
 0002:0001331c       $unwind$dpiVar__setValue   000000018005b31c     dpiVar.obj
 0002:0001332c       $chain$2$dpiVar__setValue  000000018005b32c     dpiVar.obj
 0002:00013348       $chain$4$dpiVar__setValue  000000018005b348     dpiVar.obj
 0002:00013364       $chain$5$dpiVar__setValue  000000018005b364     dpiVar.obj
 0002:00013374       $chain$0$dpiVar_setFromLob 000000018005b374     dpiVar.obj
 0002:00013388       $chain$1$dpiVar_setFromLob 000000018005b388     dpiVar.obj
 0002:00013398       $unwind$dpiVar_setNumElementsInArray 000000018005b398     dpiVar.obj
 0002:000133a8       xdata                      000000018005b3a8     node:node.exe
 0002:000133b0       $xdatasym                  000000018005b3b0     LIBCMT:_amdsecgs_.obj
 0002:000133b4       $unwind$??_M@YAXPEAX_K1P6AX0@Z@Z 000000018005b3b4     LIBCMT:ehvecdtr.obj
 0002:000133dc       $unwind$?__ArrayUnwind@@YAXPEAX_K1P6AX0@Z@Z 000000018005b3dc     LIBCMT:ehvecdtr.obj
 0002:00013408       $unwind$__scrt_is_nonwritable_in_current_image 000000018005b408     LIBCMT:utility.obj
 0002:00013428       $unwind$__scrt_is_nonwritable_in_current_image$filt$0 000000018005b428     LIBCMT:utility.obj
 0002:00013430       $unwind$__scrt_initialize_onexit_tables 000000018005b430     LIBCMT:utility.obj
 0002:0001343c       $unwind$??_L@YAXPEAX_K1P6AX0@Z2@Z 000000018005b43c     LIBCMT:ehvecctr.obj
 0002:00013468       $unwind$__report_securityfailure 000000018005b468     LIBCMT:gs_report.obj
 0002:00013470       $unwind$_putwch_nolock     000000018005b470     libucrt:putwch.obj
 0002:00013470       $unwind$__report_gsfailure 000000018005b470     LIBCMT:gs_report.obj
 0002:00013478       $unwind$capture_current_context 000000018005b478     LIBCMT:gs_report.obj
 0002:00013484       $unwind$capture_previous_context 000000018005b484     LIBCMT:gs_report.obj
 0002:00013490       $unwind$?dllmain_crt_process_attach@@YAHQEAUHINSTANCE__@@QEAX@Z 000000018005b490     LIBCMT:dll_dllmain.obj
 0002:000134bc       $unwind$?dllmain_crt_process_detach@@YAH_N@Z 000000018005b4bc     LIBCMT:dll_dllmain.obj
 0002:000134e4       $unwind$?dllmain_dispatch@@YAHQEAUHINSTANCE__@@KQEAX@Z 000000018005b4e4     LIBCMT:dll_dllmain.obj
 0002:0001350c       $unwind$?_Xout_of_range@std@@YAXPEBD@Z 000000018005b50c     libcpmt:xthrow.obj
 0002:0001350c       $unwind$?_Xbad_alloc@std@@YAXXZ 000000018005b50c     libcpmt:xthrow.obj
 0002:0001350c       $unwind$?__scrt_throw_std_bad_array_new_length@@YAXXZ 000000018005b50c     LIBCMT:throw_bad_alloc.obj
 0002:0001350c       $unwind$__dcrt_lowio_initialize_console_output 000000018005b50c     libucrt:initcon.obj
 0002:0001350c       $unwind$?_Xlength_error@std@@YAXPEBD@Z 000000018005b50c     libcpmt:xthrow.obj
 0002:0001350c       $unwind$?__scrt_throw_std_bad_alloc@@YAXXZ 000000018005b50c     LIBCMT:throw_bad_alloc.obj
 0002:0001350c       $unwind$_raise_exc         000000018005b50c     libucrt:fpexcept.obj
 0002:00013514       $unwind$__isa_available_init 000000018005b514     LIBCMT:_cpu_disp_.obj
 0002:00013524       $unwind$__scrt_fastfail    000000018005b524     LIBCMT:utility_desktop.obj
 0002:00013534       $unwind$__security_init_cookie 000000018005b534     LIBCMT:gs_support.obj
 0002:00013540       $xdatasym                  000000018005b540     LIBCMT:_guard_dispatch_.obj
 0002:00013548       $xdatasym                  000000018005b548     libvcruntime:memcpy.obj
 0002:0001354c       $unwind$__CxxCallCatchBlock 000000018005b54c     libvcruntime:frame.obj
 0002:00013588       $unwind$__CxxCallCatchBlock$fin$1 000000018005b588     libvcruntime:frame.obj
 0002:00013594       $unwind$__FrameUnwindToState 000000018005b594     libvcruntime:frame.obj
 0002:000135d0       $unwind$?FindHandler@@YAXPEAUEHExceptionRecord@@PEA_KPEAU_CONTEXT@@PEAU_xDISPATCHER_CONTEXT@@PEBU_s_FuncInfo@@EH1@Z 000000018005b5d0     libvcruntime:frame.obj
 0002:000135f0       $unwind$?CatchIt@@YAXPEAUEHExceptionRecord@@PEA_KPEAU_CONTEXT@@PEAU_xDISPATCHER_CONTEXT@@PEBU_s_FuncInfo@@PEBU_s_HandlerType@@PEBU_s_CatchableType@@PEBU_s_TryBlockMapEntry@@H1EE@Z 000000018005b5f0     libvcruntime:frame.obj
 0002:00013608       $unwind$__BuildCatchObject 000000018005b608     libvcruntime:frame.obj
 0002:00013634       $unwind$?FindHandlerForForeignException@@YAXPEAUEHExceptionRecord@@PEA_KPEAU_CONTEXT@@PEAU_xDISPATCHER_CONTEXT@@PEBU_s_FuncInfo@@HH1@Z 000000018005b634     libvcruntime:frame.obj
 0002:0001364c       $unwind$__DestructExceptionObject 000000018005b64c     libvcruntime:frame.obj
 0002:00013670       $unwind$__InternalCxxFrameHandler 000000018005b670     libvcruntime:frame.obj
 0002:00013670       $unwind$__C_specific_handler 000000018005b670     libvcruntime:_chandler_.obj
 0002:0001368c       $unwind$__BuildCatchObjectHelper 000000018005b68c     libvcruntime:frame.obj
 0002:000136cc       $unwind$strrchr            000000018005b6cc     libvcruntime:strrchr.obj
 0002:000136cc       $unwind$strchr             000000018005b6cc     libvcruntime:strchr.obj
 0002:000136d4       $unwind$_CxxThrowException 000000018005b6d4     libvcruntime:throw.obj
 0002:000136e8       $xdatasym                  000000018005b6e8     libvcruntime:memset.obj
 0002:000136f0       $xdatasym                  000000018005b6f0     libvcruntime:handlers.obj
 0002:000136f8       $unwind$?_GetEstablisherFrame@@YAPEA_KPEA_KPEAU_xDISPATCHER_CONTEXT@@PEBU_s_FuncInfo@@0@Z 000000018005b6f8     libvcruntime:trnsctrl.obj
 0002:00013710       $unwind$?__FrameUnwindToEmptyState@@YAXPEA_KPEAU_xDISPATCHER_CONTEXT@@PEBU_s_FuncInfo@@@Z 000000018005b710     libvcruntime:trnsctrl.obj
 0002:00013724       $unwind$_CallSETranslator  000000018005b724     libvcruntime:trnsctrl.obj
 0002:00013748       $unwind$?fin$0@?0???$common_sopen_dispatch@D@@YAHQEBDHHHQEAHH@Z@4HA 000000018005b748     libucrt:open.obj
 0002:00013748       $unwind$_CallSETranslator$filt$0 000000018005b748     libvcruntime:trnsctrl.obj
 0002:00013750       $unwind$?write_string@?$string_output_adapter@D@__crt_stdio_output@@QEBAXQEBDHQEAH1@Z 000000018005b750     libucrt:output.obj
 0002:00013750       $unwind$??$parse_command_line@D@@YAXPEADPEAPEAD0PEA_K2@Z 000000018005b750     libucrt:argv_parsing.obj
 0002:00013750       $unwind$?_GetRangeOfTrysToCheck@@YAPEBU_s_TryBlockMapEntry@@PEA_KPEBU_s_FuncInfo@@HHPEAI2PEAU_xDISPATCHER_CONTEXT@@@Z 000000018005b750     libvcruntime:trnsctrl.obj
 0002:00013750       $unwind$??R<lambda_4e60a939b0d047cfe11ddc22648dfba9>@@QEBAHXZ 000000018005b750     libucrt:onexit.obj
 0002:0001376c       $unwind$_UnwindNestedFrames 000000018005b76c     libvcruntime:trnsctrl.obj
 0002:00013780       $xdatasym                  000000018005b780     libvcruntime:_jmpuwind_.obj
 0002:00013794       $unwind$??$common_assert_to_stderr@_W@@YAXQEB_W0I@Z 000000018005b794     libucrt:assert.obj
 0002:000137b0       $unwind$??$common_assert_to_message_box@_W@@YAXQEB_W0IQEAX@Z 000000018005b7b0     libucrt:assert.obj
 0002:000137cc       $unwind$??$common_assert_to_message_box_build_string@_W@@YAXQEA_W_KQEB_W2IQEAX@Z 000000018005b7cc     libucrt:assert.obj
 0002:000137ec       $unwind$__acrt_call_reportfault 000000018005b7ec     libucrt:invalid_parameter.obj
 0002:0001380c       $unwind$_invalid_parameter 000000018005b80c     libucrt:invalid_parameter.obj
 0002:00013824       $unwind$__stdio_common_vfprintf 000000018005b824     libucrt:output.obj
 0002:00013824       $unwind$__stdio_common_vfwprintf 000000018005b824     libucrt:output.obj
 0002:0001382c       $unwind$__stdio_common_vswprintf 000000018005b82c     libucrt:output.obj
 0002:0001382c       $unwind$__stdio_common_vsprintf 000000018005b82c     libucrt:output.obj
 0002:00013850       $unwind$?process@?$output_processor@DV?$string_output_adapter@D@__crt_stdio_output@@V?$standard_base@DV?$string_output_adapter@D@__crt_stdio_output@@@2@@__crt_stdio_output@@QEAAHXZ 000000018005b850     libucrt:output.obj
 0002:00013850       $unwind$?process@?$output_processor@DV?$stream_output_adapter@D@__crt_stdio_output@@V?$standard_base@DV?$stream_output_adapter@D@__crt_stdio_output@@@2@@__crt_stdio_output@@QEAAHXZ 000000018005b850     libucrt:output.obj
 0002:00013860       $unwind$?parse_int_from_format_string@?$output_processor@DV?$stream_output_adapter@D@__crt_stdio_output@@V?$standard_base@DV?$stream_output_adapter@D@__crt_stdio_output@@@2@@__crt_stdio_output@@AEAA_NQEAH@Z 000000018005b860     libucrt:output.obj
 0002:00013860       $unwind$?parse_int_from_format_string@?$output_processor@DV?$string_output_adapter@D@__crt_stdio_output@@V?$standard_base@DV?$string_output_adapter@D@__crt_stdio_output@@@2@@__crt_stdio_output@@AEAA_NQEAH@Z 000000018005b860     libucrt:output.obj
 0002:00013874       $unwind$?write_stored_string_tchar@?$output_processor@DV?$string_output_adapter@D@__crt_stdio_output@@V?$standard_base@DV?$string_output_adapter@D@__crt_stdio_output@@@2@@__crt_stdio_output@@AEAA_ND@Z 000000018005b874     libucrt:output.obj
 0002:00013874       $unwind$?write_stored_string_tchar@?$output_processor@DV?$stream_output_adapter@D@__crt_stdio_output@@V?$standard_base@DV?$stream_output_adapter@D@__crt_stdio_output@@@2@@__crt_stdio_output@@AEAA_ND@Z 000000018005b874     libucrt:output.obj
 0002:0001388c       $unwind$?process@?$output_processor@_WV?$stream_output_adapter@_W@__crt_stdio_output@@V?$standard_base@_WV?$stream_output_adapter@_W@__crt_stdio_output@@@2@@__crt_stdio_output@@QEAAHXZ 000000018005b88c     libucrt:output.obj
 0002:000138a4       $unwind$?state_case_type@?$output_processor@_WV?$stream_output_adapter@_W@__crt_stdio_output@@V?$standard_base@_WV?$stream_output_adapter@_W@__crt_stdio_output@@@2@@__crt_stdio_output@@AEAA_NXZ 000000018005b8a4     libucrt:output.obj
 0002:000138a4       $unwind$?state_case_type@?$output_processor@_WV?$string_output_adapter@_W@__crt_stdio_output@@V?$standard_base@_WV?$string_output_adapter@_W@__crt_stdio_output@@@2@@__crt_stdio_output@@AEAA_NXZ 000000018005b8a4     libucrt:output.obj
 0002:000138c8       $unwind$?type_case_a@?$output_processor@_WV?$stream_output_adapter@_W@__crt_stdio_output@@V?$standard_base@_WV?$stream_output_adapter@_W@__crt_stdio_output@@@2@@__crt_stdio_output@@AEAA_NXZ 000000018005b8c8     libucrt:output.obj
 0002:000138c8       $unwind$?type_case_a@?$output_processor@_WV?$string_output_adapter@_W@__crt_stdio_output@@V?$standard_base@_WV?$string_output_adapter@_W@__crt_stdio_output@@@2@@__crt_stdio_output@@AEAA_NXZ 000000018005b8c8     libucrt:output.obj
 0002:000138d8       $unwind$??R<lambda_0a64b6a4deda75c01876f29c44fc5eb3>@@QEBAHXZ 000000018005b8d8     libucrt:output.obj
 0002:000138d8       $unwind$??R<lambda_dd75445284c072d0bd3768540cc698fa>@@QEBAHXZ 000000018005b8d8     libucrt:output.obj
 0002:000138f4       $unwind$?write_stored_string_tchar@?$output_processor@_WV?$string_output_adapter@_W@__crt_stdio_output@@V?$standard_base@_WV?$string_output_adapter@_W@__crt_stdio_output@@@2@@__crt_stdio_output@@AEAA_N_W@Z 000000018005b8f4     libucrt:output.obj
 0002:00013908       $unwind$??$write_multiple_characters@V?$stream_output_adapter@D@__crt_stdio_output@@D@__crt_stdio_output@@YAXAEBV?$stream_output_adapter@D@0@DHQEAH@Z 000000018005b908     libucrt:output.obj
 0002:00013920       $unwind$??$write_multiple_characters@V?$stream_output_adapter@_W@__crt_stdio_output@@D@__crt_stdio_output@@YAXAEBV?$stream_output_adapter@_W@0@DHQEAH@Z 000000018005b920     libucrt:output.obj
 0002:00013938       $unwind$??$type_case_integer_parse_into_buffer@I@?$output_processor@_WV?$string_output_adapter@_W@__crt_stdio_output@@V?$standard_base@_WV?$string_output_adapter@_W@__crt_stdio_output@@@2@@__crt_stdio_output@@AEAAXII_N@Z 000000018005b938     libucrt:output.obj
 0002:00013938       $unwind$??$type_case_integer_parse_into_buffer@_K@?$output_processor@_WV?$string_output_adapter@_W@__crt_stdio_output@@V?$standard_base@_WV?$string_output_adapter@_W@__crt_stdio_output@@@2@@__crt_stdio_output@@AEAAX_KI_N@Z 000000018005b938     libucrt:output.obj
 0002:00013938       $unwind$??$type_case_integer_parse_into_buffer@_K@?$output_processor@DV?$string_output_adapter@D@__crt_stdio_output@@V?$standard_base@DV?$string_output_adapter@D@__crt_stdio_output@@@2@@__crt_stdio_output@@AEAAX_KI_N@Z 000000018005b938     libucrt:output.obj
 0002:00013938       $unwind$??$write_multiple_characters@V?$string_output_adapter@D@__crt_stdio_output@@D@__crt_stdio_output@@YAXAEBV?$string_output_adapter@D@0@DHQEAH@Z 000000018005b938     libucrt:output.obj
 0002:00013938       $unwind$??$type_case_integer_parse_into_buffer@I@?$output_processor@_WV?$stream_output_adapter@_W@__crt_stdio_output@@V?$standard_base@_WV?$stream_output_adapter@_W@__crt_stdio_output@@@2@@__crt_stdio_output@@AEAAXII_N@Z 000000018005b938     libucrt:output.obj
 0002:00013938       $unwind$??$type_case_integer_parse_into_buffer@_K@?$output_processor@_WV?$stream_output_adapter@_W@__crt_stdio_output@@V?$standard_base@_WV?$stream_output_adapter@_W@__crt_stdio_output@@@2@@__crt_stdio_output@@AEAAX_KI_N@Z 000000018005b938     libucrt:output.obj
 0002:00013938       $unwind$??$type_case_integer_parse_into_buffer@_K@?$output_processor@DV?$stream_output_adapter@D@__crt_stdio_output@@V?$standard_base@DV?$stream_output_adapter@D@__crt_stdio_output@@@2@@__crt_stdio_output@@AEAAX_KI_N@Z 000000018005b938     libucrt:output.obj
 0002:00013938       $unwind$??$type_case_integer_parse_into_buffer@I@?$output_processor@DV?$string_output_adapter@D@__crt_stdio_output@@V?$standard_base@DV?$string_output_adapter@D@__crt_stdio_output@@@2@@__crt_stdio_output@@AEAAXII_N@Z 000000018005b938     libucrt:output.obj
 0002:00013938       $unwind$??$type_case_integer_parse_into_buffer@I@?$output_processor@DV?$stream_output_adapter@D@__crt_stdio_output@@V?$standard_base@DV?$stream_output_adapter@D@__crt_stdio_output@@@2@@__crt_stdio_output@@AEAAXII_N@Z 000000018005b938     libucrt:output.obj
 0002:00013940       $unwind$??$write_multiple_characters@V?$string_output_adapter@_W@__crt_stdio_output@@D@__crt_stdio_output@@YAXAEBV?$string_output_adapter@_W@0@DHQEAH@Z 000000018005b940     libucrt:output.obj
 0002:0001394c       $unwind$??$?RV<lambda_aa279a7bcb127014629d5b1d62c7325d>@@AEAV<lambda_0a64b6a4deda75c01876f29c44fc5eb3>@@V<lambda_3323e69fbefe9d1a11713e670d47cdfa>@@@?$__crt_seh_guarded_call@H@@QEAAH$$QEAV<lambda_aa279a7bcb127014629d5b1d62c7325d>@@AEAV<lambda_0a64b6a4deda75c01876f29c44fc5eb3>@@$$QEAV<lambda_3323e69fbefe9d1a11713e670d47cdfa>@@@Z 000000018005b94c     libucrt:output.obj
 0002:00013970       $unwind$??$?RV<lambda_7b91131dde12e1c3dfc74ff76b3f2eac>@@AEAV<lambda_dd75445284c072d0bd3768540cc698fa>@@V<lambda_16bc4ecb55b4718497c16bceaea2ceaf>@@@?$__crt_seh_guarded_call@H@@QEAAH$$QEAV<lambda_7b91131dde12e1c3dfc74ff76b3f2eac>@@AEAV<lambda_dd75445284c072d0bd3768540cc698fa>@@$$QEAV<lambda_16bc4ecb55b4718497c16bceaea2ceaf>@@@Z 000000018005b970     libucrt:output.obj
 0002:00013998       $xdatasym                  000000018005b998     libucrt:strncpy.obj
 0002:0001399c       $unwind$_dclass            000000018005b99c     libucrt:nan.obj
 0002:000139a4       $unwind$??$parse_integer@KV?$c_string_character_source@D@__crt_strtox@@@__crt_strtox@@YAKQEAU__crt_locale_pointers@@V?$c_string_character_source@D@0@H_N@Z 000000018005b9a4     libucrt:strtox.obj
 0002:000139c0       $unwind$??$parse_integer@KV?$c_string_character_source@_W@__crt_strtox@@@__crt_strtox@@YAKQEAU__crt_locale_pointers@@V?$c_string_character_source@_W@0@H_N@Z 000000018005b9c0     libucrt:strtox.obj
 0002:000139dc       $unwind$??$common_getenv@D@@YAPEADQEBD@Z 000000018005b9dc     libucrt:getenv.obj
 0002:000139fc       $unwind$??$common_fsopen@D@@YAPEAU_iobuf@@QEBD0H@Z 000000018005b9fc     libucrt:fopen.obj
 0002:00013a24       $unwind$fclose             000000018005ba24     libucrt:fclose.obj
 0002:00013a48       $unwind$?common_fseek_binary_mode_read_only_fast_track_nolock@@YA_NV__crt_stdio_stream@@_JH@Z 000000018005ba48     libucrt:fseek.obj
 0002:00013a54       $unwind$?common_fseek@@YAHV__crt_stdio_stream@@_JH@Z 000000018005ba54     libucrt:fseek.obj
 0002:00013a78       $xdatasym                  000000018005ba78     libucrt:strncat.obj
 0002:00013a7c       $unwind$fread_s            000000018005ba7c     libucrt:fread.obj
 0002:00013aac       $unwind$?filt$0@?0??dllmain_dispatch@@YAHQEAUHINSTANCE__@@KQEAX@Z@4HA 000000018005baac     LIBCMT:dll_dllmain.obj
 0002:00013aac       $unwind$fread_s$fin$0      000000018005baac     libucrt:fread.obj
 0002:00013ab4       $unwind$_fread_nolock_s    000000018005bab4     libucrt:fread.obj
 0002:00013ad0       $xdatasym                  000000018005bad0     libucrt:strncmp.obj
 0002:00013ad4       $unwind$_query_new_handler 000000018005bad4     libucrt:new_handler.obj
 0002:00013af4       $unwind$terminate          000000018005baf4     libucrt:terminate.obj
 0002:00013b14       $unwind$?common_exit@@YAXHW4_crt_exit_cleanup_mode@@W4_crt_exit_return_mode@@@Z 000000018005bb14     libucrt:exit.obj
 0002:00013b54       $unwind$_configure_narrow_argv 000000018005bb54     libucrt:argv_parsing.obj
 0002:00013b68       $unwind$??$initialize_environment_by_cloning_nolock@D@@YAHXZ 000000018005bb68     libucrt:environment_initialization.obj
 0002:00013b78       $unwind$_register_onexit_function 000000018005bb78     libucrt:onexit.obj
 0002:00013b80       $unwind$_execute_onexit_table 000000018005bb80     libucrt:onexit.obj
 0002:00013b88       $unwind$??$?RV<lambda_b8c45f8f788dd370798f47cfe8ac3a86>@@AEAV<lambda_4e60a939b0d047cfe11ddc22648dfba9>@@V<lambda_332c3edc96d0294ec56c57d38c1cdfd5>@@@?$__crt_seh_guarded_call@H@@QEAAH$$QEAV<lambda_b8c45f8f788dd370798f47cfe8ac3a86>@@AEAV<lambda_4e60a939b0d047cfe11ddc22648dfba9>@@$$QEAV<lambda_332c3edc96d0294ec56c57d38c1cdfd5>@@@Z 000000018005bb88     libucrt:onexit.obj
 0002:00013bac       $unwind$??$?RV<lambda_e24bbb7b643b32fcea6fa61b31d4c984>@@AEAV<lambda_275893d493268fdec8709772e3fcec0e>@@V<lambda_9d71df4d7cf3f480f8d633942495c3b0>@@@?$__crt_seh_guarded_call@H@@QEAAH$$QEAV<lambda_e24bbb7b643b32fcea6fa61b31d4c984>@@AEAV<lambda_275893d493268fdec8709772e3fcec0e>@@$$QEAV<lambda_9d71df4d7cf3f480f8d633942495c3b0>@@@Z 000000018005bbac     libucrt:onexit.obj
 0002:00013bdc       $unwind$__GSHandlerCheck_EH 000000018005bbdc     LIBCMT:gshandlereh.obj
 0002:00013bdc       $unwind$__TypeMatch        000000018005bbdc     libvcruntime:frame.obj
 0002:00013bdc       $unwind$?process@?$output_processor@_WV?$string_output_adapter@_W@__crt_stdio_output@@V?$standard_base@_WV?$string_output_adapter@_W@__crt_stdio_output@@@2@@__crt_stdio_output@@QEAAHXZ 000000018005bbdc     libucrt:output.obj
 0002:00013bdc       $unwind$__acrt_initialize_stdio 000000018005bbdc     libucrt:_file.obj
 0002:00013bdc       $unwind$_initterm          000000018005bbdc     libucrt:initterm.obj
 0002:00013bdc       $unwind$__acrt_lowio_set_os_handle 000000018005bbdc     libucrt:osfinfo.obj
 0002:00013bdc       $unwind$__acrt_MessageBoxW 000000018005bbdc     libucrt:winapi_thunks.obj
 0002:00013bf4       $unwind$fflush             000000018005bbf4     libucrt:fflush.obj
 0002:00013c18       $unwind$common_flush_all   000000018005bc18     libucrt:fflush.obj
 0002:00013c54       $unwind$setvbuf            000000018005bc54     libucrt:setvbuf.obj
 0002:00013c5c       $unwind$??$?RV<lambda_7a5ef57ff966f610505f1d28a3d40618>@@AEAV<lambda_b721fa326cdb32351d23dfa67958c160>@@V<lambda_5e0fb27672408a07956fe59e48ccb2aa>@@@?$__crt_seh_guarded_call@H@@QEAAH$$QEAV<lambda_7a5ef57ff966f610505f1d28a3d40618>@@AEAV<lambda_b721fa326cdb32351d23dfa67958c160>@@$$QEAV<lambda_5e0fb27672408a07956fe59e48ccb2aa>@@@Z 000000018005bc5c     libucrt:setvbuf.obj
 0002:00013c80       $unwind$__acrt_get_sigabrt_handler 000000018005bc80     libucrt:signal.obj
 0002:00013c88       $unwind$raise              000000018005bc88     libucrt:signal.obj
 0002:00013cb4       $unwind$??$?RV<lambda_c36588078e9f5dfd39652860aa6b3aaf>@@AEAV<lambda_ec61778202f4f5fc7e7711acc23c3bca>@@V<lambda_dc9d2797ccde5d239b4a0efae8ebd7db>@@@?$__crt_seh_guarded_call@P6AXH@Z@@QEAAP6AXH@Z$$QEAV<lambda_c36588078e9f5dfd39652860aa6b3aaf>@@AEAV<lambda_ec61778202f4f5fc7e7711acc23c3bca>@@$$QEAV<lambda_dc9d2797ccde5d239b4a0efae8ebd7db>@@@Z 000000018005bcb4     libucrt:signal.obj
 0002:00013cd8       $unwind$?construct_ptd_array@@YAXQEAU__acrt_ptd@@@Z 000000018005bcd8     libucrt:per_thread_data.obj
 0002:00013ce0       $unwind$?destroy_ptd_array@@YAXQEAU__acrt_ptd@@@Z 000000018005bce0     libucrt:per_thread_data.obj
 0002:00013ce8       $unwind$??$?RV<lambda_72d1df2b273a38828b1ce30cbf4cdab5>@@AEAV<lambda_876a65b173b8412d3a47c70a915b0cf4>@@V<lambda_41932305e351933ebe8f8be3ed8bb5dc>@@@?$__crt_seh_guarded_call@X@@QEAAX$$QEAV<lambda_72d1df2b273a38828b1ce30cbf4cdab5>@@AEAV<lambda_876a65b173b8412d3a47c70a915b0cf4>@@$$QEAV<lambda_41932305e351933ebe8f8be3ed8bb5dc>@@@Z 000000018005bce8     libucrt:per_thread_data.obj
 0002:00013d0c       $unwind$??$?RV<lambda_5e887d1dcbef67a5eb4283622ba103bf>@@AEAV<lambda_4466841279450cc726390878d4a41900>@@V<lambda_341c25c0346d94847f1f3c463c57e077>@@@?$__crt_seh_guarded_call@X@@QEAAX$$QEAV<lambda_5e887d1dcbef67a5eb4283622ba103bf>@@AEAV<lambda_4466841279450cc726390878d4a41900>@@$$QEAV<lambda_341c25c0346d94847f1f3c463c57e077>@@@Z 000000018005bd0c     libucrt:per_thread_data.obj
 0002:00013d30       $unwind$??$?RV<lambda_46352004c1216016012b18bd6f87e700>@@AEAV<lambda_3bd07e1a1191394380780325891bf33f>@@V<lambda_334532d3f185bcaa59b5be82d7d22bff>@@@?$__crt_seh_guarded_call@X@@QEAAX$$QEAV<lambda_46352004c1216016012b18bd6f87e700>@@AEAV<lambda_3bd07e1a1191394380780325891bf33f>@@$$QEAV<lambda_334532d3f185bcaa59b5be82d7d22bff>@@@Z 000000018005bd30     libucrt:per_thread_data.obj
 0002:00013d54       $unwind$??$?RV<lambda_fb3a7dec4e47f37f22dae91bb15c9095>@@AEAV<lambda_698284760c8add0bfb0756c19673e34b>@@V<lambda_dfb8eca1e75fef3034a8fb18dd509707>@@@?$__crt_seh_guarded_call@X@@QEAAX$$QEAV<lambda_fb3a7dec4e47f37f22dae91bb15c9095>@@AEAV<lambda_698284760c8add0bfb0756c19673e34b>@@$$QEAV<lambda_dfb8eca1e75fef3034a8fb18dd509707>@@@Z 000000018005bd54     libucrt:per_thread_data.obj
 0002:00013d78       $unwind$_tolower_l         000000018005bd78     libucrt:tolower_toupper.obj
 0002:00013d88       $unwind$_wctomb_s_l        000000018005bd88     libucrt:wctomb.obj
 0002:00013d98       $unwind$wcsnlen            000000018005bd98     libucrt:strnlen.obj
 0002:00013d98       $unwind$strnlen            000000018005bd98     libucrt:strnlen.obj
 0002:00013da0       $unwind$__acrt_fp_format   000000018005bda0     libucrt:cvt.obj
 0002:00013dbc       $unwind$?fp_format_nan_or_infinity@@YAHW4__acrt_fp_class@@_NPEAD_K1@Z 000000018005bdbc     libucrt:cvt.obj
 0002:00013dd0       $unwind$?fp_format_e_internal@@YAHQEAD_KH_NIQEAU_strflt@@2QEAU__crt_locale_pointers@@@Z 000000018005bdd0     libucrt:cvt.obj
 0002:00013de8       $unwind$?fp_format_a@@YAHQEBNPEAD_KQEAD2H_NIQEAU__crt_locale_pointers@@@Z 000000018005bde8     libucrt:cvt.obj
 0002:00013e04       $unwind$__dcrt_get_narrow_environment_from_os 000000018005be04     libucrt:get_environment_from_os.obj
 0002:00013e04       $unwind$?fp_format_f_internal@@YAHQEAD_KHQEAU_strflt@@_NQEAU__crt_locale_pointers@@@Z 000000018005be04     libucrt:cvt.obj
 0002:00013e1c       $unwind$?fp_format_g@@YAHQEBNQEAD_K12H_NIQEAU__crt_locale_pointers@@@Z 000000018005be1c     libucrt:cvt.obj
 0002:00013e30       $unwind$_fputwc_nolock     000000018005be30     libucrt:fputwc.obj
 0002:00013e4c       $unwind$__vcrt_uninitialize_winapi_thunks 000000018005be4c     libvcruntime:winapi_downlevel.obj
 0002:00013e4c       $unwind$__acrt_stdio_end_temporary_buffering_nolock 000000018005be4c     libucrt:_sftbuf.obj
 0002:00013e54       $unwind$__acrt_uninitialize_locale 000000018005be54     libucrt:wsetlocale.obj
 0002:00013e74       $unwind$__acrt_initialize_lowio 000000018005be74     libucrt:ioinit.obj
 0002:00013e94       $unwind$?initialize_inherited_file_handles_nolock@@YAXXZ 000000018005be94     libucrt:ioinit.obj
 0002:00013eb0       $unwind$__acrt_initialize_winapi_thunks 000000018005beb0     libucrt:winapi_thunks.obj
 0002:00013eb8       $unwind$__acrt_LCMapStringEx 000000018005beb8     libucrt:winapi_thunks.obj
 0002:00013eb8       $unwind$__acrt_CompareStringEx 000000018005beb8     libucrt:winapi_thunks.obj
 0002:00013eb8       $unwind$_mbtowc_l          000000018005beb8     libucrt:mbtowc.obj
 0002:00013eb8       $unwind$__acrt_show_wide_message_box 000000018005beb8     libucrt:crtmbox.obj
 0002:00013ed0       $unwind$__acrt_is_interactive 000000018005bed0     libucrt:winapi_thunks.obj
 0002:00013ee4       $unwind$iswctype           000000018005bee4     libucrt:iswctype.obj
 0002:00013ee4       $unwind$__acrt_is_packaged_app 000000018005bee4     libucrt:winapi_thunks.obj
 0002:00013ef0       $unwind$_fcloseall         000000018005bef0     libucrt:closeall.obj
 0002:00013f14       $unwind$_isctype_l         000000018005bf14     libucrt:isctype.obj
 0002:00013f30       $unwind$?__acrt_stdio_allocate_stream@@YA?AV__crt_stdio_stream@@XZ 000000018005bf30     libucrt:stream.obj
 0002:00013f50       $unwind$_openfile          000000018005bf50     libucrt:openfile.obj
 0002:00013f64       $unwind$??$?RV<lambda_bfedae4ebbf01fab1bb6dcc6a9e276e0>@@AEAV<lambda_2fe9b910cf3cbf4a0ab98a02ba45b3ec>@@V<lambda_237c231691f317818eb88cc1d5d642d6>@@@?$__crt_seh_guarded_call@H@@QEAAH$$QEAV<lambda_bfedae4ebbf01fab1bb6dcc6a9e276e0>@@AEAV<lambda_2fe9b910cf3cbf4a0ab98a02ba45b3ec>@@$$QEAV<lambda_237c231691f317818eb88cc1d5d642d6>@@@Z 000000018005bf64     libucrt:close.obj
 0002:00013f88       $unwind$?common_ftell_translated_utf8_nolock@@YA_JV__crt_stdio_stream@@_J@Z 000000018005bf88     libucrt:ftell.obj
 0002:00013fac       $unwind$?common_ftell_read_mode_nolock@@YA_JV__crt_stdio_stream@@_J1@Z 000000018005bfac     libucrt:ftell.obj
 0002:00013fc8       $unwind$??$common_ftell_nolock@_J@@YA_JV__crt_stdio_stream@@@Z 000000018005bfc8     libucrt:ftell.obj
 0002:00013fd4       $unwind$??$common_lseek@_J@@YA_JH_JH@Z 000000018005bfd4     libucrt:lseek.obj
 0002:00014004       $unwind$_read              000000018005c004     libucrt:read.obj
 0002:00014030       $unwind$_read_nolock       000000018005c030     libucrt:read.obj
 0002:00014048       $unwind$?translate_ansi_or_utf8_nolock@@YAHHQEAD_KQEA_W1@Z 000000018005c048     libucrt:read.obj
 0002:00014060       $unwind$??$translate_text_mode_nolock@_W@@YAHHQEA_W_K@Z 000000018005c060     libucrt:read.obj
 0002:00014078       $unwind$?common_fseek_nolock@@YAHV__crt_stdio_stream@@_JH@Z 000000018005c078     libucrt:fseek.obj
 0002:00014078       $unwind$_raise_exc_ex      000000018005c078     libucrt:fpexcept.obj
 0002:00014078       $unwind$??$common_refill_and_read_nolock@D@@YAHV__crt_stdio_stream@@@Z 000000018005c078     libucrt:_filbuf.obj
 0002:0001408c       $unwind$??$common_expand_argv_wildcards@D@@YAHQEAPEADQEAPEAPEAD@Z 000000018005c08c     libucrt:argv_wildcards.obj
 0002:000140a4       $unwind$??$copy_and_add_argument_to_buffer@D@@YAHQEBD0_KAEAV?$argument_list@D@?A0xca0879c4@@@Z 000000018005c0a4     libucrt:argv_wildcards.obj
 0002:000140c0       $unwind$??$expand_argument_wildcards@D@@YAHQEAD0AEAV?$argument_list@D@?A0xca0879c4@@@Z 000000018005c0c0     libucrt:argv_wildcards.obj
 0002:000140e0       $unwind$__acrt_update_thread_multibyte_data 000000018005c0e0     libucrt:mbctype.obj
 0002:00014104       $unwind$_setmbcp_nolock    000000018005c104     libucrt:mbctype.obj
 0002:00014124       $unwind$?setSBUpLow@@YAXPEAU__crt_multibyte_data@@@Z 000000018005c124     libucrt:mbctype.obj
 0002:00014140       $unwind$?setmbcp_internal@@YAHH_N@Z 000000018005c140     libucrt:mbctype.obj
 0002:00014150       $unwind$??$?RV<lambda_99476a1ad63dd22509b5d3e65b0ffc95>@@AEAV<lambda_ad1ced32f4ac17aa236e5ef05d6b3b7c>@@V<lambda_f7424dd8d45958661754dc4f2697e9c3>@@@?$__crt_seh_guarded_call@X@@QEAAX$$QEAV<lambda_99476a1ad63dd22509b5d3e65b0ffc95>@@AEAV<lambda_ad1ced32f4ac17aa236e5ef05d6b3b7c>@@$$QEAV<lambda_f7424dd8d45958661754dc4f2697e9c3>@@@Z 000000018005c150     libucrt:mbctype.obj
 0002:00014174       $unwind$??$common_set_variable_in_environment_nolock@D@@YAHQEADH@Z 000000018005c174     libucrt:setenv.obj
 0002:0001418c       $unwind$??$copy_environment@D@@YAPEAPEADQEAPEAD@Z 000000018005c18c     libucrt:setenv.obj
 0002:000141a0       $unwind$_commit            000000018005c1a0     libucrt:commit.obj
 0002:000141a0       $unwind$_close             000000018005c1a0     libucrt:close.obj
 0002:000141a8       $unwind$??$?RV<lambda_b521505b218e5242e90febf6bfebc422>@@AEAV<lambda_6978c1fb23f02e42e1d9e99668cc68aa>@@V<lambda_314360699dd331753a4119843814e9a7>@@@?$__crt_seh_guarded_call@H@@QEAAH$$QEAV<lambda_b521505b218e5242e90febf6bfebc422>@@AEAV<lambda_6978c1fb23f02e42e1d9e99668cc68aa>@@$$QEAV<lambda_314360699dd331753a4119843814e9a7>@@@Z 000000018005c1a8     libucrt:commit.obj
 0002:000141cc       $unwind$_write             000000018005c1cc     libucrt:write.obj
 0002:000141fc       $unwind$_write_nolock      000000018005c1fc     libucrt:write.obj
 0002:00014214       $unwind$?write_double_translated_ansi_nolock@@YA?AUwrite_result@?A0x9c548279@@HQEBDI@Z 000000018005c214     libucrt:write.obj
 0002:00014234       $unwind$?write_text_utf16le_nolock@@YA?AUwrite_result@?A0x9c548279@@HQEBDI@Z 000000018005c234     libucrt:write.obj
 0002:00014234       $unwind$?write_text_ansi_nolock@@YA?AUwrite_result@?A0x9c548279@@HQEBDI@Z 000000018005c234     libucrt:write.obj
 0002:00014254       $unwind$?write_text_utf8_nolock@@YA?AUwrite_result@?A0x9c548279@@HQEBDI@Z 000000018005c254     libucrt:write.obj
 0002:00014278       $unwind$__acrt_update_thread_locale_data 000000018005c278     libucrt:locale_refcounting.obj
 0002:0001429c       $unwind$__acrt_LCMapStringA 000000018005c29c     libucrt:lcmapstringa.obj
 0002:000142ac       $unwind$?__acrt_LCMapStringA_stat@@YAHPEAU__crt_locale_pointers@@PEB_WKPEBDHPEADHHH@Z 000000018005c2ac     libucrt:lcmapstringa.obj
 0002:000142d4       $unwind$__acrt_fltout      000000018005c2d4     libucrt:cfout.obj
 0002:000142f4       $unwind$?divide@__crt_strtox@@YA_KAEAUbig_integer@1@AEBU21@@Z 000000018005c2f4     libucrt:cfout.obj
 0002:00014314       $chain$5$?divide@__crt_strtox@@YA_KAEAUbig_integer@1@AEBU21@@Z 000000018005c314     libucrt:cfout.obj
 0002:00014328       $chain$6$?divide@__crt_strtox@@YA_KAEAUbig_integer@1@AEBU21@@Z 000000018005c328     libucrt:cfout.obj
 0002:00014338       $unwind$??$write_buffer_nolock@D@@YA_NDV__crt_stdio_stream@@@Z 000000018005c338     libucrt:_flsbuf.obj
 0002:00014348       $unwind$??$write_buffer_nolock@_W@@YA_N_WV__crt_stdio_stream@@@Z 000000018005c348     libucrt:_flsbuf.obj
 0002:00014358       $unwind$__acrt_locale_free_monetary 000000018005c358     libucrt:initmon.obj
 0002:00014360       $unwind$__acrt_locale_free_time 000000018005c360     libucrt:inittime.obj
 0002:00014370       $unwind$__acrt_GetStringTypeA 000000018005c370     libucrt:getstringtypea.obj
 0002:00014398       $unwind$_alloc_osfhnd      000000018005c398     libucrt:osfinfo.obj
 0002:000143c8       $unwind$__acrt_lowio_destroy_handle_array 000000018005c3c8     libucrt:osfinfo.obj
 0002:000143d8       $unwind$__acrt_lowio_ensure_fh_exists 000000018005c3d8     libucrt:osfinfo.obj
 0002:00014404       $unwind$?GetTableIndexFromLocaleName@@YAHPEB_W@Z 000000018005c404     libucrt:lcidtoname_downlevel.obj
 0002:0001441c       $unwind$?InternalCompareStringA@@YAHPEAU__crt_locale_pointers@@PEB_WKPEBDH2HH@Z 000000018005c41c     libucrt:comparestringa.obj
 0002:00014440       $unwind$_wsopen_nolock     000000018005c440     libucrt:open.obj
 0002:0001445c       $unwind$??$common_sopen_dispatch@D@@YAHQEBDHHHQEAHH@Z 000000018005c45c     libucrt:open.obj
 0002:00014480       $unwind$?decode_options@@YA?AUfile_options@?A0x656cf9f4@@HHH@Z 000000018005c480     libucrt:open.obj
 0002:00014494       $unwind$qsort              000000018005c494     libucrt:qsort.obj
 0002:000144ac       $chain$4$qsort             000000018005c4ac     libucrt:qsort.obj
 0002:000144d0       $chain$5$qsort             000000018005c4d0     libucrt:qsort.obj
 0002:000144e0       $unwind$?shortsort@@YAXPEAD0_KP6AHPEBX2@Z@Z 000000018005c4e0     libucrt:qsort.obj
 0002:000144f0       $chain$2$?shortsort@@YAXPEAD0_KP6AHPEBX2@Z@Z 000000018005c4f0     libucrt:qsort.obj
 0002:0001450c       $chain$3$?shortsort@@YAXPEAD0_KP6AHPEBX2@Z@Z 000000018005c50c     libucrt:qsort.obj
 0002:0001451c       $unwind$strpbrk            000000018005c51c     libucrt:strpbrk.obj
 0002:00014530       $xdatasym                  000000018005c530     libucrt:log10.obj
 0002:0001453c       $unwind$common_control87   000000018005c53c     libucrt:ieee.obj
 0002:00014570       $xdatasym                  000000018005c570     libucrt:fpsr.obj
 0002:00014578       $unwind$_setmode_nolock    000000018005c578     libucrt:setmode.obj
 0002:00014588       $unwind$__acrt_copy_path_to_wide_string 000000018005c588     libucrt:string_utilities.obj
 0002:00014588       $unwind$??$create_environment@D@@YAQEAPEADQEAD@Z 000000018005c588     libucrt:environment_initialization.obj
 0002:000145a0       $unwind$_call_matherr      000000018005c5a0     libucrt:libm_error.obj
 0002:000145a8       $unwind$_handle_error      000000018005c5a8     libucrt:libm_error.obj
 0002:000145c8       $unwind$__acrt_initialize_fma3 000000018005c5c8     libucrt:fma3_available.obj
 0002:000145d0       $unwind$_log_special_common 000000018005c5d0     libucrt:log_special.obj
 0002:000145dc       $unwind$_ctrlfp            000000018005c5dc     libucrt:fpctrl.obj
 0002:00014604       $unwind$?DloadObtainSection@@YAPEAXPEAK0@Z 000000018005c604     DelayImp:delayhlp.obj
 0002:00014614       $unwind$?DloadMakePermanentImageCommit@@YAXPEAX_K@Z 000000018005c614     DelayImp:delayhlp.obj
 0002:00014620       $unwind$?DloadProtectSection@@YAXKPEAK@Z 000000018005c620     DelayImp:delayhlp.obj
 0002:00014630       $unwind$__delayLoadHelper2 000000018005c630     DelayImp:delayhlp.obj
 0002:00014648       $unwind$_IsNonwritableInCurrentImage 000000018005c648     LIBCMT:pesect.obj
 0002:0001466c       $unwind$__GSHandlerCheckCommon 000000018005c66c     LIBCMT:_gshandler_.obj
 0002:00014678       $xdatasym                  000000018005c678     LIBCMT:_chkstk_.obj
 0002:00014680       $xdatasym                  000000018005c680     libvcruntime:memcmp.obj
 0002:00014688       $xdatasym                  000000018005c688     libucrt:strcmp.obj
 0002:000165a0       .edata                     000000018005e5a0     oracledb.exp
 0002:000165c8       rgpv                       000000018005e5c8     oracledb.exp
 0002:000165cc       rgszName                   000000018005e5cc     oracledb.exp
 0002:000165d0       rgwOrd                     000000018005e5d0     oracledb.exp
 0002:000165d2       szName                     000000018005e5d2     oracledb.exp
 0002:000165e0       $N00001                    000000018005e5e0     oracledb.exp
 0002:00016a28       .idata$6                   000000018005ea28     kernel32:KERNEL32.dll
 0003:00000030       ?__vcrt_flsindex@@3KA      000000018005f030     libvcruntime:per_thread_data.obj
 0003:00000154       errno_no_memory            000000018005f154     libucrt:errno.obj
 0003:00000158       doserrno_no_memory         000000018005f158     libucrt:errno.obj
 0003:0000015c       __acrt_flsindex            000000018005f15c     libucrt:per_thread_data.obj
 0003:00000650       __rgctypeflag              000000018005f650     libucrt:mbctype.obj
 0003:00000660       __rgcode_page_info         000000018005f660     libucrt:mbctype.obj
 0003:00000a10       ?dazSupported@?1??common_control87@@9@9 000000018005fa10     libucrt:ieee.obj
 0003:00000a30       ?dazSupported@?1??_ctrlfp@@9@9 000000018005fa30     libucrt:fpctrl.obj
 0003:00000a40       _module                    000000018005fa40     njsOracle.obj
 0003:00000a80       dpiDebugPrefixFormat       000000018005fa80     dpiDebug.obj
 0003:00000ee8       ?module_local_atexit_table@@3U_onexit_table_t@@A 000000018005fee8     LIBCMT:utility.obj
 0003:00000f00       ?module_local_at_quick_exit_table@@3U_onexit_table_t@@A 000000018005ff00     LIBCMT:utility.obj
 0003:00000f18       ?is_initialized_as_dll@@3_NA 000000018005ff18     LIBCMT:utility.obj
 0003:00000f20       GS_ExceptionRecord         000000018005ff20     LIBCMT:gs_report.obj
 0003:00000fc0       GS_ContextRecord           000000018005ffc0     LIBCMT:gs_report.obj
 0003:00001490       ?__proc_attached@@3HA      0000000180060490     LIBCMT:dll_dllmain.obj
 0003:000014c0       ?__vcrt_startup_thread_ptd@@3U__vcrt_ptd@@A 00000001800604c0     libvcruntime:per_thread_data.obj
 0003:00001540       __vcrt_lock_table          0000000180060540     libvcruntime:locks.obj
 0003:00001568       __vcrt_locks_initialized   0000000180060568     libvcruntime:locks.obj
 0003:00001570       ?module_handles@@3PAPEAUHINSTANCE__@@A 0000000180060570     libvcruntime:winapi_downlevel.obj
 0003:00001590       ?encoded_function_pointers@@3PAPEAXA 0000000180060590     libvcruntime:winapi_downlevel.obj
 0003:00001620       ?heap@@3V_HeapManager@@A   0000000180060620     libvcruntime:undname.obj
 0003:00001648       __acrt_invalid_parameter_handler 0000000180060648     libucrt:invalid_parameter.obj
 0003:00001668       __acrt_new_handler         0000000180060668     libucrt:new_handler.obj
 0003:00001670       c_termination_complete     0000000180060670     libucrt:exit.obj
 0003:00001678       thread_local_exit_callback_func 0000000180060678     libucrt:exit.obj
 0003:00001680       ?c_exit_complete@?5??common_exit@@YAXHW4_crt_exit_cleanup_mode@@W4_crt_exit_return_mode@@@Z@4_NA 0000000180060680     libucrt:exit.obj
 0003:00001690       ?program_name@?5???$common_configure_argv@D@@YAHW4_crt_argv_mode@@@Z@4PADA 0000000180060690     libucrt:argv_parsing.obj
 0003:000017e8       __acrt_app_type            00000001800607e8     libucrt:report_runtime_error.obj
 0003:000017ec       __acrt_error_mode          00000001800607ec     libucrt:set_error_mode.obj
 0003:000017f0       ctrlc_action               00000001800607f0     libucrt:signal.obj
 0003:000017f8       ctrlbreak_action           00000001800607f8     libucrt:signal.obj
 0003:00001800       abort_action               0000000180060800     libucrt:signal.obj
 0003:00001808       term_action                0000000180060808     libucrt:signal.obj
 0003:00001810       enable_percent_n           0000000180060810     libucrt:printf_count_output.obj
 0003:00001c50       module_handles             0000000180060c50     libucrt:winapi_thunks.obj
 0003:00001cf0       encoded_function_pointers  0000000180060cf0     libucrt:winapi_thunks.obj
 0003:00001df0       ?state_cache@?1??__acrt_is_packaged_app@@9@4JA 0000000180060df0     libucrt:winapi_thunks.obj
 0003:00001e00       __acrt_lock_table          0000000180060e00     libucrt:locks.obj
 0003:00002008       __acrt_locks_initialized   0000000180061008     libucrt:locks.obj
 0003:00002024       fSystemSet                 0000000180061024     libucrt:mbctype.obj
 0003:00002030       ?initialized@?1??__acrt_initialize_multibyte@@9@4_NA 0000000180061030     libucrt:mbctype.obj
 0003:00002068       user_matherr               0000000180061068     libucrt:matherr.obj
 0003:00002070       __acrt_global_new_mode     0000000180061070     libucrt:new_mode.obj
 0003:000020cc       dpiGlobalInitialized       00000001800610cc     dpiGlobal.obj
 0003:000020d0       dpiDebugStream             00000001800610d0     dpiDebug.obj
 0003:000020d8       dpiGlobalEnvHandle         00000001800610d8     dpiGlobal.obj
 0003:000020e0       dpiGlobalErrorHandle       00000001800610e0     dpiGlobal.obj
 0003:000020e8       dpiGlobalThreadKey         00000001800610e8     dpiGlobal.obj
 0003:000020f0       dpiOciLibHandle            00000001800610f0     dpiOci.obj
 0003:00002120       dpiGlobalErrorBuffer       0000000180061120     dpiGlobal.obj
 0003:00002db0       dpiGlobalMutex             0000000180061db0     dpiGlobal.obj
 0003:00002dd8       dpiOciLibVersionInfo       0000000180061dd8     dpiOci.obj
 0003:00002df0       dpiOciSymbols              0000000180061df0     dpiOci.obj
 0004:00000000       $pdata$?Set@Nan@@YA?AV?$Maybe@_N@v8@@V?$Local@VObject@v8@@@3@V?$Local@VValue@v8@@@3@1@Z 0000000180063000     njsCommon.obj
 0004:0000000c       $pdata$?Get@Nan@@YA?AV?$MaybeLocal@VValue@v8@@@v8@@V?$Local@VObject@v8@@@3@V?$Local@VValue@v8@@@3@@Z 000000018006300c     njsCommon.obj
 0004:00000018       $pdata$?convert@?$ToFactory@I@imp@Nan@@SA?AV?$Maybe@I@v8@@V?$Local@VValue@v8@@@5@@Z 0000000180063018     njsCommon.obj
 0004:00000024       $pdata$?convert@?$ToFactory@H@imp@Nan@@SA?AV?$Maybe@H@v8@@V?$Local@VValue@v8@@@5@@Z 0000000180063024     njsCommon.obj
 0004:00000030       $pdata$?ThrowError@Nan@@YAXPEBD@Z 0000000180063030     njsCommon.obj
 0004:0000003c       $pdata$??1?$Persistent@VArray@v8@@V?$NonCopyablePersistentTraits@VArray@v8@@@2@@Nan@@QEAA@XZ 000000018006303c     njsOracle.obj
 0004:0000003c       $pdata$??1?$Persistent@VObject@v8@@V?$NonCopyablePersistentTraits@VObject@v8@@@2@@Nan@@QEAA@XZ 000000018006303c     njsCommon.obj
 0004:0000003c       $pdata$??1?$Persistent@VFunction@v8@@V?$NonCopyablePersistentTraits@VFunction@v8@@@2@@Nan@@QEAA@XZ 000000018006303c     njsCommon.obj
 0004:00000048       $pdata$??0njsBaton@@QEAA@V?$Local@VFunction@v8@@@v8@@V?$Local@VObject@v8@@@2@@Z 0000000180063048     njsCommon.obj
 0004:00000054       $pdata$??1njsProtoILob@@QEAA@XZ 0000000180063054     njsCommon.obj
 0004:00000060       $pdata$??1njsVariableBuffer@@QEAA@XZ 0000000180063060     njsCommon.obj
 0004:0000006c       $pdata$??1njsVariable@@QEAA@XZ 000000018006306c     njsCommon.obj
 0004:00000078       $pdata$??1njsBaton@@QEAA@XZ 0000000180063078     njsCommon.obj
 0004:00000084       $pdata$?CheckJSException@njsBaton@@QEAAXPEAVTryCatch@Nan@@@Z 0000000180063084     njsCommon.obj
 0004:00000090       $pdata$?ClearAsyncData@njsBaton@@QEAAXXZ 0000000180063090     njsCommon.obj
 0004:0000009c       $pdata$?GetOracledb@njsBaton@@QEAAPEAVnjsOracledb@@XZ 000000018006309c     njsCommon.obj
 0004:000000a8       $pdata$?AsyncAfterWorkCallback@njsBaton@@CAXPEAUuv_work_s@@H@Z 00000001800630a8     njsCommon.obj
 0004:000000b4       $pdata$?GetDPIError@njsBaton@@QEAAXXZ 00000001800630b4     njsCommon.obj
 0004:000000c0       $pdata$?SetDPIConnHandle@njsBaton@@QEAAXPEAUdpiConn@@@Z 00000001800630c0     njsCommon.obj
 0004:000000cc       $pdata$?SetDPILobHandle@njsBaton@@QEAAXPEAUdpiLob@@@Z 00000001800630cc     njsCommon.obj
 0004:000000d8       $pdata$?GetBoolFromJSON@njsBaton@@QEAA_NV?$Local@VObject@v8@@@v8@@PEBDHPEA_N@Z 00000001800630d8     njsCommon.obj
 0004:000000e4       $pdata$?GetIntFromJSON@njsBaton@@QEAA_NV?$Local@VObject@v8@@@v8@@PEBDHPEAH@Z 00000001800630e4     njsCommon.obj
 0004:000000f0       $pdata$?GetPositiveIntFromJSON@njsBaton@@QEAA_NV?$Local@VObject@v8@@@v8@@PEBDHPEAI@Z 00000001800630f0     njsCommon.obj
 0004:000000fc       $pdata$?GetStringFromJSON@njsBaton@@QEAA_NV?$Local@VObject@v8@@@v8@@PEBDHAEAV?$basic_string@DU?$char_traits@D@std@@V?$allocator@D@2@@std@@@Z 00000001800630fc     njsCommon.obj
 0004:00000108       $pdata$?GetUnsignedIntFromJSON@njsBaton@@QEAA_NV?$Local@VObject@v8@@@v8@@PEBDHPEAI@Z 0000000180063108     njsCommon.obj
 0004:00000114       $pdata$?GetNumOutBinds@njsBaton@@QEAAIXZ 0000000180063114     njsCommon.obj
 0004:00000120       $pdata$4$?GetNumOutBinds@njsBaton@@QEAAIXZ 0000000180063120     njsCommon.obj
 0004:0000012c       $pdata$5$?GetNumOutBinds@njsBaton@@QEAAIXZ 000000018006312c     njsCommon.obj
 0004:00000138       $pdata$?QueueWork@njsBaton@@QEAAXPEBDP6AXPEAV1@@ZP6AX1QEAV?$Local@VValue@v8@@@v8@@@ZI@Z 0000000180063138     njsCommon.obj
 0004:00000144       $pdata$?CreateBaton@njsCommon@@IEAAPEAVnjsBaton@@AEBV?$FunctionCallbackInfo@VValue@v8@@@Nan@@@Z 0000000180063144     njsCommon.obj
 0004:00000150       $pdata$?GetObjectArg@njsCommon@@IEAA_NAEBV?$FunctionCallbackInfo@VValue@v8@@@Nan@@HAEAV?$Local@VObject@v8@@@v8@@@Z 0000000180063150     njsCommon.obj
 0004:0000015c       $pdata$?GetStringArg@njsCommon@@IEAA_NAEBV?$FunctionCallbackInfo@VValue@v8@@@Nan@@HAEAV?$basic_string@DU?$char_traits@D@std@@V?$allocator@D@2@@std@@@Z 000000018006315c     njsCommon.obj
 0004:00000168       $pdata$?GetUnsignedIntArg@njsCommon@@IEAA_NAEBV?$FunctionCallbackInfo@VValue@v8@@@Nan@@HPEAI@Z 0000000180063168     njsCommon.obj
 0004:00000174       $pdata$?SetPropBool@njsCommon@@IEAA_NV?$Local@VValue@v8@@@v8@@PEA_NPEBD@Z 0000000180063174     njsCommon.obj
 0004:00000180       $pdata$?SetPropInt@njsCommon@@IEAA_NV?$Local@VValue@v8@@@v8@@PEAHPEBD@Z 0000000180063180     njsCommon.obj
 0004:0000018c       $pdata$?SetPropPositiveInt@njsCommon@@IEAA_NV?$Local@VValue@v8@@@v8@@PEAIPEBD@Z 000000018006318c     njsCommon.obj
 0004:00000198       $pdata$?SetPropString@njsCommon@@IEAA_NV?$Local@VValue@v8@@@v8@@PEAV?$basic_string@DU?$char_traits@D@std@@V?$allocator@D@2@@std@@PEBD@Z 0000000180063198     njsCommon.obj
 0004:000001a4       $pdata$?SetPropUnsignedInt@njsCommon@@IEAA_NV?$Local@VValue@v8@@@v8@@PEAIPEBD@Z 00000001800631a4     njsCommon.obj
 0004:000001b0       $pdata$?Validate@njsCommon@@KA_NPEAV1@_N@Z 00000001800631b0     njsCommon.obj
 0004:000001bc       $pdata$?ValidateArgs@njsCommon@@KAPEAV1@AEBV?$FunctionCallbackInfo@VValue@v8@@@Nan@@HH@Z 00000001800631bc     njsCommon.obj
 0004:000001c8       $pdata$?PropertyIsReadOnly@njsCommon@@KAXPEBD@Z 00000001800631c8     njsCommon.obj
 0004:000001d4       $pdata$??1?$basic_string@DU?$char_traits@D@std@@V?$allocator@D@2@@std@@QEAA@XZ 00000001800631d4     njsCommon.obj
 0004:000001e0       $pdata$??4?$basic_string@DU?$char_traits@D@std@@V?$allocator@D@2@@std@@QEAAAEAV01@$$QEAV01@@Z 00000001800631e0     njsCommon.obj
 0004:000001ec       $pdata$?_Tidy@?$basic_string@DU?$char_traits@D@std@@V?$allocator@D@2@@std@@QEAAX_N_K@Z 00000001800631ec     njsCommon.obj
 0004:000001f8       $pdata$?assign@?$basic_string@DU?$char_traits@D@std@@V?$allocator@D@2@@std@@QEAAAEAV12@PEBD_K@Z 00000001800631f8     njsCommon.obj
 0004:00000204       $pdata$?assign@?$basic_string@DU?$char_traits@D@std@@V?$allocator@D@2@@std@@QEAAAEAV12@AEBV12@_K1@Z 0000000180063204     njsCommon.obj
 0004:00000210       $pdata$?_Assign_rv@?$basic_string@DU?$char_traits@D@std@@V?$allocator@D@2@@std@@QEAAX$$QEAV12@@Z 0000000180063210     njsCommon.obj
 0004:0000021c       $pdata$?erase@?$basic_string@DU?$char_traits@D@std@@V?$allocator@D@2@@std@@QEAAAEAV12@_K0@Z 000000018006321c     njsCommon.obj
 0004:00000228       $pdata$?_Copy@?$basic_string@DU?$char_traits@D@std@@V?$allocator@D@2@@std@@QEAAX_K0@Z 0000000180063228     njsCommon.obj
 0004:00000234       $pdata$??$New@VString@v8@@V?$basic_string@DU?$char_traits@D@std@@V?$allocator@D@2@@std@@@Nan@@YA?AV?$MaybeLocal@VString@v8@@@v8@@V?$basic_string@DU?$char_traits@D@std@@V?$allocator@D@2@@std@@@Z 0000000180063234     njsCommon.obj
 0004:00000240       $pdata$??$Unwrap@VnjsResultSet@@@ObjectWrap@Nan@@SAPEAVnjsResultSet@@V?$Local@VObject@v8@@@v8@@@Z 0000000180063240     njsResultSet.obj
 0004:00000240       $pdata$??$Unwrap@VnjsCommon@@@ObjectWrap@Nan@@SAPEAVnjsCommon@@V?$Local@VObject@v8@@@v8@@@Z 0000000180063240     njsCommon.obj
 0004:00000240       $pdata$??$Unwrap@VnjsPool@@@ObjectWrap@Nan@@SAPEAVnjsPool@@V?$Local@VObject@v8@@@v8@@@Z 0000000180063240     njsPool.obj
 0004:00000240       $pdata$??$Unwrap@VnjsILob@@@ObjectWrap@Nan@@SAPEAVnjsILob@@V?$Local@VObject@v8@@@v8@@@Z 0000000180063240     njsIntLob.obj
 0004:00000240       $pdata$??$Unwrap@VnjsOracledb@@@ObjectWrap@Nan@@SAPEAVnjsOracledb@@V?$Local@VObject@v8@@@v8@@@Z 0000000180063240     njsCommon.obj
 0004:00000240       $pdata$??$Unwrap@VnjsConnection@@@ObjectWrap@Nan@@SAPEAVnjsConnection@@V?$Local@VObject@v8@@@v8@@@Z 0000000180063240     njsConnection.obj
 0004:0000024c       $pdata$sprintf             000000018006324c     njsOracle.obj
 0004:00000258       $pdata$?FunctionCallbackWrapper@imp@Nan@@YAXAEBV?$FunctionCallbackInfo@VValue@v8@@@v8@@@Z 0000000180063258     njsOracle.obj
 0004:00000264       $pdata$?GetterCallbackWrapper@imp@Nan@@YAXV?$Local@VName@v8@@@v8@@AEBV?$PropertyCallbackInfo@VValue@v8@@@4@@Z 0000000180063264     njsOracle.obj
 0004:00000270       $pdata$?SetterCallbackWrapper@imp@Nan@@YAXV?$Local@VName@v8@@@v8@@V?$Local@VValue@v8@@@4@AEBV?$PropertyCallbackInfo@X@4@@Z 0000000180063270     njsOracle.obj
 0004:0000027c       $pdata$?NewInstance@Nan@@YA?AV?$MaybeLocal@VObject@v8@@@v8@@V?$Local@VObjectTemplate@v8@@@3@@Z 000000018006327c     njsOracle.obj
 0004:00000288       $pdata$?Get@Nan@@YA?AV?$MaybeLocal@VValue@v8@@@v8@@V?$Local@VObject@v8@@@3@I@Z 0000000180063288     njsOracle.obj
 0004:00000294       $pdata$?New@?$Factory@VFunctionTemplate@v8@@@imp@Nan@@SA?AV?$Local@VFunctionTemplate@v8@@@v8@@P6AXAEBV?$FunctionCallbackInfo@VValue@v8@@@3@@ZV?$Local@VValue@v8@@@5@V?$Local@VSignature@v8@@@5@@Z 0000000180063294     njsOracle.obj
 0004:000002a0       $pdata$?Error@Nan@@YA?AV?$Local@VValue@v8@@@v8@@PEBD@Z 00000001800632a0     njsOracle.obj
 0004:000002ac       $pdata$?SetPrototypeMethod@Nan@@YAXV?$Local@VFunctionTemplate@v8@@@v8@@PEBDP6AXAEBV?$FunctionCallbackInfo@VValue@v8@@@1@@Z@Z 00000001800632ac     njsOracle.obj
 0004:000002b8       $pdata$?SetAccessor@Nan@@YAXV?$Local@VObjectTemplate@v8@@@v8@@V?$Local@VString@v8@@@3@P6AX1AEBV?$PropertyCallbackInfo@VValue@v8@@@1@@ZP6AX1V?$Local@VValue@v8@@@3@AEBV?$PropertyCallbackInfo@X@1@@Z4W4AccessControl@3@W4PropertyAttribute@3@V?$Local@VAccessorSignature@v8@@@3@@Z 00000001800632b8     njsOracle.obj
 0004:000002c4       $pdata$??1ObjectWrap@Nan@@UEAA@XZ 00000001800632c4     njsOracle.obj
 0004:000002d0       $pdata$?Wrap@ObjectWrap@Nan@@IEAAXV?$Local@VObject@v8@@@v8@@@Z 00000001800632d0     njsOracle.obj
 0004:000002dc       $pdata$?Ref@ObjectWrap@Nan@@MEAAXXZ 00000001800632dc     njsOracle.obj
 0004:000002e8       $pdata$?Unref@ObjectWrap@Nan@@MEAAXXZ 00000001800632e8     njsOracle.obj
 0004:000002f4       $pdata$?WeakCallback@ObjectWrap@Nan@@CAXAEBV?$WeakCallbackInfo@VObjectWrap@Nan@@@v8@@@Z 00000001800632f4     njsOracle.obj
 0004:00000300       $pdata$??_GObjectWrap@Nan@@UEAAPEAXI@Z 0000000180063300     njsOracle.obj
 0004:0000030c       $pdata$??1njsOracledb@@EEAA@XZ 000000018006330c     njsOracle.obj
 0004:00000318       $pdata$??_GnjsOracledb@@EEAAPEAXI@Z 0000000180063318     njsOracle.obj
 0004:00000324       $pdata$??0njsOracledb@@AEAA@XZ 0000000180063324     njsOracle.obj
 0004:00000330       $pdata$?Init@njsOracledb@@SAXV?$Local@VObject@v8@@@v8@@@Z 0000000180063330     njsOracle.obj
 0004:0000033c       $pdata$?New@njsOracledb@@CAXAEBV?$FunctionCallbackInfo@VValue@v8@@@Nan@@@Z 000000018006333c     njsOracle.obj
 0004:00000348       $pdata$?GetPoolMin@njsOracledb@@CAXV?$Local@VString@v8@@@v8@@AEBV?$PropertyCallbackInfo@VValue@v8@@@Nan@@@Z 0000000180063348     njsOracle.obj
 0004:00000348       $pdata$?GetPoolMax@njsPool@@CAXV?$Local@VString@v8@@@v8@@AEBV?$PropertyCallbackInfo@VValue@v8@@@Nan@@@Z 0000000180063348     njsPool.obj
 0004:00000354       $pdata$?SetPoolMin@njsOracledb@@CAXV?$Local@VString@v8@@@v8@@V?$Local@VValue@v8@@@3@AEBV?$PropertyCallbackInfo@X@Nan@@@Z 0000000180063354     njsOracle.obj
 0004:00000360       $pdata$?GetPoolMax@njsOracledb@@CAXV?$Local@VString@v8@@@v8@@AEBV?$PropertyCallbackInfo@VValue@v8@@@Nan@@@Z 0000000180063360     njsOracle.obj
 0004:00000360       $pdata$?GetPoolIncrement@njsPool@@CAXV?$Local@VString@v8@@@v8@@AEBV?$PropertyCallbackInfo@VValue@v8@@@Nan@@@Z 0000000180063360     njsPool.obj
 0004:0000036c       $pdata$?SetPoolMax@njsOracledb@@CAXV?$Local@VString@v8@@@v8@@V?$Local@VValue@v8@@@3@AEBV?$PropertyCallbackInfo@X@Nan@@@Z 000000018006336c     njsOracle.obj
 0004:00000378       $pdata$?GetPoolTimeout@njsPool@@CAXV?$Local@VString@v8@@@v8@@AEBV?$PropertyCallbackInfo@VValue@v8@@@Nan@@@Z 0000000180063378     njsPool.obj
 0004:00000378       $pdata$?GetPoolIncrement@njsOracledb@@CAXV?$Local@VString@v8@@@v8@@AEBV?$PropertyCallbackInfo@VValue@v8@@@Nan@@@Z 0000000180063378     njsOracle.obj
 0004:00000378       $pdata$?GetPieceSize@njsILob@@CAXV?$Local@VString@v8@@@v8@@AEBV?$PropertyCallbackInfo@VValue@v8@@@Nan@@@Z 0000000180063378     njsIntLob.obj
 0004:00000384       $pdata$?SetPoolIncrement@njsOracledb@@CAXV?$Local@VString@v8@@@v8@@V?$Local@VValue@v8@@@3@AEBV?$PropertyCallbackInfo@X@Nan@@@Z 0000000180063384     njsOracle.obj
 0004:00000390       $pdata$?GetPoolPingInterval@njsOracledb@@CAXV?$Local@VString@v8@@@v8@@AEBV?$PropertyCallbackInfo@VValue@v8@@@Nan@@@Z 0000000180063390     njsOracle.obj
 0004:0000039c       $pdata$?SetPoolPingInterval@njsOracledb@@CAXV?$Local@VString@v8@@@v8@@V?$Local@VValue@v8@@@3@AEBV?$PropertyCallbackInfo@X@Nan@@@Z 000000018006339c     njsOracle.obj
 0004:000003a8       $pdata$?GetChunkSize@njsILob@@CAXV?$Local@VString@v8@@@v8@@AEBV?$PropertyCallbackInfo@VValue@v8@@@Nan@@@Z 00000001800633a8     njsIntLob.obj
 0004:000003a8       $pdata$?GetPoolTimeout@njsOracledb@@CAXV?$Local@VString@v8@@@v8@@AEBV?$PropertyCallbackInfo@VValue@v8@@@Nan@@@Z 00000001800633a8     njsOracle.obj
 0004:000003a8       $pdata$?GetStmtCacheSize@njsPool@@CAXV?$Local@VString@v8@@@v8@@AEBV?$PropertyCallbackInfo@VValue@v8@@@Nan@@@Z 00000001800633a8     njsPool.obj
 0004:000003b4       $pdata$?SetPoolTimeout@njsOracledb@@CAXV?$Local@VString@v8@@@v8@@V?$Local@VValue@v8@@@3@AEBV?$PropertyCallbackInfo@X@Nan@@@Z 00000001800633b4     njsOracle.obj
 0004:000003c0       $pdata$?GetMaxRows@njsOracledb@@CAXV?$Local@VString@v8@@@v8@@AEBV?$PropertyCallbackInfo@VValue@v8@@@Nan@@@Z 00000001800633c0     njsOracle.obj
 0004:000003cc       $pdata$?SetMaxRows@njsOracledb@@CAXV?$Local@VString@v8@@@v8@@V?$Local@VValue@v8@@@3@AEBV?$PropertyCallbackInfo@X@Nan@@@Z 00000001800633cc     njsOracle.obj
 0004:000003d8       $pdata$?GetOutFormat@njsOracledb@@CAXV?$Local@VString@v8@@@v8@@AEBV?$PropertyCallbackInfo@VValue@v8@@@Nan@@@Z 00000001800633d8     njsOracle.obj
 0004:000003e4       $pdata$?SetOutFormat@njsOracledb@@CAXV?$Local@VString@v8@@@v8@@V?$Local@VValue@v8@@@3@AEBV?$PropertyCallbackInfo@X@Nan@@@Z 00000001800633e4     njsOracle.obj
 0004:000003f0       $pdata$?GetStmtCacheSize@njsOracledb@@CAXV?$Local@VString@v8@@@v8@@AEBV?$PropertyCallbackInfo@VValue@v8@@@Nan@@@Z 00000001800633f0     njsOracle.obj
 0004:000003fc       $pdata$?SetStmtCacheSize@njsOracledb@@CAXV?$Local@VString@v8@@@v8@@V?$Local@VValue@v8@@@3@AEBV?$PropertyCallbackInfo@X@Nan@@@Z 00000001800633fc     njsOracle.obj
 0004:00000408       $pdata$?GetPoolMin@njsPool@@CAXV?$Local@VString@v8@@@v8@@AEBV?$PropertyCallbackInfo@VValue@v8@@@Nan@@@Z 0000000180063408     njsPool.obj
 0004:00000408       $pdata$?GetFetchArraySize@njsOracledb@@CAXV?$Local@VString@v8@@@v8@@AEBV?$PropertyCallbackInfo@VValue@v8@@@Nan@@@Z 0000000180063408     njsOracle.obj
 0004:00000414       $pdata$?SetFetchArraySize@njsOracledb@@CAXV?$Local@VString@v8@@@v8@@V?$Local@VValue@v8@@@3@AEBV?$PropertyCallbackInfo@X@Nan@@@Z 0000000180063414     njsOracle.obj
 0004:00000420       $pdata$?GetAutoCommit@njsOracledb@@CAXV?$Local@VString@v8@@@v8@@AEBV?$PropertyCallbackInfo@VValue@v8@@@Nan@@@Z 0000000180063420     njsOracle.obj
 0004:0000042c       $pdata$?SetAutoCommit@njsOracledb@@CAXV?$Local@VString@v8@@@v8@@V?$Local@VValue@v8@@@3@AEBV?$PropertyCallbackInfo@X@Nan@@@Z 000000018006342c     njsOracle.obj
 0004:00000438       $pdata$?GetExtendedMetaData@njsOracledb@@CAXV?$Local@VString@v8@@@v8@@AEBV?$PropertyCallbackInfo@VValue@v8@@@Nan@@@Z 0000000180063438     njsOracle.obj
 0004:00000444       $pdata$?SetExtendedMetaData@njsOracledb@@CAXV?$Local@VString@v8@@@v8@@V?$Local@VValue@v8@@@3@AEBV?$PropertyCallbackInfo@X@Nan@@@Z 0000000180063444     njsOracle.obj
 0004:00000450       $pdata$?SetVersion@njsOracledb@@CAXV?$Local@VString@v8@@@v8@@V?$Local@VValue@v8@@@3@AEBV?$PropertyCallbackInfo@X@Nan@@@Z 0000000180063450     njsOracle.obj
 0004:0000045c       $pdata$?GetVersionString@njsOracledb@@CAXV?$Local@VString@v8@@@v8@@AEBV?$PropertyCallbackInfo@VValue@v8@@@Nan@@@Z 000000018006345c     njsOracle.obj
 0004:00000468       $pdata$?SetVersionString@njsOracledb@@CAXV?$Local@VString@v8@@@v8@@V?$Local@VValue@v8@@@3@AEBV?$PropertyCallbackInfo@X@Nan@@@Z 0000000180063468     njsOracle.obj
 0004:00000474       $pdata$?GetVersionSuffix@njsOracledb@@CAXV?$Local@VString@v8@@@v8@@AEBV?$PropertyCallbackInfo@VValue@v8@@@Nan@@@Z 0000000180063474     njsOracle.obj
 0004:00000480       $pdata$?SetVersionSuffix@njsOracledb@@CAXV?$Local@VString@v8@@@v8@@V?$Local@VValue@v8@@@3@AEBV?$PropertyCallbackInfo@X@Nan@@@Z 0000000180063480     njsOracle.obj
 0004:0000048c       $pdata$?GetConnectionClass@njsOracledb@@CAXV?$Local@VString@v8@@@v8@@AEBV?$PropertyCallbackInfo@VValue@v8@@@Nan@@@Z 000000018006348c     njsOracle.obj
 0004:00000498       $pdata$?SetConnectionClass@njsOracledb@@CAXV?$Local@VString@v8@@@v8@@V?$Local@VValue@v8@@@3@AEBV?$PropertyCallbackInfo@X@Nan@@@Z 0000000180063498     njsOracle.obj
 0004:000004a4       $pdata$?GetEdition@njsOracledb@@CAXV?$Local@VString@v8@@@v8@@AEBV?$PropertyCallbackInfo@VValue@v8@@@Nan@@@Z 00000001800634a4     njsOracle.obj
 0004:000004b0       $pdata$?SetEdition@njsOracledb@@CAXV?$Local@VString@v8@@@v8@@V?$Local@VValue@v8@@@3@AEBV?$PropertyCallbackInfo@X@Nan@@@Z 00000001800634b0     njsOracle.obj
 0004:000004bc       $pdata$?GetExternalAuth@njsOracledb@@CAXV?$Local@VString@v8@@@v8@@AEBV?$PropertyCallbackInfo@VValue@v8@@@Nan@@@Z 00000001800634bc     njsOracle.obj
 0004:000004c8       $pdata$?SetExternalAuth@njsOracledb@@CAXV?$Local@VString@v8@@@v8@@V?$Local@VValue@v8@@@3@AEBV?$PropertyCallbackInfo@X@Nan@@@Z 00000001800634c8     njsOracle.obj
 0004:000004d4       $pdata$?GetLobPrefetchSize@njsOracledb@@CAXV?$Local@VString@v8@@@v8@@AEBV?$PropertyCallbackInfo@VValue@v8@@@Nan@@@Z 00000001800634d4     njsOracle.obj
 0004:000004e0       $pdata$?SetLobPrefetchSize@njsOracledb@@CAXV?$Local@VString@v8@@@v8@@V?$Local@VValue@v8@@@3@AEBV?$PropertyCallbackInfo@X@Nan@@@Z 00000001800634e0     njsOracle.obj
 0004:000004ec       $pdata$?GetFetchAsString@njsOracledb@@CAXV?$Local@VString@v8@@@v8@@AEBV?$PropertyCallbackInfo@VValue@v8@@@Nan@@@Z 00000001800634ec     njsOracle.obj
 0004:000004f8       $pdata$?SetFetchAsString@njsOracledb@@CAXV?$Local@VString@v8@@@v8@@V?$Local@VValue@v8@@@3@AEBV?$PropertyCallbackInfo@X@Nan@@@Z 00000001800634f8     njsOracle.obj
 0004:00000504       $pdata$?GetFetchAsBuffer@njsOracledb@@CAXV?$Local@VString@v8@@@v8@@AEBV?$PropertyCallbackInfo@VValue@v8@@@Nan@@@Z 0000000180063504     njsOracle.obj
 0004:00000510       $pdata$?SetFetchAsBuffer@njsOracledb@@CAXV?$Local@VString@v8@@@v8@@V?$Local@VValue@v8@@@3@AEBV?$PropertyCallbackInfo@X@Nan@@@Z 0000000180063510     njsOracle.obj
 0004:0000051c       $pdata$?GetOracleClientVersion@njsOracledb@@CAXV?$Local@VString@v8@@@v8@@AEBV?$PropertyCallbackInfo@VValue@v8@@@Nan@@@Z 000000018006351c     njsOracle.obj
 0004:00000528       $pdata$?SetOracleClientVersion@njsOracledb@@CAXV?$Local@VString@v8@@@v8@@V?$Local@VValue@v8@@@3@AEBV?$PropertyCallbackInfo@X@Nan@@@Z 0000000180063528     njsOracle.obj
 0004:00000534       $pdata$?GetOracleClientVersionString@njsOracledb@@CAXV?$Local@VString@v8@@@v8@@AEBV?$PropertyCallbackInfo@VValue@v8@@@Nan@@@Z 0000000180063534     njsOracle.obj
 0004:00000540       $pdata$?SetOracleClientVersionString@njsOracledb@@CAXV?$Local@VString@v8@@@v8@@V?$Local@VValue@v8@@@3@AEBV?$PropertyCallbackInfo@X@Nan@@@Z 0000000180063540     njsOracle.obj
 0004:0000054c       $pdata$?GetEvents@njsOracledb@@CAXV?$Local@VString@v8@@@v8@@AEBV?$PropertyCallbackInfo@VValue@v8@@@Nan@@@Z 000000018006354c     njsOracle.obj
 0004:00000558       $pdata$?SetEvents@njsOracledb@@CAXV?$Local@VString@v8@@@v8@@V?$Local@VValue@v8@@@3@AEBV?$PropertyCallbackInfo@X@Nan@@@Z 0000000180063558     njsOracle.obj
 0004:00000564       $pdata$?GetConnection@njsOracledb@@CAXAEBV?$FunctionCallbackInfo@VValue@v8@@@Nan@@@Z 0000000180063564     njsOracle.obj
 0004:00000570       $pdata$0$?GetConnection@njsOracledb@@CAXAEBV?$FunctionCallbackInfo@VValue@v8@@@Nan@@@Z 0000000180063570     njsOracle.obj
 0004:0000057c       $pdata$3$?GetConnection@njsOracledb@@CAXAEBV?$FunctionCallbackInfo@VValue@v8@@@Nan@@@Z 000000018006357c     njsOracle.obj
 0004:00000588       $pdata$4$?GetConnection@njsOracledb@@CAXAEBV?$FunctionCallbackInfo@VValue@v8@@@Nan@@@Z 0000000180063588     njsOracle.obj
 0004:00000594       $pdata$5$?GetConnection@njsOracledb@@CAXAEBV?$FunctionCallbackInfo@VValue@v8@@@Nan@@@Z 0000000180063594     njsOracle.obj
 0004:000005a0       $pdata$?Async_GetConnection@njsOracledb@@CAXPEAVnjsBaton@@@Z 00000001800635a0     njsOracle.obj
 0004:000005ac       $pdata$?Async_AfterGetConnection@njsOracledb@@CAXPEAVnjsBaton@@QEAV?$Local@VValue@v8@@@v8@@@Z 00000001800635ac     njsOracle.obj
 0004:000005ac       $pdata$?Async_AfterGetConnection@njsPool@@CAXPEAVnjsBaton@@QEAV?$Local@VValue@v8@@@v8@@@Z 00000001800635ac     njsPool.obj
 0004:000005b8       $pdata$?CreatePool@njsOracledb@@CAXAEBV?$FunctionCallbackInfo@VValue@v8@@@Nan@@@Z 00000001800635b8     njsOracle.obj
 0004:000005c4       $pdata$0$?CreatePool@njsOracledb@@CAXAEBV?$FunctionCallbackInfo@VValue@v8@@@Nan@@@Z 00000001800635c4     njsOracle.obj
 0004:000005d0       $pdata$2$?CreatePool@njsOracledb@@CAXAEBV?$FunctionCallbackInfo@VValue@v8@@@Nan@@@Z 00000001800635d0     njsOracle.obj
 0004:000005dc       $pdata$5$?CreatePool@njsOracledb@@CAXAEBV?$FunctionCallbackInfo@VValue@v8@@@Nan@@@Z 00000001800635dc     njsOracle.obj
 0004:000005e8       $pdata$6$?CreatePool@njsOracledb@@CAXAEBV?$FunctionCallbackInfo@VValue@v8@@@Nan@@@Z 00000001800635e8     njsOracle.obj
 0004:000005f4       $pdata$7$?CreatePool@njsOracledb@@CAXAEBV?$FunctionCallbackInfo@VValue@v8@@@Nan@@@Z 00000001800635f4     njsOracle.obj
 0004:00000600       $pdata$8$?CreatePool@njsOracledb@@CAXAEBV?$FunctionCallbackInfo@VValue@v8@@@Nan@@@Z 0000000180063600     njsOracle.obj
 0004:0000060c       $pdata$?Async_CreatePool@njsOracledb@@CAXPEAVnjsBaton@@@Z 000000018006360c     njsOracle.obj
 0004:00000618       $pdata$?Async_AfterCreatePool@njsOracledb@@CAXPEAVnjsBaton@@QEAV?$Local@VValue@v8@@@v8@@@Z 0000000180063618     njsOracle.obj
 0004:00000624       $pdata$?SetFetchAsStringTypesOnBaton@njsOracledb@@QEBAXPEAVnjsBaton@@@Z 0000000180063624     njsOracle.obj
 0004:00000630       $pdata$?SetFetchAsBufferTypesOnBaton@njsOracledb@@QEBAXPEAVnjsBaton@@@Z 0000000180063630     njsOracle.obj
 0004:0000063c       $pdata$?ThrowDPIError@njsOracledb@@SAXXZ 000000018006363c     njsOracle.obj
 0004:00000648       $pdata$init                0000000180063648     njsOracle.obj
 0004:00000654       $pdata$?NewInstance@Nan@@YA?AV?$MaybeLocal@VObject@v8@@@v8@@V?$Local@VFunction@v8@@@3@@Z 0000000180063654     njsPool.obj
 0004:00000660       $pdata$?GetFunction@Nan@@YA?AV?$MaybeLocal@VFunction@v8@@@v8@@V?$Local@VFunctionTemplate@v8@@@3@@Z 0000000180063660     njsPool.obj
 0004:0000066c       $pdata$??_GnjsPool@@EEAAPEAXI@Z 000000018006366c     njsPool.obj
 0004:00000678       $pdata$?Init@njsPool@@SAXV?$Local@VObject@v8@@@v8@@@Z 0000000180063678     njsPool.obj
 0004:00000684       $pdata$?CreateFromBaton@njsPool@@SA?AV?$Local@VObject@v8@@@v8@@PEAVnjsBaton@@@Z 0000000180063684     njsPool.obj
 0004:00000690       $pdata$?New@njsPool@@CAXAEBV?$FunctionCallbackInfo@VValue@v8@@@Nan@@@Z 0000000180063690     njsPool.obj
 0004:0000069c       $pdata$?GetConnectionsOpen@njsPool@@CAXV?$Local@VString@v8@@@v8@@AEBV?$PropertyCallbackInfo@VValue@v8@@@Nan@@@Z 000000018006369c     njsPool.obj
 0004:000006a8       $pdata$?GetConnectionsInUse@njsPool@@CAXV?$Local@VString@v8@@@v8@@AEBV?$PropertyCallbackInfo@VValue@v8@@@Nan@@@Z 00000001800636a8     njsPool.obj
 0004:000006b4       $pdata$?GetPoolPingInterval@njsPool@@CAXV?$Local@VString@v8@@@v8@@AEBV?$PropertyCallbackInfo@VValue@v8@@@Nan@@@Z 00000001800636b4     njsPool.obj
 0004:000006c0       $pdata$?SetPoolMin@njsPool@@CAXV?$Local@VString@v8@@@v8@@V?$Local@VValue@v8@@@3@AEBV?$PropertyCallbackInfo@X@Nan@@@Z 00000001800636c0     njsPool.obj
 0004:000006cc       $pdata$?SetPoolMax@njsPool@@CAXV?$Local@VString@v8@@@v8@@V?$Local@VValue@v8@@@3@AEBV?$PropertyCallbackInfo@X@Nan@@@Z 00000001800636cc     njsPool.obj
 0004:000006d8       $pdata$?SetPoolIncrement@njsPool@@CAXV?$Local@VString@v8@@@v8@@V?$Local@VValue@v8@@@3@AEBV?$PropertyCallbackInfo@X@Nan@@@Z 00000001800636d8     njsPool.obj
 0004:000006e4       $pdata$?SetPoolTimeout@njsPool@@CAXV?$Local@VString@v8@@@v8@@V?$Local@VValue@v8@@@3@AEBV?$PropertyCallbackInfo@X@Nan@@@Z 00000001800636e4     njsPool.obj
 0004:000006f0       $pdata$?SetConnectionsOpen@njsPool@@CAXV?$Local@VString@v8@@@v8@@V?$Local@VValue@v8@@@3@AEBV?$PropertyCallbackInfo@X@Nan@@@Z 00000001800636f0     njsPool.obj
 0004:000006fc       $pdata$?SetConnectionsInUse@njsPool@@CAXV?$Local@VString@v8@@@v8@@V?$Local@VValue@v8@@@3@AEBV?$PropertyCallbackInfo@X@Nan@@@Z 00000001800636fc     njsPool.obj
 0004:00000708       $pdata$?SetPoolPingInterval@njsPool@@CAXV?$Local@VString@v8@@@v8@@V?$Local@VValue@v8@@@3@AEBV?$PropertyCallbackInfo@X@Nan@@@Z 0000000180063708     njsPool.obj
 0004:00000714       $pdata$?SetStmtCacheSize@njsConnection@@CAXV?$Local@VString@v8@@@v8@@V?$Local@VValue@v8@@@3@AEBV?$PropertyCallbackInfo@X@Nan@@@Z 0000000180063714     njsConnection.obj
 0004:00000714       $pdata$?SetStmtCacheSize@njsPool@@CAXV?$Local@VString@v8@@@v8@@V?$Local@VValue@v8@@@3@AEBV?$PropertyCallbackInfo@X@Nan@@@Z 0000000180063714     njsPool.obj
 0004:00000720       $pdata$?GetConnection@njsPool@@CAXAEBV?$FunctionCallbackInfo@VValue@v8@@@Nan@@@Z 0000000180063720     njsPool.obj
 0004:0000072c       $pdata$?Async_GetConnection@njsPool@@CAXPEAVnjsBaton@@@Z 000000018006372c     njsPool.obj
 0004:00000738       $pdata$?Close@njsPool@@CAXAEBV?$FunctionCallbackInfo@VValue@v8@@@Nan@@@Z 0000000180063738     njsPool.obj
 0004:00000744       $pdata$?Async_Close@njsPool@@CAXPEAVnjsBaton@@@Z 0000000180063744     njsPool.obj
 0004:00000750       $pdata$??$Reset@VObject@v8@@@?$Persistent@VObject@v8@@V?$NonCopyablePersistentTraits@VObject@v8@@@2@@Nan@@QEAAXAEBV?$PersistentBase@VObject@v8@@@v8@@@Z 0000000180063750     njsPool.obj
 0004:0000075c       $pdata$?Set@Nan@@YA?AV?$Maybe@_N@v8@@V?$Local@VObject@v8@@@3@IV?$Local@VValue@v8@@@3@@Z 000000018006375c     njsConnection.obj
 0004:00000768       $pdata$?DefineOwnProperty@Nan@@YA?AV?$Maybe@_N@v8@@V?$Local@VObject@v8@@@3@V?$Local@VString@v8@@@3@V?$Local@VValue@v8@@@3@W4PropertyAttribute@3@@Z 0000000180063768     njsConnection.obj
 0004:00000774       $pdata$?convert@?$ToFactory@VInteger@v8@@@imp@Nan@@SA?AV?$MaybeLocal@VInteger@v8@@@v8@@V?$Local@VValue@v8@@@5@@Z 0000000180063774     njsConnection.obj
 0004:00000780       $pdata$?convert@?$ToFactory@VInt32@v8@@@imp@Nan@@SA?AV?$MaybeLocal@VInt32@v8@@@v8@@V?$Local@VValue@v8@@@5@@Z 0000000180063780     njsConnection.obj
 0004:0000078c       $pdata$?New@?$Factory@VDate@v8@@@imp@Nan@@SA?AV?$MaybeLocal@VDate@v8@@@v8@@N@Z 000000018006378c     njsConnection.obj
 0004:00000798       $pdata$??_GnjsConnection@@EEAAPEAXI@Z 0000000180063798     njsConnection.obj
 0004:000007a4       $pdata$?Init@njsConnection@@SAXV?$Local@VObject@v8@@@v8@@@Z 00000001800637a4     njsConnection.obj
 0004:000007b0       $pdata$?CreateFromBaton@njsConnection@@SA?AV?$Local@VObject@v8@@@v8@@PEAVnjsBaton@@@Z 00000001800637b0     njsConnection.obj
 0004:000007bc       $pdata$?ProcessQueryVars@njsConnection@@SA_NPEAVnjsBaton@@PEAUdpiStmt@@PEAVnjsVariable@@I@Z 00000001800637bc     njsConnection.obj
 0004:000007c8       $pdata$?ProcessVars@njsConnection@@SA_NPEAVnjsBaton@@PEAVnjsVariable@@II@Z 00000001800637c8     njsConnection.obj
 0004:000007d4       $pdata$?ProcessVarBuffer@njsConnection@@CA_NPEAVnjsBaton@@PEAVnjsVariable@@PEAVnjsVariableBuffer@@@Z 00000001800637d4     njsConnection.obj
 0004:000007e0       $pdata$?MapByName@njsConnection@@CA_NPEAVnjsBaton@@PEAUdpiQueryInfo@@AEAW4dpiOracleTypeNum@@@Z 00000001800637e0     njsConnection.obj
 0004:000007ec       $pdata$?PrepareAndBind@njsConnection@@CA_NPEAVnjsBaton@@@Z 00000001800637ec     njsConnection.obj
 0004:000007f8       $pdata$?GetMetaData@njsConnection@@SA?AV?$Local@VValue@v8@@@v8@@PEAVnjsVariable@@I_N@Z 00000001800637f8     njsConnection.obj
 0004:00000804       $pdata$?CreateVarBuffer@njsConnection@@CA_NPEAVnjsVariable@@PEAVnjsBaton@@@Z 0000000180063804     njsConnection.obj
 0004:00000810       $pdata$?ProcessExecuteBinds@njsConnection@@CA_NV?$Local@VObject@v8@@@v8@@PEAVnjsBaton@@@Z 0000000180063810     njsConnection.obj
 0004:0000081c       $pdata$?ScanExecuteBinds@njsConnection@@CA_NV?$Local@VObject@v8@@@v8@@V?$Local@VArray@v8@@@3@PEAVnjsBaton@@@Z 000000018006381c     njsConnection.obj
 0004:00000828       $pdata$?ScanExecuteBindUnit@njsConnection@@CA_NV?$Local@VObject@v8@@@v8@@PEAVnjsVariable@@_NPEAVnjsBaton@@@Z 0000000180063828     njsConnection.obj
 0004:00000834       $pdata$?ProcessExecuteManyBinds@njsConnection@@CA_NV?$Local@VArray@v8@@@v8@@V?$Local@VObject@v8@@@3@PEAVnjsBaton@@@Z 0000000180063834     njsConnection.obj
 0004:00000840       $pdata$?ScanExecuteManyBinds@njsConnection@@CA_NV?$Local@VArray@v8@@@v8@@0PEAVnjsBaton@@@Z 0000000180063840     njsConnection.obj
 0004:0000084c       $pdata$?TransferExecuteManyBinds@njsConnection@@CA_NV?$Local@VArray@v8@@@v8@@0PEAVnjsBaton@@@Z 000000018006384c     njsConnection.obj
 0004:00000858       $pdata$?InitBindVars@njsConnection@@CA_NV?$Local@VObject@v8@@@v8@@V?$Local@VArray@v8@@@3@PEAVnjsBaton@@@Z 0000000180063858     njsConnection.obj
 0004:00000864       $pdata$?ProcessBindValue@njsConnection@@CA_NV?$Local@VValue@v8@@@v8@@PEAVnjsVariable@@PEAVnjsBaton@@@Z 0000000180063864     njsConnection.obj
 0004:00000870       $pdata$?ProcessScalarBindValue@njsConnection@@CA_NV?$Local@VValue@v8@@@v8@@PEAVnjsVariable@@I_NPEAVnjsBaton@@@Z 0000000180063870     njsConnection.obj
 0004:0000087c       $pdata$?GetBindTypeAndSizeFromValue@njsConnection@@CA_NPEAVnjsVariable@@V?$Local@VValue@v8@@@v8@@PEAW4njsDataType@@PEAIPEAVnjsBaton@@_N@Z 000000018006387c     njsConnection.obj
 0004:00000888       $pdata$?ProcessExecuteOptions@njsConnection@@CA_NV?$Local@VObject@v8@@@v8@@PEAVnjsBaton@@@Z 0000000180063888     njsConnection.obj
 0004:00000894       $pdata$?ProcessExecuteManyOptions@njsConnection@@CA_NV?$Local@VObject@v8@@@v8@@PEAVnjsBaton@@@Z 0000000180063894     njsConnection.obj
 0004:000008a0       $pdata$?GetScalarValueFromVar@njsConnection@@SA_NPEAVnjsBaton@@PEAVnjsVariable@@PEAVnjsVariableBuffer@@IAEAV?$Local@VValue@v8@@@v8@@@Z 00000001800638a0     njsConnection.obj
 0004:000008ac       $pdata$?GetArrayValueFromVar@njsConnection@@CA_NPEAVnjsBaton@@PEAVnjsVariable@@IAEAV?$Local@VValue@v8@@@v8@@@Z 00000001800638ac     njsConnection.obj
 0004:000008b8       $pdata$?GetExecuteManyOutBinds@njsConnection@@CA_NAEAV?$Local@VValue@v8@@@v8@@IPEAVnjsBaton@@@Z 00000001800638b8     njsConnection.obj
 0004:000008c4       $pdata$?GetOutBinds@njsConnection@@CA_NAEAV?$Local@VValue@v8@@@v8@@IIPEAVnjsBaton@@@Z 00000001800638c4     njsConnection.obj
 0004:000008d0       $pdata$?SetTextAttribute@njsConnection@@CAXAEBV?$PropertyCallbackInfo@X@Nan@@PEBDV?$Local@VValue@v8@@@v8@@P6AHPEAUdpiConn@@1I@Z@Z 00000001800638d0     njsConnection.obj
 0004:000008dc       $pdata$?New@njsConnection@@CAXAEBV?$FunctionCallbackInfo@VValue@v8@@@Nan@@@Z 00000001800638dc     njsConnection.obj
 0004:000008e8       $pdata$?Execute@njsConnection@@CAXAEBV?$FunctionCallbackInfo@VValue@v8@@@Nan@@@Z 00000001800638e8     njsConnection.obj
 0004:000008f4       $pdata$?Async_Execute@njsConnection@@CAXPEAVnjsBaton@@@Z 00000001800638f4     njsConnection.obj
 0004:00000900       $pdata$?Async_AfterExecute@njsConnection@@CAXPEAVnjsBaton@@QEAV?$Local@VValue@v8@@@v8@@@Z 0000000180063900     njsConnection.obj
 0004:0000090c       $pdata$?ExecuteMany@njsConnection@@CAXAEBV?$FunctionCallbackInfo@VValue@v8@@@Nan@@@Z 000000018006390c     njsConnection.obj
 0004:00000918       $pdata$?Async_ExecuteMany@njsConnection@@CAXPEAVnjsBaton@@@Z 0000000180063918     njsConnection.obj
 0004:00000924       $pdata$0$?Async_ExecuteMany@njsConnection@@CAXPEAVnjsBaton@@@Z 0000000180063924     njsConnection.obj
 0004:00000930       $pdata$1$?Async_ExecuteMany@njsConnection@@CAXPEAVnjsBaton@@@Z 0000000180063930     njsConnection.obj
 0004:0000093c       $pdata$?Async_AfterExecuteMany@njsConnection@@CAXPEAVnjsBaton@@QEAV?$Local@VValue@v8@@@v8@@@Z 000000018006393c     njsConnection.obj
 0004:00000948       $pdata$?GetStatementInfo@njsConnection@@CAXAEBV?$FunctionCallbackInfo@VValue@v8@@@Nan@@@Z 0000000180063948     njsConnection.obj
 0004:00000954       $pdata$?Async_GetStatementInfo@njsConnection@@CAXPEAVnjsBaton@@@Z 0000000180063954     njsConnection.obj
 0004:00000960       $pdata$?Async_AfterGetStatementInfo@njsConnection@@CAXPEAVnjsBaton@@QEAV?$Local@VValue@v8@@@v8@@@Z 0000000180063960     njsConnection.obj
 0004:0000096c       $pdata$?Close@njsConnection@@CAXAEBV?$FunctionCallbackInfo@VValue@v8@@@Nan@@@Z 000000018006396c     njsConnection.obj
 0004:00000978       $pdata$?Async_Close@njsConnection@@CAXPEAVnjsBaton@@@Z 0000000180063978     njsConnection.obj
 0004:00000984       $pdata$?Commit@njsConnection@@CAXAEBV?$FunctionCallbackInfo@VValue@v8@@@Nan@@@Z 0000000180063984     njsConnection.obj
 0004:00000990       $pdata$?Async_Commit@njsConnection@@CAXPEAVnjsBaton@@@Z 0000000180063990     njsConnection.obj
 0004:0000099c       $pdata$?Rollback@njsConnection@@CAXAEBV?$FunctionCallbackInfo@VValue@v8@@@Nan@@@Z 000000018006399c     njsConnection.obj
 0004:000009a8       $pdata$?Async_Rollback@njsConnection@@CAXPEAVnjsBaton@@@Z 00000001800639a8     njsConnection.obj
 0004:000009b4       $pdata$?Break@njsConnection@@CAXAEBV?$FunctionCallbackInfo@VValue@v8@@@Nan@@@Z 00000001800639b4     njsConnection.obj
 0004:000009c0       $pdata$?Async_Break@njsConnection@@CAXPEAVnjsBaton@@@Z 00000001800639c0     njsConnection.obj
 0004:000009cc       $pdata$?CreateLob@njsConnection@@CAXAEBV?$FunctionCallbackInfo@VValue@v8@@@Nan@@@Z 00000001800639cc     njsConnection.obj
 0004:000009d8       $pdata$?Async_CreateLob@njsConnection@@CAXPEAVnjsBaton@@@Z 00000001800639d8     njsConnection.obj
 0004:000009e4       $pdata$?Async_AfterCreateLob@njsConnection@@CAXPEAVnjsBaton@@QEAV?$Local@VValue@v8@@@v8@@@Z 00000001800639e4     njsConnection.obj
 0004:000009f0       $pdata$?ChangePassword@njsConnection@@CAXAEBV?$FunctionCallbackInfo@VValue@v8@@@Nan@@@Z 00000001800639f0     njsConnection.obj
 0004:000009fc       $pdata$?Async_ChangePassword@njsConnection@@CAXPEAVnjsBaton@@@Z 00000001800639fc     njsConnection.obj
 0004:00000a08       $pdata$?Ping@njsConnection@@CAXAEBV?$FunctionCallbackInfo@VValue@v8@@@Nan@@@Z 0000000180063a08     njsConnection.obj
 0004:00000a14       $pdata$?Async_Ping@njsConnection@@CAXPEAVnjsBaton@@@Z 0000000180063a14     njsConnection.obj
 0004:00000a20       $pdata$?GetStmtCacheSize@njsConnection@@CAXV?$Local@VString@v8@@@v8@@AEBV?$PropertyCallbackInfo@VValue@v8@@@Nan@@@Z 0000000180063a20     njsConnection.obj
 0004:00000a2c       $pdata$?SetClientId@njsConnection@@CAXV?$Local@VString@v8@@@v8@@V?$Local@VValue@v8@@@3@AEBV?$PropertyCallbackInfo@X@Nan@@@Z 0000000180063a2c     njsConnection.obj
 0004:00000a38       $pdata$?SetModule@njsConnection@@CAXV?$Local@VString@v8@@@v8@@V?$Local@VValue@v8@@@3@AEBV?$PropertyCallbackInfo@X@Nan@@@Z 0000000180063a38     njsConnection.obj
 0004:00000a44       $pdata$?SetAction@njsConnection@@CAXV?$Local@VString@v8@@@v8@@V?$Local@VValue@v8@@@3@AEBV?$PropertyCallbackInfo@X@Nan@@@Z 0000000180063a44     njsConnection.obj
 0004:00000a50       $pdata$?GetOracleServerVersion@njsConnection@@CAXV?$Local@VString@v8@@@v8@@AEBV?$PropertyCallbackInfo@VValue@v8@@@Nan@@@Z 0000000180063a50     njsConnection.obj
 0004:00000a5c       $pdata$?SetOracleServerVersion@njsConnection@@CAXV?$Local@VString@v8@@@v8@@V?$Local@VValue@v8@@@3@AEBV?$PropertyCallbackInfo@X@Nan@@@Z 0000000180063a5c     njsConnection.obj
 0004:00000a68       $pdata$?GetOracleServerVersionString@njsConnection@@CAXV?$Local@VString@v8@@@v8@@AEBV?$PropertyCallbackInfo@VValue@v8@@@Nan@@@Z 0000000180063a68     njsConnection.obj
 0004:00000a74       $pdata$?SetOracleServerVersionString@njsConnection@@CAXV?$Local@VString@v8@@@v8@@V?$Local@VValue@v8@@@3@AEBV?$PropertyCallbackInfo@X@Nan@@@Z 0000000180063a74     njsConnection.obj
 0004:00000a80       $pdata$?append@?$basic_string@DU?$char_traits@D@std@@V?$allocator@D@2@@std@@QEAAAEAV12@PEBD_K@Z 0000000180063a80     njsConnection.obj
 0004:00000a8c       $pdata$??$?HDU?$char_traits@D@std@@V?$allocator@D@1@@std@@YA?AV?$basic_string@DU?$char_traits@D@std@@V?$allocator@D@2@@0@PEBDAEBV10@@Z 0000000180063a8c     njsConnection.obj
 0004:00000a98       $pdata$??_GnjsResultSet@@EEAAPEAXI@Z 0000000180063a98     njsResultSet.obj
 0004:00000aa4       $pdata$??1njsResultSet@@EEAA@XZ 0000000180063aa4     njsResultSet.obj
 0004:00000ab0       $pdata$?Init@njsResultSet@@SAXV?$Local@VObject@v8@@@v8@@@Z 0000000180063ab0     njsResultSet.obj
 0004:00000abc       $pdata$?CreateFromBaton@njsResultSet@@SA?AV?$Local@VObject@v8@@@v8@@PEAVnjsBaton@@@Z 0000000180063abc     njsResultSet.obj
 0004:00000ac8       $pdata$?CreateFromRefCursor@njsResultSet@@SA_NPEAVnjsBaton@@PEAUdpiStmt@@PEAVnjsVariable@@IAEAV?$Local@VValue@v8@@@v8@@@Z 0000000180063ac8     njsResultSet.obj
 0004:00000ad4       $pdata$?IsValid@njsResultSet@@UEBA_NXZ 0000000180063ad4     njsResultSet.obj
 0004:00000ae0       $pdata$?New@njsResultSet@@CAXAEBV?$FunctionCallbackInfo@VValue@v8@@@Nan@@@Z 0000000180063ae0     njsResultSet.obj
 0004:00000aec       $pdata$?GetMetaData@njsResultSet@@CAXV?$Local@VString@v8@@@v8@@AEBV?$PropertyCallbackInfo@VValue@v8@@@Nan@@@Z 0000000180063aec     njsResultSet.obj
 0004:00000af8       $pdata$?SetMetaData@njsResultSet@@CAXV?$Local@VString@v8@@@v8@@V?$Local@VValue@v8@@@3@AEBV?$PropertyCallbackInfo@X@Nan@@@Z 0000000180063af8     njsResultSet.obj
 0004:00000b04       $pdata$?GetRows@njsResultSet@@CAXAEBV?$FunctionCallbackInfo@VValue@v8@@@Nan@@@Z 0000000180063b04     njsResultSet.obj
 0004:00000b10       $pdata$?GetRowsHelper@njsResultSet@@AEAA_NPEAVnjsBaton@@PEAH@Z 0000000180063b10     njsResultSet.obj
 0004:00000b1c       $pdata$?Async_GetRows@njsResultSet@@CAXPEAVnjsBaton@@@Z 0000000180063b1c     njsResultSet.obj
 0004:00000b28       $pdata$?Async_AfterGetRows@njsResultSet@@CAXPEAVnjsBaton@@QEAV?$Local@VValue@v8@@@v8@@@Z 0000000180063b28     njsResultSet.obj
 0004:00000b34       $pdata$?Close@njsResultSet@@CAXAEBV?$FunctionCallbackInfo@VValue@v8@@@Nan@@@Z 0000000180063b34     njsResultSet.obj
 0004:00000b40       $pdata$?Async_Close@njsResultSet@@CAXPEAVnjsBaton@@@Z 0000000180063b40     njsResultSet.obj
 0004:00000b4c       $pdata$?Async_AfterClose@njsResultSet@@CAXPEAVnjsBaton@@QEAV?$Local@VValue@v8@@@v8@@@Z 0000000180063b4c     njsResultSet.obj
 0004:00000b58       $pdata$?Get@njsMessages@@SA?AV?$basic_string@DU?$char_traits@D@std@@V?$allocator@D@2@@std@@HZZ 0000000180063b58     njsMessages.obj
 0004:00000b64       $pdata$??_GnjsILob@@EEAAPEAXI@Z 0000000180063b64     njsIntLob.obj
 0004:00000b70       $pdata$?Init@njsILob@@SAXV?$Local@VObject@v8@@@v8@@@Z 0000000180063b70     njsIntLob.obj
 0004:00000b7c       $pdata$?CreateFromProtoLob@njsILob@@SA?AV?$Local@VObject@v8@@@v8@@PEAVnjsProtoILob@@@Z 0000000180063b7c     njsIntLob.obj
 0004:00000b88       $pdata$?GetInstance@njsILob@@SAPEAV1@V?$Local@VValue@v8@@@v8@@@Z 0000000180063b88     njsIntLob.obj
 0004:00000b94       $pdata$?New@njsILob@@CAXAEBV?$FunctionCallbackInfo@VValue@v8@@@Nan@@@Z 0000000180063b94     njsIntLob.obj
 0004:00000ba0       $pdata$?SetChunkSize@njsILob@@CAXV?$Local@VString@v8@@@v8@@V?$Local@VValue@v8@@@3@AEBV?$PropertyCallbackInfo@X@Nan@@@Z 0000000180063ba0     njsIntLob.obj
 0004:00000bac       $pdata$?GetLength@njsILob@@CAXV?$Local@VString@v8@@@v8@@AEBV?$PropertyCallbackInfo@VValue@v8@@@Nan@@@Z 0000000180063bac     njsIntLob.obj
 0004:00000bb8       $pdata$?SetLength@njsILob@@CAXV?$Local@VString@v8@@@v8@@V?$Local@VValue@v8@@@3@AEBV?$PropertyCallbackInfo@X@Nan@@@Z 0000000180063bb8     njsIntLob.obj
 0004:00000bc4       $pdata$?SetPieceSize@njsILob@@CAXV?$Local@VString@v8@@@v8@@V?$Local@VValue@v8@@@3@AEBV?$PropertyCallbackInfo@X@Nan@@@Z 0000000180063bc4     njsIntLob.obj
 0004:00000bd0       $pdata$?GetOffset@njsILob@@CAXV?$Local@VString@v8@@@v8@@AEBV?$PropertyCallbackInfo@VValue@v8@@@Nan@@@Z 0000000180063bd0     njsIntLob.obj
 0004:00000bdc       $pdata$?SetOffset@njsILob@@CAXV?$Local@VString@v8@@@v8@@V?$Local@VValue@v8@@@3@AEBV?$PropertyCallbackInfo@X@Nan@@@Z 0000000180063bdc     njsIntLob.obj
 0004:00000be8       $pdata$?GetType@njsILob@@CAXV?$Local@VString@v8@@@v8@@AEBV?$PropertyCallbackInfo@VValue@v8@@@Nan@@@Z 0000000180063be8     njsIntLob.obj
 0004:00000bf4       $pdata$?SetType@njsILob@@CAXV?$Local@VString@v8@@@v8@@V?$Local@VValue@v8@@@3@AEBV?$PropertyCallbackInfo@X@Nan@@@Z 0000000180063bf4     njsIntLob.obj
 0004:00000c00       $pdata$?GetIsAutoClose@njsILob@@CAXV?$Local@VString@v8@@@v8@@AEBV?$PropertyCallbackInfo@VValue@v8@@@Nan@@@Z 0000000180063c00     njsIntLob.obj
 0004:00000c0c       $pdata$?SetIsAutoClose@njsILob@@CAXV?$Local@VString@v8@@@v8@@V?$Local@VValue@v8@@@3@AEBV?$PropertyCallbackInfo@X@Nan@@@Z 0000000180063c0c     njsIntLob.obj
 0004:00000c18       $pdata$?GetIsValid@njsILob@@CAXV?$Local@VString@v8@@@v8@@AEBV?$PropertyCallbackInfo@VValue@v8@@@Nan@@@Z 0000000180063c18     njsIntLob.obj
 0004:00000c24       $pdata$?SetIsValid@njsILob@@CAXV?$Local@VString@v8@@@v8@@V?$Local@VValue@v8@@@3@AEBV?$PropertyCallbackInfo@X@Nan@@@Z 0000000180063c24     njsIntLob.obj
 0004:00000c30       $pdata$?Read@njsILob@@CAXAEBV?$FunctionCallbackInfo@VValue@v8@@@Nan@@@Z 0000000180063c30     njsIntLob.obj
 0004:00000c3c       $pdata$?Async_Read@njsILob@@CAXPEAVnjsBaton@@@Z 0000000180063c3c     njsIntLob.obj
 0004:00000c48       $pdata$?Close@njsILob@@CAXAEBV?$FunctionCallbackInfo@VValue@v8@@@Nan@@@Z 0000000180063c48     njsIntLob.obj
 0004:00000c54       $pdata$?Async_Close@njsILob@@CAXPEAVnjsBaton@@@Z 0000000180063c54     njsIntLob.obj
 0004:00000c60       $pdata$?Async_AfterRead@njsILob@@CAXPEAVnjsBaton@@QEAV?$Local@VValue@v8@@@v8@@@Z 0000000180063c60     njsIntLob.obj
 0004:00000c6c       $pdata$?Write@njsILob@@CAXAEBV?$FunctionCallbackInfo@VValue@v8@@@Nan@@@Z 0000000180063c6c     njsIntLob.obj
 0004:00000c78       $pdata$?Async_Write@njsILob@@CAXPEAVnjsBaton@@@Z 0000000180063c78     njsIntLob.obj
 0004:00000c84       $pdata$dpiConn__close      0000000180063c84     dpiConn.obj
 0004:00000c90       $pdata$dpiConn__create     0000000180063c90     dpiConn.obj
 0004:00000c9c       $pdata$1$dpiConn__create   0000000180063c9c     dpiConn.obj
 0004:00000ca8       $pdata$2$dpiConn__create   0000000180063ca8     dpiConn.obj
 0004:00000cb4       $pdata$dpiConn__createStandalone 0000000180063cb4     dpiConn.obj
 0004:00000cc0       $pdata$0$dpiConn__createStandalone 0000000180063cc0     dpiConn.obj
 0004:00000ccc       $pdata$1$dpiConn__createStandalone 0000000180063ccc     dpiConn.obj
 0004:00000cd8       $pdata$2$dpiConn__createStandalone 0000000180063cd8     dpiConn.obj
 0004:00000ce4       $pdata$dpiConn__free       0000000180063ce4     dpiConn.obj
 0004:00000cf0       $pdata$dpiConn__get        0000000180063cf0     dpiConn.obj
 0004:00000cfc       $pdata$0$dpiConn__get      0000000180063cfc     dpiConn.obj
 0004:00000d08       $pdata$1$dpiConn__get      0000000180063d08     dpiConn.obj
 0004:00000d14       $pdata$dpiConn__getHandles 0000000180063d14     dpiConn.obj
 0004:00000d20       $pdata$dpiConn__getServerCharset 0000000180063d20     dpiConn.obj
 0004:00000d2c       $pdata$dpiConn__getServerVersion 0000000180063d2c     dpiConn.obj
 0004:00000d38       $pdata$0$dpiConn__getServerVersion 0000000180063d38     dpiConn.obj
 0004:00000d44       $pdata$1$dpiConn__getServerVersion 0000000180063d44     dpiConn.obj
 0004:00000d50       $pdata$dpiConn__getSession 0000000180063d50     dpiConn.obj
 0004:00000d5c       $pdata$dpiConn__setAppContext 0000000180063d5c     dpiConn.obj
 0004:00000d68       $pdata$1$dpiConn__setAppContext 0000000180063d68     dpiConn.obj
 0004:00000d74       $pdata$3$dpiConn__setAppContext 0000000180063d74     dpiConn.obj
 0004:00000d80       $pdata$dpiConn__setAttributesFromCreateParams 0000000180063d80     dpiConn.obj
 0004:00000d8c       $pdata$dpiConn__setAttributeText 0000000180063d8c     dpiConn.obj
 0004:00000d98       $pdata$dpiConn__setShardingKey 0000000180063d98     dpiConn.obj
 0004:00000da4       $pdata$0$dpiConn__setShardingKey 0000000180063da4     dpiConn.obj
 0004:00000db0       $pdata$5$dpiConn__setShardingKey 0000000180063db0     dpiConn.obj
 0004:00000dbc       $pdata$7$dpiConn__setShardingKey 0000000180063dbc     dpiConn.obj
 0004:00000dc8       $pdata$8$dpiConn__setShardingKey 0000000180063dc8     dpiConn.obj
 0004:00000dd4       $pdata$dpiConn__setShardingKeyValue 0000000180063dd4     dpiConn.obj
 0004:00000de0       $pdata$2$dpiConn__setShardingKeyValue 0000000180063de0     dpiConn.obj
 0004:00000dec       $pdata$3$dpiConn__setShardingKeyValue 0000000180063dec     dpiConn.obj
 0004:00000df8       $pdata$4$dpiConn__setShardingKeyValue 0000000180063df8     dpiConn.obj
 0004:00000e04       $pdata$5$dpiConn__setShardingKeyValue 0000000180063e04     dpiConn.obj
 0004:00000e10       $pdata$dpiConn_breakExecution 0000000180063e10     dpiConn.obj
 0004:00000e1c       $pdata$dpiConn_changePassword 0000000180063e1c     dpiConn.obj
 0004:00000e28       $pdata$dpiConn_close       0000000180063e28     dpiConn.obj
 0004:00000e34       $pdata$0$dpiConn_close     0000000180063e34     dpiConn.obj
 0004:00000e40       $pdata$dpiConn_commit      0000000180063e40     dpiConn.obj
 0004:00000e4c       $pdata$0$dpiConn_commit    0000000180063e4c     dpiConn.obj
 0004:00000e58       $pdata$1$dpiConn_commit    0000000180063e58     dpiConn.obj
 0004:00000e64       $pdata$dpiConn_create      0000000180063e64     dpiConn.obj
 0004:00000e70       $pdata$2$dpiConn_create    0000000180063e70     dpiConn.obj
 0004:00000e7c       $pdata$3$dpiConn_create    0000000180063e7c     dpiConn.obj
 0004:00000e88       $pdata$4$dpiConn_create    0000000180063e88     dpiConn.obj
 0004:00000e94       $pdata$5$dpiConn_create    0000000180063e94     dpiConn.obj
 0004:00000ea0       $pdata$dpiConn_getServerVersion 0000000180063ea0     dpiConn.obj
 0004:00000eac       $pdata$dpiConn_getStmtCacheSize 0000000180063eac     dpiConn.obj
 0004:00000eb8       $pdata$0$dpiConn_getStmtCacheSize 0000000180063eb8     dpiConn.obj
 0004:00000ec4       $pdata$1$dpiConn_getStmtCacheSize 0000000180063ec4     dpiConn.obj
 0004:00000ed0       $pdata$dpiConn_newTempLob  0000000180063ed0     dpiConn.obj
 0004:00000edc       $pdata$dpiConn_newVar      0000000180063edc     dpiConn.obj
 0004:00000ee8       $pdata$dpiConn_ping        0000000180063ee8     dpiConn.obj
 0004:00000ef4       $pdata$0$dpiConn_ping      0000000180063ef4     dpiConn.obj
 0004:00000f00       $pdata$1$dpiConn_ping      0000000180063f00     dpiConn.obj
 0004:00000f0c       $pdata$dpiConn_prepareStmt 0000000180063f0c     dpiConn.obj
 0004:00000f18       $pdata$dpiConn_rollback    0000000180063f18     dpiConn.obj
 0004:00000f24       $pdata$dpiConn_setAction   0000000180063f24     dpiConn.obj
 0004:00000f30       $pdata$dpiConn_setClientIdentifier 0000000180063f30     dpiConn.obj
 0004:00000f3c       $pdata$dpiConn_setModule   0000000180063f3c     dpiConn.obj
 0004:00000f48       $pdata$dpiConn_setStmtCacheSize 0000000180063f48     dpiConn.obj
 0004:00000f54       $pdata$0$dpiConn_setStmtCacheSize 0000000180063f54     dpiConn.obj
 0004:00000f60       $pdata$1$dpiConn_setStmtCacheSize 0000000180063f60     dpiConn.obj
 0004:00000f6c       $pdata$dpiContext__create  0000000180063f6c     dpiContext.obj
 0004:00000f78       $pdata$0$dpiContext__create 0000000180063f78     dpiContext.obj
 0004:00000f84       $pdata$2$dpiContext__create 0000000180063f84     dpiContext.obj
 0004:00000f90       $pdata$dpiContext_getClientVersion 0000000180063f90     dpiContext.obj
 0004:00000f9c       $pdata$dpiContext_initCommonCreateParams 0000000180063f9c     dpiContext.obj
 0004:00000fa8       $pdata$dpiContext_initConnCreateParams 0000000180063fa8     dpiContext.obj
 0004:00000fb4       $pdata$dpiContext_initPoolCreateParams 0000000180063fb4     dpiContext.obj
 0004:00000fc0       $pdata$1$dpiContext_initPoolCreateParams 0000000180063fc0     dpiContext.obj
 0004:00000fcc       $pdata$2$dpiContext_initPoolCreateParams 0000000180063fcc     dpiContext.obj
 0004:00000fd8       $pdata$dpiDataBuffer__fromOracleNumberAsText 0000000180063fd8     dpiData.obj
 0004:00000fe4       $pdata$dpiDataBuffer__fromOracleTimestamp 0000000180063fe4     dpiData.obj
 0004:00000ff0       $pdata$dpiDataBuffer__fromOracleTimestampAsDouble 0000000180063ff0     dpiData.obj
 0004:00000ffc       $pdata$dpiDataBuffer__toOracleNumberFromDouble 0000000180063ffc     dpiData.obj
 0004:00001008       $pdata$dpiDataBuffer__toOracleNumberFromText 0000000180064008     dpiData.obj
 0004:00001014       $pdata$1$dpiDataBuffer__toOracleNumberFromText 0000000180064014     dpiData.obj
 0004:00001020       $pdata$2$dpiDataBuffer__toOracleNumberFromText 0000000180064020     dpiData.obj
 0004:0000102c       $pdata$3$dpiDataBuffer__toOracleNumberFromText 000000018006402c     dpiData.obj
 0004:00001038       $pdata$dpiDataBuffer__toOracleTimestamp 0000000180064038     dpiData.obj
 0004:00001044       $pdata$dpiDataBuffer__toOracleTimestampFromDouble 0000000180064044     dpiData.obj
 0004:00001050       $pdata$dpiDebug__getFormatWithPrefix 0000000180064050     dpiDebug.obj
 0004:0000105c       $pdata$dpiDebug__initialize 000000018006405c     dpiDebug.obj
 0004:00001068       $pdata$dpiDebug__print     0000000180064068     dpiDebug.obj
 0004:00001074       $pdata$dpiDeqOptions__free 0000000180064074     dpiDeqOptions.obj
 0004:00001080       $pdata$dpiEnqOptions__free 0000000180064080     dpiEnqOptions.obj
 0004:0000108c       $pdata$dpiEnv__free        000000018006408c     dpiEnv.obj
 0004:00001098       $pdata$dpiEnv__getCharacterSetIdAndName 0000000180064098     dpiEnv.obj
 0004:000010a4       $pdata$dpiEnv__init        00000001800640a4     dpiEnv.obj
 0004:000010b0       $pdata$0$dpiEnv__init      00000001800640b0     dpiEnv.obj
 0004:000010bc       $pdata$2$dpiEnv__init      00000001800640bc     dpiEnv.obj
 0004:000010c8       $pdata$3$dpiEnv__init      00000001800640c8     dpiEnv.obj
 0004:000010d4       $pdata$4$dpiEnv__init      00000001800640d4     dpiEnv.obj
 0004:000010e0       $pdata$dpiEnv__initError   00000001800640e0     dpiEnv.obj
 0004:000010ec       $pdata$dpiError__check     00000001800640ec     dpiError.obj
 0004:000010f8       $pdata$dpiError__set       00000001800640f8     dpiError.obj
 0004:00001104       $pdata$3$dpiError__set     0000000180064104     dpiError.obj
 0004:00001110       $pdata$4$dpiError__set     0000000180064110     dpiError.obj
 0004:0000111c       $pdata$dpiGen__addRef      000000018006411c     dpiGen.obj
 0004:00001128       $pdata$dpiGen__allocate    0000000180064128     dpiGen.obj
 0004:00001134       $pdata$dpiGen__endPublicFn 0000000180064134     dpiGen.obj
 0004:00001140       $pdata$0$dpiGen__endPublicFn 0000000180064140     dpiGen.obj
 0004:0000114c       $pdata$1$dpiGen__endPublicFn 000000018006414c     dpiGen.obj
 0004:00001158       $pdata$dpiGen__release     0000000180064158     dpiGen.obj
 0004:00001164       $pdata$dpiGen__setRefCount 0000000180064164     dpiGen.obj
 0004:00001170       $pdata$dpiGen__startPublicFn 0000000180064170     dpiGen.obj
 0004:0000117c       $pdata$dpiGlobal__extendedInitialize 000000018006417c     dpiGlobal.obj
 0004:00001188       $pdata$0$dpiGlobal__extendedInitialize 0000000180064188     dpiGlobal.obj
 0004:00001194       $pdata$2$dpiGlobal__extendedInitialize 0000000180064194     dpiGlobal.obj
 0004:000011a0       $pdata$dpiGlobal__finalize 00000001800641a0     dpiGlobal.obj
 0004:000011ac       $pdata$0$dpiGlobal__finalize 00000001800641ac     dpiGlobal.obj
 0004:000011b8       $pdata$1$dpiGlobal__finalize 00000001800641b8     dpiGlobal.obj
 0004:000011c4       $pdata$dpiGlobal__initError 00000001800641c4     dpiGlobal.obj
 0004:000011d0       $pdata$dpiGlobal__initialize 00000001800641d0     dpiGlobal.obj
 0004:000011dc       $pdata$dpiGlobal__lookupCharSet 00000001800641dc     dpiGlobal.obj
 0004:000011e8       $pdata$dpiGlobal__lookupEncoding 00000001800641e8     dpiGlobal.obj
 0004:000011f4       $pdata$dpiHandleList__addHandle 00000001800641f4     dpiHandleList.obj
 0004:00001200       $pdata$dpiHandleList__create 0000000180064200     dpiHandleList.obj
 0004:0000120c       $pdata$dpiHandleList__free 000000018006420c     dpiHandleList.obj
 0004:0000120c       $pdata$dpiHandlePool__free 000000018006420c     dpiHandlePool.obj
 0004:00001218       $pdata$dpiHandlePool__acquire 0000000180064218     dpiHandlePool.obj
 0004:00001224       $pdata$dpiHandlePool__create 0000000180064224     dpiHandlePool.obj
 0004:00001230       $pdata$dpiLob__allocate    0000000180064230     dpiLob.obj
 0004:0000123c       $pdata$dpiLob__close       000000018006423c     dpiLob.obj
 0004:00001248       $pdata$dpiLob__free        0000000180064248     dpiLob.obj
 0004:00001254       $pdata$dpiLob__readBytes   0000000180064254     dpiLob.obj
 0004:00001260       $pdata$dpiLob_close        0000000180064260     dpiLob.obj
 0004:0000126c       $pdata$0$dpiLob_close      000000018006426c     dpiLob.obj
 0004:00001278       $pdata$1$dpiLob_close      0000000180064278     dpiLob.obj
 0004:00001284       $pdata$dpiLob_copy         0000000180064284     dpiLob.obj
 0004:00001290       $pdata$0$dpiLob_copy       0000000180064290     dpiLob.obj
 0004:0000129c       $pdata$2$dpiLob_copy       000000018006429c     dpiLob.obj
 0004:000012a8       $pdata$3$dpiLob_copy       00000001800642a8     dpiLob.obj
 0004:000012b4       $pdata$dpiLob_getBufferSize 00000001800642b4     dpiLob.obj
 0004:000012c0       $pdata$dpiLob_getChunkSize 00000001800642c0     dpiLob.obj
 0004:000012cc       $pdata$0$dpiLob_getChunkSize 00000001800642cc     dpiLob.obj
 0004:000012d8       $pdata$1$dpiLob_getChunkSize 00000001800642d8     dpiLob.obj
 0004:000012e4       $pdata$dpiLob_getSize      00000001800642e4     dpiLob.obj
 0004:000012f0       $pdata$0$dpiLob_getSize    00000001800642f0     dpiLob.obj
 0004:000012fc       $pdata$1$dpiLob_getSize    00000001800642fc     dpiLob.obj
 0004:00001308       $pdata$dpiLob_readBytes    0000000180064308     dpiLob.obj
 0004:00001314       $pdata$dpiLob_writeBytes   0000000180064314     dpiLob.obj
 0004:00001320       $pdata$dpiMsgProps__free   0000000180064320     dpiMsgProps.obj
 0004:0000132c       $pdata$dpiObjectAttr__free 000000018006432c     dpiObjectAttr.obj
 0004:00001338       $pdata$dpiObject__allocate 0000000180064338     dpiObject.obj
 0004:00001344       $pdata$dpiObject__free     0000000180064344     dpiObject.obj
 0004:00001350       $pdata$dpiObjectType__allocate 0000000180064350     dpiObjectType.obj
 0004:0000135c       $pdata$dpiObjectType__describe 000000018006435c     dpiObjectType.obj
 0004:00001368       $pdata$dpiObjectType__free 0000000180064368     dpiObjectType.obj
 0004:00001374       $pdata$dpiObjectType__init 0000000180064374     dpiObjectType.obj
 0004:00001380       $pdata$snprintf            0000000180064380     dpiOci.obj
 0004:0000138c       $pdata$dpiOci__allocateMem 000000018006438c     dpiOci.obj
 0004:00001398       $pdata$dpiOci__arrayDescriptorAlloc 0000000180064398     dpiOci.obj
 0004:000013a4       $pdata$dpiOci__arrayDescriptorFree 00000001800643a4     dpiOci.obj
 0004:000013b0       $pdata$dpiOci__bindByName  00000001800643b0     dpiOci.obj
 0004:000013bc       $pdata$3$dpiOci__bindByName 00000001800643bc     dpiOci.obj
 0004:000013c8       $pdata$5$dpiOci__bindByName 00000001800643c8     dpiOci.obj
 0004:000013d4       $pdata$dpiOci__bindByName2 00000001800643d4     dpiOci.obj
 0004:000013e0       $pdata$3$dpiOci__bindByName2 00000001800643e0     dpiOci.obj
 0004:000013ec       $pdata$5$dpiOci__bindByName2 00000001800643ec     dpiOci.obj
 0004:000013f8       $pdata$dpiOci__bindByPos   00000001800643f8     dpiOci.obj
 0004:00001404       $pdata$2$dpiOci__bindByPos 0000000180064404     dpiOci.obj
 0004:00001410       $pdata$4$dpiOci__bindByPos 0000000180064410     dpiOci.obj
 0004:0000141c       $pdata$dpiOci__bindByPos2  000000018006441c     dpiOci.obj
 0004:00001428       $pdata$2$dpiOci__bindByPos2 0000000180064428     dpiOci.obj
 0004:00001434       $pdata$4$dpiOci__bindByPos2 0000000180064434     dpiOci.obj
 0004:00001440       $pdata$dpiOci__bindDynamic 0000000180064440     dpiOci.obj
 0004:0000144c       $pdata$dpiOci__bindObject  000000018006444c     dpiOci.obj
 0004:00001458       $pdata$dpiOci__contextGetValue 0000000180064458     dpiOci.obj
 0004:00001464       $pdata$dpiOci__contextSetValue 0000000180064464     dpiOci.obj
 0004:00001470       $pdata$dpiOci__dateTimeConstruct 0000000180064470     dpiOci.obj
 0004:0000147c       $pdata$dpiOci__dateTimeGetDate 000000018006447c     dpiOci.obj
 0004:00001488       $pdata$dpiOci__dateTimeGetTime 0000000180064488     dpiOci.obj
 0004:00001494       $pdata$dpiOci__dateTimeGetTimeZoneOffset 0000000180064494     dpiOci.obj
 0004:000014a0       $pdata$dpiOci__dateTimeIntervalAdd 00000001800644a0     dpiOci.obj
 0004:000014ac       $pdata$dpiOci__dateTimeSubtract 00000001800644ac     dpiOci.obj
 0004:000014b8       $pdata$dpiOci__defineByPos 00000001800644b8     dpiOci.obj
 0004:000014c4       $pdata$0$dpiOci__defineByPos 00000001800644c4     dpiOci.obj
 0004:000014d0       $pdata$1$dpiOci__defineByPos 00000001800644d0     dpiOci.obj
 0004:000014dc       $pdata$2$dpiOci__defineByPos 00000001800644dc     dpiOci.obj
 0004:000014e8       $pdata$dpiOci__defineByPos2 00000001800644e8     dpiOci.obj
 0004:000014f4       $pdata$0$dpiOci__defineByPos2 00000001800644f4     dpiOci.obj
 0004:00001500       $pdata$1$dpiOci__defineByPos2 0000000180064500     dpiOci.obj
 0004:0000150c       $pdata$2$dpiOci__defineByPos2 000000018006450c     dpiOci.obj
 0004:00001518       $pdata$dpiOci__defineObject 0000000180064518     dpiOci.obj
 0004:00001524       $pdata$dpiOci__describeAny 0000000180064524     dpiOci.obj
 0004:00001530       $pdata$dpiOci__descriptorAlloc 0000000180064530     dpiOci.obj
 0004:0000153c       $pdata$dpiOci__descriptorFree 000000018006453c     dpiOci.obj
 0004:00001548       $pdata$dpiOci__envNlsCreate 0000000180064548     dpiOci.obj
 0004:00001554       $pdata$dpiOci__errorGet    0000000180064554     dpiOci.obj
 0004:00001560       $pdata$dpiOci__freeMem     0000000180064560     dpiOci.obj
 0004:0000156c       $pdata$dpiOci__handleAlloc 000000018006456c     dpiOci.obj
 0004:00001578       $pdata$dpiOci__handleFree  0000000180064578     dpiOci.obj
 0004:00001584       $pdata$dpiOci__intervalGetDaySecond 0000000180064584     dpiOci.obj
 0004:00001590       $pdata$dpiOci__intervalGetYearMonth 0000000180064590     dpiOci.obj
 0004:0000159c       $pdata$dpiOci__intervalSetDaySecond 000000018006459c     dpiOci.obj
 0004:000015a8       $pdata$dpiOci__intervalSetYearMonth 00000001800645a8     dpiOci.obj
 0004:000015b4       $pdata$dpiOci__findAndCheckDllArchitecture 00000001800645b4     dpiOci.obj
 0004:000015c0       $pdata$dpiOci__getLoadErrorOnWindows 00000001800645c0     dpiOci.obj
 0004:000015cc       $pdata$0$dpiOci__getLoadErrorOnWindows 00000001800645cc     dpiOci.obj
 0004:000015d8       $pdata$1$dpiOci__getLoadErrorOnWindows 00000001800645d8     dpiOci.obj
 0004:000015e4       $pdata$dpiOci__loadLib     00000001800645e4     dpiOci.obj
 0004:000015f0       $pdata$dpiOci__loadLibValidate 00000001800645f0     dpiOci.obj
 0004:000015fc       $pdata$dpiOci__loadSymbol  00000001800645fc     dpiOci.obj
 0004:00001608       $pdata$dpiOci__lobClose    0000000180064608     dpiOci.obj
 0004:00001614       $pdata$dpiOci__lobCreateTemporary 0000000180064614     dpiOci.obj
 0004:00001620       $pdata$dpiOci__lobFreeTemporary 0000000180064620     dpiOci.obj
 0004:0000162c       $pdata$dpiOci__lobGetChunkSize 000000018006462c     dpiOci.obj
 0004:00001638       $pdata$dpiOci__lobGetLength2 0000000180064638     dpiOci.obj
 0004:00001644       $pdata$dpiOci__lobIsOpen   0000000180064644     dpiOci.obj
 0004:00001650       $pdata$dpiOci__lobIsTemporary 0000000180064650     dpiOci.obj
 0004:0000165c       $pdata$dpiOci__lobOpen     000000018006465c     dpiOci.obj
 0004:00001668       $pdata$dpiOci__lobRead2    0000000180064668     dpiOci.obj
 0004:00001674       $pdata$dpiOci__lobTrim2    0000000180064674     dpiOci.obj
 0004:00001680       $pdata$dpiOci__lobWrite2   0000000180064680     dpiOci.obj
 0004:0000168c       $pdata$dpiOci__memoryAlloc 000000018006468c     dpiOci.obj
 0004:00001698       $pdata$dpiOci__memoryFree  0000000180064698     dpiOci.obj
 0004:000016a4       $pdata$dpiOci__nlsCharSetConvert 00000001800646a4     dpiOci.obj
 0004:000016b0       $pdata$dpiOci__nlsCharSetIdToName 00000001800646b0     dpiOci.obj
 0004:000016bc       $pdata$dpiOci__nlsCharSetNameToId 00000001800646bc     dpiOci.obj
 0004:000016c8       $pdata$dpiOci__nlsEnvironmentVariableGet 00000001800646c8     dpiOci.obj
 0004:000016d4       $pdata$dpiOci__nlsNameMap  00000001800646d4     dpiOci.obj
 0004:000016e0       $pdata$dpiOci__nlsNumericInfoGet 00000001800646e0     dpiOci.obj
 0004:000016ec       $pdata$dpiOci__numberFromInt 00000001800646ec     dpiOci.obj
 0004:000016f8       $pdata$dpiOci__numberFromReal 00000001800646f8     dpiOci.obj
 0004:00001704       $pdata$dpiOci__numberToInt 0000000180064704     dpiOci.obj
 0004:00001710       $pdata$dpiOci__numberToReal 0000000180064710     dpiOci.obj
 0004:0000171c       $pdata$dpiOci__objectFree  000000018006471c     dpiOci.obj
 0004:00001728       $pdata$dpiOci__objectGetInd 0000000180064728     dpiOci.obj
 0004:00001734       $pdata$dpiOci__objectNew   0000000180064734     dpiOci.obj
 0004:00001740       $pdata$dpiOci__objectPin   0000000180064740     dpiOci.obj
 0004:0000174c       $pdata$dpiOci__passwordChange 000000018006474c     dpiOci.obj
 0004:00001758       $pdata$dpiOci__ping        0000000180064758     dpiOci.obj
 0004:00001764       $pdata$dpiOci__reallocMem  0000000180064764     dpiOci.obj
 0004:00001770       $pdata$dpiOci__serverAttach 0000000180064770     dpiOci.obj
 0004:0000177c       $pdata$dpiOci__serverDetach 000000018006477c     dpiOci.obj
 0004:00001788       $pdata$dpiOci__sessionBegin 0000000180064788     dpiOci.obj
 0004:00001794       $pdata$dpiOci__sessionEnd  0000000180064794     dpiOci.obj
 0004:000017a0       $pdata$dpiOci__sessionGet  00000001800647a0     dpiOci.obj
 0004:000017ac       $pdata$dpiOci__sessionPoolCreate 00000001800647ac     dpiOci.obj
 0004:000017b8       $pdata$dpiOci__sessionRelease 00000001800647b8     dpiOci.obj
 0004:000017c4       $pdata$dpiOci__shardingKeyColumnAdd 00000001800647c4     dpiOci.obj
 0004:000017d0       $pdata$dpiOci__stmtExecute 00000001800647d0     dpiOci.obj
 0004:000017dc       $pdata$dpiOci__stmtFetch2  00000001800647dc     dpiOci.obj
 0004:000017e8       $pdata$dpiOci__stmtPrepare2 00000001800647e8     dpiOci.obj
 0004:000017f4       $pdata$dpiOci__stmtRelease 00000001800647f4     dpiOci.obj
 0004:00001800       $pdata$dpiOci__subscriptionUnRegister 0000000180064800     dpiOci.obj
 0004:0000180c       $pdata$dpiOci__threadKeyDestroy 000000018006480c     dpiOci.obj
 0004:00001818       $pdata$dpiOci__threadKeyInit 0000000180064818     dpiOci.obj
 0004:00001824       $pdata$dpiOci__threadKeySet 0000000180064824     dpiOci.obj
 0004:00001830       $pdata$dpiOci__transCommit 0000000180064830     dpiOci.obj
 0004:0000183c       $pdata$dpiOci__transRollback 000000018006483c     dpiOci.obj
 0004:00001848       $pdata$dpiOracleType__getFromNum 0000000180064848     dpiOracleType.obj
 0004:00001854       $pdata$dpiOracleType__populateTypeInfo 0000000180064854     dpiOracleType.obj
 0004:00001860       $pdata$0$dpiOracleType__populateTypeInfo 0000000180064860     dpiOracleType.obj
 0004:0000186c       $pdata$dpiPool__acquireConnection 000000018006486c     dpiPool.obj
 0004:00001878       $pdata$dpiPool__create     0000000180064878     dpiPool.obj
 0004:00001884       $pdata$1$dpiPool__create   0000000180064884     dpiPool.obj
 0004:00001890       $pdata$2$dpiPool__create   0000000180064890     dpiPool.obj
 0004:0000189c       $pdata$dpiPool__free       000000018006489c     dpiPool.obj
 0004:000018a8       $pdata$dpiPool__getAttributeUint 00000001800648a8     dpiPool.obj
 0004:000018b4       $pdata$0$dpiPool__getAttributeUint 00000001800648b4     dpiPool.obj
 0004:000018c0       $pdata$1$dpiPool__getAttributeUint 00000001800648c0     dpiPool.obj
 0004:000018cc       $pdata$dpiPool__setAttributeUint 00000001800648cc     dpiPool.obj
 0004:000018d8       $pdata$0$dpiPool__setAttributeUint 00000001800648d8     dpiPool.obj
 0004:000018e4       $pdata$1$dpiPool__setAttributeUint 00000001800648e4     dpiPool.obj
 0004:000018f0       $pdata$dpiPool_acquireConnection 00000001800648f0     dpiPool.obj
 0004:000018fc       $pdata$0$dpiPool_acquireConnection 00000001800648fc     dpiPool.obj
 0004:00001908       $pdata$1$dpiPool_acquireConnection 0000000180064908     dpiPool.obj
 0004:00001914       $pdata$2$dpiPool_acquireConnection 0000000180064914     dpiPool.obj
 0004:00001920       $pdata$3$dpiPool_acquireConnection 0000000180064920     dpiPool.obj
 0004:0000192c       $pdata$dpiPool_close       000000018006492c     dpiPool.obj
 0004:00001938       $pdata$0$dpiPool_close     0000000180064938     dpiPool.obj
 0004:00001944       $pdata$1$dpiPool_close     0000000180064944     dpiPool.obj
 0004:00001950       $pdata$dpiPool_create      0000000180064950     dpiPool.obj
 0004:0000195c       $pdata$1$dpiPool_create    000000018006495c     dpiPool.obj
 0004:00001968       $pdata$2$dpiPool_create    0000000180064968     dpiPool.obj
 0004:00001974       $pdata$3$dpiPool_create    0000000180064974     dpiPool.obj
 0004:00001980       $pdata$4$dpiPool_create    0000000180064980     dpiPool.obj
 0004:0000198c       $pdata$5$dpiPool_create    000000018006498c     dpiPool.obj
 0004:00001998       $pdata$6$dpiPool_create    0000000180064998     dpiPool.obj
 0004:000019a4       $pdata$dpiRowid__allocate  00000001800649a4     dpiRowid.obj
 0004:000019b0       $pdata$dpiRowid__free      00000001800649b0     dpiRowid.obj
 0004:000019bc       $pdata$dpiRowid_getStringValue 00000001800649bc     dpiRowid.obj
 0004:000019c8       $pdata$3$dpiRowid_getStringValue 00000001800649c8     dpiRowid.obj
 0004:000019d4       $pdata$4$dpiRowid_getStringValue 00000001800649d4     dpiRowid.obj
 0004:000019e0       $pdata$5$dpiRowid_getStringValue 00000001800649e0     dpiRowid.obj
 0004:000019ec       $pdata$6$dpiRowid_getStringValue 00000001800649ec     dpiRowid.obj
 0004:000019f8       $pdata$dpiStmt__bind       00000001800649f8     dpiStmt.obj
 0004:00001a04       $pdata$dpiStmt__clearBatchErrors 0000000180064a04     dpiStmt.obj
 0004:00001a10       $pdata$dpiStmt__clearBindVars 0000000180064a10     dpiStmt.obj
 0004:00001a1c       $pdata$1$dpiStmt__clearBindVars 0000000180064a1c     dpiStmt.obj
 0004:00001a28       $pdata$2$dpiStmt__clearBindVars 0000000180064a28     dpiStmt.obj
 0004:00001a34       $pdata$3$dpiStmt__clearBindVars 0000000180064a34     dpiStmt.obj
 0004:00001a40       $pdata$dpiStmt__clearQueryVars 0000000180064a40     dpiStmt.obj
 0004:00001a4c       $pdata$0$dpiStmt__clearQueryVars 0000000180064a4c     dpiStmt.obj
 0004:00001a58       $pdata$1$dpiStmt__clearQueryVars 0000000180064a58     dpiStmt.obj
 0004:00001a64       $pdata$2$dpiStmt__clearQueryVars 0000000180064a64     dpiStmt.obj
 0004:00001a70       $pdata$3$dpiStmt__clearQueryVars 0000000180064a70     dpiStmt.obj
 0004:00001a7c       $pdata$dpiStmt__close      0000000180064a7c     dpiStmt.obj
 0004:00001a88       $pdata$0$dpiStmt__close    0000000180064a88     dpiStmt.obj
 0004:00001a94       $pdata$1$dpiStmt__close    0000000180064a94     dpiStmt.obj
 0004:00001aa0       $pdata$dpiStmt__createQueryVars 0000000180064aa0     dpiStmt.obj
 0004:00001aac       $pdata$0$dpiStmt__createQueryVars 0000000180064aac     dpiStmt.obj
 0004:00001ab8       $pdata$2$dpiStmt__createQueryVars 0000000180064ab8     dpiStmt.obj
 0004:00001ac4       $pdata$4$dpiStmt__createQueryVars 0000000180064ac4     dpiStmt.obj
 0004:00001ad0       $pdata$dpiStmt__define     0000000180064ad0     dpiStmt.obj
 0004:00001adc       $pdata$0$dpiStmt__define   0000000180064adc     dpiStmt.obj
 0004:00001ae8       $pdata$dpiStmt__execute    0000000180064ae8     dpiStmt.obj
 0004:00001af4       $pdata$dpiStmt__fetch      0000000180064af4     dpiStmt.obj
 0004:00001b00       $pdata$dpiStmt__free       0000000180064b00     dpiStmt.obj
 0004:00001b0c       $pdata$dpiStmt__getBatchErrors 0000000180064b0c     dpiStmt.obj
 0004:00001b18       $pdata$2$dpiStmt__getBatchErrors 0000000180064b18     dpiStmt.obj
 0004:00001b24       $pdata$3$dpiStmt__getBatchErrors 0000000180064b24     dpiStmt.obj
 0004:00001b30       $pdata$dpiStmt__getQueryInfo 0000000180064b30     dpiStmt.obj
 0004:00001b3c       $pdata$dpiStmt__getQueryInfoFromParam 0000000180064b3c     dpiStmt.obj
 0004:00001b48       $pdata$dpiStmt__init       0000000180064b48     dpiStmt.obj
 0004:00001b54       $pdata$dpiStmt__postFetch  0000000180064b54     dpiStmt.obj
 0004:00001b60       $pdata$dpiStmt__preFetch   0000000180064b60     dpiStmt.obj
 0004:00001b6c       $pdata$2$dpiStmt__preFetch 0000000180064b6c     dpiStmt.obj
 0004:00001b78       $pdata$4$dpiStmt__preFetch 0000000180064b78     dpiStmt.obj
 0004:00001b84       $pdata$dpiStmt__prepare    0000000180064b84     dpiStmt.obj
 0004:00001b90       $pdata$dpiStmt__reExecute  0000000180064b90     dpiStmt.obj
 0004:00001b9c       $pdata$dpiStmt_bindByName  0000000180064b9c     dpiStmt.obj
 0004:00001ba8       $pdata$dpiStmt_bindByPos   0000000180064ba8     dpiStmt.obj
 0004:00001bb4       $pdata$0$dpiStmt_bindByPos 0000000180064bb4     dpiStmt.obj
 0004:00001bc0       $pdata$1$dpiStmt_bindByPos 0000000180064bc0     dpiStmt.obj
 0004:00001bcc       $pdata$dpiStmt_close       0000000180064bcc     dpiStmt.obj
 0004:00001bd8       $pdata$0$dpiStmt_close     0000000180064bd8     dpiStmt.obj
 0004:00001be4       $pdata$1$dpiStmt_close     0000000180064be4     dpiStmt.obj
 0004:00001bf0       $pdata$dpiStmt_define      0000000180064bf0     dpiStmt.obj
 0004:00001bfc       $pdata$dpiStmt_execute     0000000180064bfc     dpiStmt.obj
 0004:00001c08       $pdata$dpiStmt_executeMany 0000000180064c08     dpiStmt.obj
 0004:00001c14       $pdata$dpiStmt_fetchRows   0000000180064c14     dpiStmt.obj
 0004:00001c20       $pdata$dpiStmt_getBatchErrorCount 0000000180064c20     dpiStmt.obj
 0004:00001c2c       $pdata$dpiStmt_getBatchErrors 0000000180064c2c     dpiStmt.obj
 0004:00001c38       $pdata$dpiStmt_getBindCount 0000000180064c38     dpiStmt.obj
 0004:00001c44       $pdata$0$dpiStmt_getBindCount 0000000180064c44     dpiStmt.obj
 0004:00001c50       $pdata$1$dpiStmt_getBindCount 0000000180064c50     dpiStmt.obj
 0004:00001c5c       $pdata$dpiStmt_getBindNames 0000000180064c5c     dpiStmt.obj
 0004:00001c68       $pdata$dpiStmt_getInfo     0000000180064c68     dpiStmt.obj
 0004:00001c74       $pdata$dpiStmt_getNumQueryColumns 0000000180064c74     dpiStmt.obj
 0004:00001c80       $pdata$dpiStmt_getQueryInfo 0000000180064c80     dpiStmt.obj
 0004:00001c8c       $pdata$dpiStmt_getRowCount 0000000180064c8c     dpiStmt.obj
 0004:00001c98       $pdata$dpiStmt_getRowCounts 0000000180064c98     dpiStmt.obj
 0004:00001ca4       $pdata$dpiStmt_setFetchArraySize 0000000180064ca4     dpiStmt.obj
 0004:00001cb0       $pdata$0$dpiStmt_setFetchArraySize 0000000180064cb0     dpiStmt.obj
 0004:00001cbc       $pdata$2$dpiStmt_setFetchArraySize 0000000180064cbc     dpiStmt.obj
 0004:00001cc8       $pdata$3$dpiStmt_setFetchArraySize 0000000180064cc8     dpiStmt.obj
 0004:00001cd4       $pdata$dpiSubscr__free     0000000180064cd4     dpiSubscr.obj
 0004:00001ce0       $pdata$dpiUtils__freeMemory 0000000180064ce0     dpiUtils.obj
 0004:00001cec       $pdata$dpiUtils__getAttrStringWithDup 0000000180064cec     dpiUtils.obj
 0004:00001cf8       $pdata$dpiUtils__parseNumberString 0000000180064cf8     dpiUtils.obj
 0004:00001d04       $pdata$2$dpiUtils__parseNumberString 0000000180064d04     dpiUtils.obj
 0004:00001d10       $pdata$3$dpiUtils__parseNumberString 0000000180064d10     dpiUtils.obj
 0004:00001d1c       $pdata$4$dpiUtils__parseNumberString 0000000180064d1c     dpiUtils.obj
 0004:00001d28       $pdata$5$dpiUtils__parseNumberString 0000000180064d28     dpiUtils.obj
 0004:00001d34       $pdata$6$dpiUtils__parseNumberString 0000000180064d34     dpiUtils.obj
 0004:00001d40       $pdata$7$dpiUtils__parseNumberString 0000000180064d40     dpiUtils.obj
 0004:00001d4c       $pdata$8$dpiUtils__parseNumberString 0000000180064d4c     dpiUtils.obj
 0004:00001d58       $pdata$dpiUtils__setAttributesFromCommonCreateParams 0000000180064d58     dpiUtils.obj
 0004:00001d64       $pdata$dpiVar__allocate    0000000180064d64     dpiVar.obj
 0004:00001d70       $pdata$0$dpiVar__allocate  0000000180064d70     dpiVar.obj
 0004:00001d7c       $pdata$1$dpiVar__allocate  0000000180064d7c     dpiVar.obj
 0004:00001d88       $pdata$2$dpiVar__allocate  0000000180064d88     dpiVar.obj
 0004:00001d94       $pdata$3$dpiVar__allocate  0000000180064d94     dpiVar.obj
 0004:00001da0       $pdata$5$dpiVar__allocate  0000000180064da0     dpiVar.obj
 0004:00001dac       $pdata$4$dpiVar__allocate  0000000180064dac     dpiVar.obj
 0004:00001db8       $pdata$6$dpiVar__allocate  0000000180064db8     dpiVar.obj
 0004:00001dc4       $pdata$7$dpiVar__allocate  0000000180064dc4     dpiVar.obj
 0004:00001dd0       $pdata$9$dpiVar__allocate  0000000180064dd0     dpiVar.obj
 0004:00001ddc       $pdata$10$dpiVar__allocate 0000000180064ddc     dpiVar.obj
 0004:00001de8       $pdata$dpiVar__allocateChunks 0000000180064de8     dpiVar.obj
 0004:00001df4       $pdata$dpiVar__allocateDynamicBytes 0000000180064df4     dpiVar.obj
 0004:00001e00       $pdata$dpiVar__convertToLob 0000000180064e00     dpiVar.obj
 0004:00001e0c       $pdata$2$dpiVar__convertToLob 0000000180064e0c     dpiVar.obj
 0004:00001e18       $pdata$4$dpiVar__convertToLob 0000000180064e18     dpiVar.obj
 0004:00001e24       $pdata$dpiVar__defineCallback 0000000180064e24     dpiVar.obj
 0004:00001e30       $pdata$dpiVar__extendedPreFetch 0000000180064e30     dpiVar.obj
 0004:00001e3c       $pdata$dpiVar__finalizeBuffer 0000000180064e3c     dpiVar.obj
 0004:00001e48       $pdata$1$dpiVar__finalizeBuffer 0000000180064e48     dpiVar.obj
 0004:00001e54       $pdata$2$dpiVar__finalizeBuffer 0000000180064e54     dpiVar.obj
 0004:00001e60       $pdata$3$dpiVar__finalizeBuffer 0000000180064e60     dpiVar.obj
 0004:00001e6c       $pdata$4$dpiVar__finalizeBuffer 0000000180064e6c     dpiVar.obj
 0004:00001e78       $pdata$5$dpiVar__finalizeBuffer 0000000180064e78     dpiVar.obj
 0004:00001e84       $pdata$6$dpiVar__finalizeBuffer 0000000180064e84     dpiVar.obj
 0004:00001e90       $pdata$dpiVar__free        0000000180064e90     dpiVar.obj
 0004:00001e9c       $pdata$0$dpiVar__free      0000000180064e9c     dpiVar.obj
 0004:00001ea8       $pdata$1$dpiVar__free      0000000180064ea8     dpiVar.obj
 0004:00001eb4       $pdata$2$dpiVar__free      0000000180064eb4     dpiVar.obj
 0004:00001ec0       $pdata$3$dpiVar__free      0000000180064ec0     dpiVar.obj
 0004:00001ecc       $pdata$4$dpiVar__free      0000000180064ecc     dpiVar.obj
 0004:00001ed8       $pdata$5$dpiVar__free      0000000180064ed8     dpiVar.obj
 0004:00001ee4       $pdata$dpiVar__getValue    0000000180064ee4     dpiVar.obj
 0004:00001ef0       $pdata$0$dpiVar__getValue  0000000180064ef0     dpiVar.obj
 0004:00001efc       $pdata$2$dpiVar__getValue  0000000180064efc     dpiVar.obj
 0004:00001f08       $pdata$4$dpiVar__getValue  0000000180064f08     dpiVar.obj
 0004:00001f14       $pdata$6$dpiVar__getValue  0000000180064f14     dpiVar.obj
 0004:00001f20       $pdata$8$dpiVar__getValue  0000000180064f20     dpiVar.obj
 0004:00001f2c       $pdata$10$dpiVar__getValue 0000000180064f2c     dpiVar.obj
 0004:00001f38       $pdata$12$dpiVar__getValue 0000000180064f38     dpiVar.obj
 0004:00001f44       $pdata$14$dpiVar__getValue 0000000180064f44     dpiVar.obj
 0004:00001f50       $pdata$16$dpiVar__getValue 0000000180064f50     dpiVar.obj
 0004:00001f5c       $pdata$18$dpiVar__getValue 0000000180064f5c     dpiVar.obj
 0004:00001f68       $pdata$20$dpiVar__getValue 0000000180064f68     dpiVar.obj
 0004:00001f74       $pdata$22$dpiVar__getValue 0000000180064f74     dpiVar.obj
 0004:00001f80       $pdata$24$dpiVar__getValue 0000000180064f80     dpiVar.obj
 0004:00001f8c       $pdata$26$dpiVar__getValue 0000000180064f8c     dpiVar.obj
 0004:00001f98       $pdata$28$dpiVar__getValue 0000000180064f98     dpiVar.obj
 0004:00001fa4       $pdata$30$dpiVar__getValue 0000000180064fa4     dpiVar.obj
 0004:00001fb0       $pdata$32$dpiVar__getValue 0000000180064fb0     dpiVar.obj
 0004:00001fbc       $pdata$34$dpiVar__getValue 0000000180064fbc     dpiVar.obj
 0004:00001fc8       $pdata$35$dpiVar__getValue 0000000180064fc8     dpiVar.obj
 0004:00001fd4       $pdata$dpiVar__initBuffer  0000000180064fd4     dpiVar.obj
 0004:00001fe0       $pdata$0$dpiVar__initBuffer 0000000180064fe0     dpiVar.obj
 0004:00001fec       $pdata$1$dpiVar__initBuffer 0000000180064fec     dpiVar.obj
 0004:00001ff8       $pdata$dpiVar__outBindCallback 0000000180064ff8     dpiVar.obj
 0004:00002004       $pdata$dpiVar__setBytesFromDynamicBytes 0000000180065004     dpiVar.obj
 0004:00002010       $pdata$3$dpiVar__setBytesFromDynamicBytes 0000000180065010     dpiVar.obj
 0004:0000201c       $pdata$4$dpiVar__setBytesFromDynamicBytes 000000018006501c     dpiVar.obj
 0004:00002028       $pdata$dpiVar__setBytesFromLob 0000000180065028     dpiVar.obj
 0004:00002034       $pdata$0$dpiVar__setBytesFromLob 0000000180065034     dpiVar.obj
 0004:00002040       $pdata$1$dpiVar__setBytesFromLob 0000000180065040     dpiVar.obj
 0004:0000204c       $pdata$dpiVar__setFromBytes 000000018006504c     dpiVar.obj
 0004:00002058       $pdata$0$dpiVar__setFromBytes 0000000180065058     dpiVar.obj
 0004:00002064       $pdata$2$dpiVar__setFromBytes 0000000180065064     dpiVar.obj
 0004:00002070       $pdata$3$dpiVar__setFromBytes 0000000180065070     dpiVar.obj
 0004:0000207c       $pdata$dpiVar__setFromLob  000000018006507c     dpiVar.obj
 0004:00002088       $pdata$0$dpiVar__setFromLob 0000000180065088     dpiVar.obj
 0004:00002094       $pdata$1$dpiVar__setFromLob 0000000180065094     dpiVar.obj
 0004:000020a0       $pdata$dpiVar__setValue    00000001800650a0     dpiVar.obj
 0004:000020ac       $pdata$2$dpiVar__setValue  00000001800650ac     dpiVar.obj
 0004:000020b8       $pdata$4$dpiVar__setValue  00000001800650b8     dpiVar.obj
 0004:000020c4       $pdata$5$dpiVar__setValue  00000001800650c4     dpiVar.obj
 0004:000020d0       $pdata$dpiVar_getNumElementsInArray 00000001800650d0     dpiVar.obj
 0004:000020dc       $pdata$dpiVar_getReturnedData 00000001800650dc     dpiVar.obj
 0004:000020e8       $pdata$dpiVar_setFromBytes 00000001800650e8     dpiVar.obj
 0004:000020f4       $pdata$dpiVar_setFromLob   00000001800650f4     dpiVar.obj
 0004:00002100       $pdata$0$dpiVar_setFromLob 0000000180065100     dpiVar.obj
 0004:0000210c       $pdata$1$dpiVar_setFromLob 000000018006510c     dpiVar.obj
 0004:00002118       $pdata$dpiVar_setNumElementsInArray 0000000180065118     dpiVar.obj
 0004:00002124       $pdata$?load_exe_hook@@YAP6A_JXZIPEAUDelayLoadInfo@@@Z 0000000180065124     win_delay_load_hook.obj
 0004:0000213c       $pdata$??0bad_alloc@std@@QEAA@AEBV01@@Z 000000018006513c     libcpmt:xthrow.obj
 0004:00002148       $pdata$??0exception@std@@QEAA@AEBV01@@Z 0000000180065148     libcpmt:xthrow.obj
 0004:00002154       $pdata$??0length_error@std@@QEAA@AEBV01@@Z 0000000180065154     libcpmt:xthrow.obj
 0004:00002160       $pdata$??0length_error@std@@QEAA@PEBD@Z 0000000180065160     libcpmt:xthrow.obj
 0004:0000216c       $pdata$??0logic_error@std@@QEAA@AEBV01@@Z 000000018006516c     libcpmt:xthrow.obj
 0004:00002178       $pdata$??0out_of_range@std@@QEAA@AEBV01@@Z 0000000180065178     libcpmt:xthrow.obj
 0004:00002184       $pdata$??0out_of_range@std@@QEAA@PEBD@Z 0000000180065184     libcpmt:xthrow.obj
 0004:00002190       $pdata$??_Glength_error@std@@UEAAPEAXI@Z 0000000180065190     libcpmt:xthrow.obj
 0004:00002190       $pdata$??_Gexception@std@@UEAAPEAXI@Z 0000000180065190     libcpmt:xthrow.obj
 0004:00002190       $pdata$??_Gbad_alloc@std@@UEAAPEAXI@Z 0000000180065190     libcpmt:xthrow.obj
 0004:00002190       $pdata$??_Glogic_error@std@@UEAAPEAXI@Z 0000000180065190     libcpmt:xthrow.obj
 0004:00002190       $pdata$??_Gout_of_range@std@@UEAAPEAXI@Z 0000000180065190     libcpmt:xthrow.obj
 0004:00002190       $pdata$??_Gbad_exception@std@@UEAAPEAXI@Z 0000000180065190     libvcruntime:frame.obj
 0004:00002190       $pdata$??_Gbad_array_new_length@std@@UEAAPEAXI@Z 0000000180065190     LIBCMT:throw_bad_alloc.obj
 0004:0000219c       $pdata$?_Xlength_error@std@@YAXPEBD@Z 000000018006519c     libcpmt:xthrow.obj
 0004:000021a8       $pdata$?_Xout_of_range@std@@YAXPEBD@Z 00000001800651a8     libcpmt:xthrow.obj
 0004:000021c0       $pdata$??2@YAPEAX_K@Z      00000001800651c0     LIBCMT:new_scalar.obj
 0004:000021cc       $pdata$??_M@YAXPEAX_K1P6AX0@Z@Z 00000001800651cc     LIBCMT:ehvecdtr.obj
 0004:000021d8       $pdata$?__ArrayUnwind@@YAXPEAX_K1P6AX0@Z@Z 00000001800651d8     LIBCMT:ehvecdtr.obj
 0004:000021e4       $pdata$__scrt_acquire_startup_lock 00000001800651e4     LIBCMT:utility.obj
 0004:000021f0       $pdata$__scrt_dllmain_after_initialize_c 00000001800651f0     LIBCMT:utility.obj
 0004:000021fc       $pdata$__scrt_dllmain_before_initialize_c 00000001800651fc     LIBCMT:utility.obj
 0004:00002208       $pdata$__scrt_dllmain_crt_thread_attach 0000000180065208     LIBCMT:utility.obj
 0004:00002214       $pdata$__scrt_dllmain_crt_thread_detach 0000000180065214     LIBCMT:utility.obj
 0004:00002220       $pdata$__scrt_dllmain_exception_filter 0000000180065220     LIBCMT:utility.obj
 0004:0000222c       $pdata$__scrt_dllmain_uninitialize_c 000000018006522c     LIBCMT:utility.obj
 0004:00002238       $pdata$__scrt_dllmain_uninitialize_critical 0000000180065238     LIBCMT:utility.obj
 0004:00002244       $pdata$__scrt_initialize_crt 0000000180065244     LIBCMT:utility.obj
 0004:00002250       $pdata$__scrt_initialize_onexit_tables 0000000180065250     LIBCMT:utility.obj
 0004:0000225c       $pdata$__scrt_is_nonwritable_in_current_image 000000018006525c     LIBCMT:utility.obj
 0004:00002268       $pdata$__scrt_release_startup_lock 0000000180065268     LIBCMT:utility.obj
 0004:00002274       $pdata$__scrt_uninitialize_crt 0000000180065274     LIBCMT:utility.obj
 0004:00002280       $pdata$_onexit             0000000180065280     LIBCMT:utility.obj
 0004:0000228c       $pdata$atexit              000000018006528c     LIBCMT:utility.obj
 0004:00002298       $pdata$??_L@YAXPEAX_K1P6AX0@Z2@Z 0000000180065298     LIBCMT:ehvecctr.obj
 0004:000022a4       $pdata$__raise_securityfailure 00000001800652a4     LIBCMT:gs_report.obj
 0004:000022b0       $pdata$__report_gsfailure  00000001800652b0     LIBCMT:gs_report.obj
 0004:000022bc       $pdata$__report_rangecheckfailure 00000001800652bc     LIBCMT:gs_report.obj
 0004:000022c8       $pdata$__report_securityfailure 00000001800652c8     LIBCMT:gs_report.obj
 0004:000022d4       $pdata$capture_current_context 00000001800652d4     LIBCMT:gs_report.obj
 0004:000022e0       $pdata$capture_previous_context 00000001800652e0     LIBCMT:gs_report.obj
 0004:000022ec       $pdata$?dllmain_crt_dispatch@@YAHQEAUHINSTANCE__@@KQEAX@Z 00000001800652ec     LIBCMT:dll_dllmain.obj
 0004:000022f8       $pdata$?dllmain_crt_process_attach@@YAHQEAUHINSTANCE__@@QEAX@Z 00000001800652f8     LIBCMT:dll_dllmain.obj
 0004:00002304       $pdata$?dllmain_crt_process_detach@@YAH_N@Z 0000000180065304     LIBCMT:dll_dllmain.obj
 0004:00002310       $pdata$?dllmain_dispatch@@YAHQEAUHINSTANCE__@@KQEAX@Z 0000000180065310     LIBCMT:dll_dllmain.obj
 0004:0000231c       $pdata$?dllmain_raw@@YAHQEAUHINSTANCE__@@KQEAX@Z 000000018006531c     LIBCMT:dll_dllmain.obj
 0004:00002328       $pdata$_DllMainCRTStartup  0000000180065328     LIBCMT:dll_dllmain.obj
 0004:00002334       $pdata$??_Gtype_info@@UEAAPEAXI@Z 0000000180065334     LIBCMT:std_type_info_static.obj
 0004:00002340       $pdata$??0bad_array_new_length@std@@QEAA@AEBV01@@Z 0000000180065340     LIBCMT:throw_bad_alloc.obj
 0004:0000234c       $pdata$?_Xbad_alloc@std@@YAXXZ 000000018006534c     libcpmt:xthrow.obj
 0004:0000234c       $pdata$?__scrt_throw_std_bad_alloc@@YAXXZ 000000018006534c     LIBCMT:throw_bad_alloc.obj
 0004:00002358       $pdata$?__scrt_throw_std_bad_array_new_length@@YAXXZ 0000000180065358     LIBCMT:throw_bad_alloc.obj
 0004:00002364       $pdata$__isa_available_init 0000000180065364     LIBCMT:_cpu_disp_.obj
 0004:00002370       $pdata$__scrt_fastfail     0000000180065370     LIBCMT:utility_desktop.obj
 0004:0000237c       $pdata$__security_init_cookie 000000018006537c     LIBCMT:gs_support.obj
 0004:00002388       $pdata$__scrt_initialize_default_local_stdio_options 0000000180065388     LIBCMT:default_local_stdio_options.obj
 0004:00002394       $pdata$_RTC_Initialize     0000000180065394     LIBCMT:_initsect_.obj
 0004:000023a0       $pdata$_RTC_Terminate      00000001800653a0     LIBCMT:_initsect_.obj
 0004:000023b8       $pdata$__DestructExceptionObject 00000001800653b8     libvcruntime:frame.obj
 0004:000023c4       $pdata$??0bad_exception@std@@QEAA@AEBV01@@Z 00000001800653c4     libvcruntime:frame.obj
 0004:000023d0       $pdata$?CatchIt@@YAXPEAUEHExceptionRecord@@PEA_KPEAU_CONTEXT@@PEAU_xDISPATCHER_CONTEXT@@PEBU_s_FuncInfo@@PEBU_s_HandlerType@@PEBU_s_CatchableType@@PEBU_s_TryBlockMapEntry@@H1EE@Z 00000001800653d0     libvcruntime:frame.obj
 0004:000023dc       $pdata$?ExFilterRethrow@@YAHPEAU_EXCEPTION_POINTERS@@PEAUEHExceptionRecord@@PEAH@Z 00000001800653dc     libvcruntime:frame.obj
 0004:000023e8       $pdata$?FindHandler@@YAXPEAUEHExceptionRecord@@PEA_KPEAU_CONTEXT@@PEAU_xDISPATCHER_CONTEXT@@PEBU_s_FuncInfo@@EH1@Z 00000001800653e8     libvcruntime:frame.obj
 0004:000023f4       $pdata$?FindHandlerForForeignException@@YAXPEAUEHExceptionRecord@@PEA_KPEAU_CONTEXT@@PEAU_xDISPATCHER_CONTEXT@@PEBU_s_FuncInfo@@HH1@Z 00000001800653f4     libvcruntime:frame.obj
 0004:00002400       $pdata$?IsInExceptionSpec@@YAEPEAUEHExceptionRecord@@PEBU_s_ESTypeList@@@Z 0000000180065400     libvcruntime:frame.obj
 0004:0000240c       $pdata$__BuildCatchObject  000000018006540c     libvcruntime:frame.obj
 0004:00002418       $pdata$__BuildCatchObjectHelper 0000000180065418     libvcruntime:frame.obj
 0004:00002424       $pdata$__CxxCallCatchBlock 0000000180065424     libvcruntime:frame.obj
 0004:00002430       $pdata$__FrameUnwindFilter 0000000180065430     libvcruntime:frame.obj
 0004:0000243c       $pdata$__FrameUnwindToState 000000018006543c     libvcruntime:frame.obj
 0004:00002448       $pdata$__InternalCxxFrameHandler 0000000180065448     libvcruntime:frame.obj
 0004:00002454       $pdata$__TypeMatch         0000000180065454     libvcruntime:frame.obj
 0004:00002460       $pdata$__std_terminate     0000000180065460     libvcruntime:frame.obj
 0004:0000246c       $pdata$strchr              000000018006546c     libvcruntime:strchr.obj
 0004:00002478       $pdata$strrchr             0000000180065478     libvcruntime:strrchr.obj
 0004:00002484       $pdata$__std_exception_copy 0000000180065484     libvcruntime:std_exception.obj
 0004:00002490       $pdata$__std_exception_destroy 0000000180065490     libvcruntime:std_exception.obj
 0004:0000249c       $pdata$_CxxThrowException  000000018006549c     libvcruntime:throw.obj
 0004:000024a8       $pdata$__C_specific_handler 00000001800654a8     libvcruntime:_chandler_.obj
 0004:000024b4       $pdata$__vcrt_initialize   00000001800654b4     libvcruntime:initialization.obj
 0004:000024c0       $pdata$__vcrt_thread_attach 00000001800654c0     libvcruntime:initialization.obj
 0004:000024cc       $pdata$__vcrt_thread_detach 00000001800654cc     libvcruntime:initialization.obj
 0004:000024d8       $pdata$__vcrt_uninitialize 00000001800654d8     libvcruntime:initialization.obj
 0004:000024e4       $pdata$__vcrt_uninitialize_critical 00000001800654e4     libvcruntime:initialization.obj
 0004:000024fc       $pdata$__std_type_info_destroy_list 00000001800654fc     libvcruntime:std_type_info.obj
 0004:00002508       $pdata$__vcrt_freefls      0000000180065508     libvcruntime:per_thread_data.obj
 0004:00002514       $pdata$__vcrt_freeptd      0000000180065514     libvcruntime:per_thread_data.obj
 0004:00002520       $pdata$__vcrt_getptd       0000000180065520     libvcruntime:per_thread_data.obj
 0004:0000252c       $pdata$__vcrt_getptd_noexit 000000018006552c     libvcruntime:per_thread_data.obj
 0004:00002538       $pdata$__vcrt_initialize_ptd 0000000180065538     libvcruntime:per_thread_data.obj
 0004:00002544       $pdata$__vcrt_uninitialize_ptd 0000000180065544     libvcruntime:per_thread_data.obj
 0004:00002550       $pdata$?__GetCurrentState@@YAHPEA_KPEAU_xDISPATCHER_CONTEXT@@PEBU_s_FuncInfo@@@Z 0000000180065550     libvcruntime:ehstate.obj
 0004:0000255c       $pdata$?__GetUnwindTryBlock@@YAHPEA_KPEAU_xDISPATCHER_CONTEXT@@PEBU_s_FuncInfo@@@Z 000000018006555c     libvcruntime:ehstate.obj
 0004:00002568       $pdata$?__SetUnwindTryBlock@@YAXPEA_KPEAU_xDISPATCHER_CONTEXT@@PEBU_s_FuncInfo@@H@Z 0000000180065568     libvcruntime:ehstate.obj
 0004:00002574       $pdata$?__StateFromIp@@YAHPEBU_s_FuncInfo@@PEAU_xDISPATCHER_CONTEXT@@_J@Z 0000000180065574     libvcruntime:ehstate.obj
 0004:0000258c       $pdata$?_ExecutionInCatch@@YAHPEAU_xDISPATCHER_CONTEXT@@PEBU_s_FuncInfo@@@Z 000000018006558c     libvcruntime:trnsctrl.obj
 0004:00002598       $pdata$?_GetEstablisherFrame@@YAPEA_KPEA_KPEAU_xDISPATCHER_CONTEXT@@PEBU_s_FuncInfo@@0@Z 0000000180065598     libvcruntime:trnsctrl.obj
 0004:000025a4       $pdata$?_GetRangeOfTrysToCheck@@YAPEBU_s_TryBlockMapEntry@@PEA_KPEBU_s_FuncInfo@@HHPEAI2PEAU_xDISPATCHER_CONTEXT@@@Z 00000001800655a4     libvcruntime:trnsctrl.obj
 0004:000025b0       $pdata$?__FrameUnwindToEmptyState@@YAXPEA_KPEAU_xDISPATCHER_CONTEXT@@PEBU_s_FuncInfo@@@Z 00000001800655b0     libvcruntime:trnsctrl.obj
 0004:000025bc       $pdata$?__SehTransFilter@@YAHPEAU_EXCEPTION_POINTERS@@PEAUEHExceptionRecord@@PEA_KPEAU_CONTEXT@@PEAU_xDISPATCHER_CONTEXT@@PEBU_s_FuncInfo@@PEAH@Z 00000001800655bc     libvcruntime:trnsctrl.obj
 0004:000025c8       $pdata$_CallSETranslator   00000001800655c8     libvcruntime:trnsctrl.obj
 0004:000025d4       $pdata$_CreateFrameInfo    00000001800655d4     libvcruntime:trnsctrl.obj
 0004:000025e0       $pdata$_FindAndUnlinkFrame 00000001800655e0     libvcruntime:trnsctrl.obj
 0004:000025ec       $pdata$_GetImageBase       00000001800655ec     libvcruntime:trnsctrl.obj
 0004:000025f8       $pdata$_GetThrowImageBase  00000001800655f8     libvcruntime:trnsctrl.obj
 0004:00002604       $pdata$_IsExceptionObjectToBeDestroyed 0000000180065604     libvcruntime:trnsctrl.obj
 0004:00002610       $pdata$_SetImageBase       0000000180065610     libvcruntime:trnsctrl.obj
 0004:0000261c       $pdata$_SetThrowImageBase  000000018006561c     libvcruntime:trnsctrl.obj
 0004:00002628       $pdata$_UnwindNestedFrames 0000000180065628     libvcruntime:trnsctrl.obj
 0004:00002634       $pdata$__CxxFrameHandler3  0000000180065634     libvcruntime:trnsctrl.obj
 0004:00002670       $pdata$__vcrt_initialize_locks 0000000180065670     libvcruntime:locks.obj
 0004:0000267c       $pdata$__vcrt_uninitialize_locks 000000018006567c     libvcruntime:locks.obj
 0004:00002688       $pdata$?try_get_function@@YAPEAXW4function_id@?A0x679b24ab@@QEBDQEBW4module_id@2@2@Z 0000000180065688     libvcruntime:winapi_downlevel.obj
 0004:00002694       $pdata$__vcrt_FlsAlloc     0000000180065694     libvcruntime:winapi_downlevel.obj
 0004:000026a0       $pdata$__vcrt_FlsFree      00000001800656a0     libvcruntime:winapi_downlevel.obj
 0004:000026ac       $pdata$__vcrt_FlsGetValue  00000001800656ac     libvcruntime:winapi_downlevel.obj
 0004:000026b8       $pdata$__vcrt_FlsSetValue  00000001800656b8     libvcruntime:winapi_downlevel.obj
 0004:000026c4       $pdata$__vcrt_InitializeCriticalSectionEx 00000001800656c4     libvcruntime:winapi_downlevel.obj
 0004:000026d0       $pdata$__vcrt_uninitialize_winapi_thunks 00000001800656d0     libvcruntime:winapi_downlevel.obj
 0004:000026dc       $pdata$??$common_assert_to_message_box@_W@@YAXQEB_W0IQEAX@Z 00000001800656dc     libucrt:assert.obj
 0004:000026e8       $pdata$??$common_assert_to_message_box_build_string@_W@@YAXQEA_W_KQEB_W2IQEAX@Z 00000001800656e8     libucrt:assert.obj
 0004:000026f4       $pdata$??$common_assert_to_stderr@_W@@YAXQEB_W0I@Z 00000001800656f4     libucrt:assert.obj
 0004:00002700       $pdata$_wassert            0000000180065700     libucrt:assert.obj
 0004:0000270c       $pdata$fwprintf            000000018006570c     libucrt:assert.obj
 0004:00002718       $pdata$swprintf            0000000180065718     libucrt:assert.obj
 0004:00002724       $pdata$__acrt_call_reportfault 0000000180065724     libucrt:invalid_parameter.obj
 0004:00002730       $pdata$_invalid_parameter  0000000180065730     libucrt:invalid_parameter.obj
 0004:0000273c       $pdata$_invalid_parameter_noinfo 000000018006573c     libucrt:invalid_parameter.obj
 0004:00002748       $pdata$_invalid_parameter_noinfo_noreturn 0000000180065748     libucrt:invalid_parameter.obj
 0004:00002754       $pdata$_invoke_watson      0000000180065754     libucrt:invalid_parameter.obj
 0004:00002760       $pdata$??$?RV<lambda_7b91131dde12e1c3dfc74ff76b3f2eac>@@AEAV<lambda_dd75445284c072d0bd3768540cc698fa>@@V<lambda_16bc4ecb55b4718497c16bceaea2ceaf>@@@?$__crt_seh_guarded_call@H@@QEAAH$$QEAV<lambda_7b91131dde12e1c3dfc74ff76b3f2eac>@@AEAV<lambda_dd75445284c072d0bd3768540cc698fa>@@$$QEAV<lambda_16bc4ecb55b4718497c16bceaea2ceaf>@@@Z 0000000180065760     libucrt:output.obj
 0004:0000276c       $pdata$??$?RV<lambda_aa279a7bcb127014629d5b1d62c7325d>@@AEAV<lambda_0a64b6a4deda75c01876f29c44fc5eb3>@@V<lambda_3323e69fbefe9d1a11713e670d47cdfa>@@@?$__crt_seh_guarded_call@H@@QEAAH$$QEAV<lambda_aa279a7bcb127014629d5b1d62c7325d>@@AEAV<lambda_0a64b6a4deda75c01876f29c44fc5eb3>@@$$QEAV<lambda_3323e69fbefe9d1a11713e670d47cdfa>@@@Z 000000018006576c     libucrt:output.obj
 0004:00002778       $pdata$??$ensure_buffer_is_big_enough@D@formatting_buffer@__crt_stdio_output@@QEAA_N_K@Z 0000000180065778     libucrt:output.obj
 0004:00002784       $pdata$??$type_case_integer_parse_into_buffer@I@?$output_processor@_WV?$stream_output_adapter@_W@__crt_stdio_output@@V?$standard_base@_WV?$stream_output_adapter@_W@__crt_stdio_output@@@2@@__crt_stdio_output@@AEAAXII_N@Z 0000000180065784     libucrt:output.obj
 0004:00002784       $pdata$??$type_case_integer_parse_into_buffer@I@?$output_processor@_WV?$string_output_adapter@_W@__crt_stdio_output@@V?$standard_base@_WV?$string_output_adapter@_W@__crt_stdio_output@@@2@@__crt_stdio_output@@AEAAXII_N@Z 0000000180065784     libucrt:output.obj
 0004:00002784       $pdata$??$type_case_integer_parse_into_buffer@I@?$output_processor@DV?$string_output_adapter@D@__crt_stdio_output@@V?$standard_base@DV?$string_output_adapter@D@__crt_stdio_output@@@2@@__crt_stdio_output@@AEAAXII_N@Z 0000000180065784     libucrt:output.obj
 0004:00002784       $pdata$??$type_case_integer_parse_into_buffer@I@?$output_processor@DV?$stream_output_adapter@D@__crt_stdio_output@@V?$standard_base@DV?$stream_output_adapter@D@__crt_stdio_output@@@2@@__crt_stdio_output@@AEAAXII_N@Z 0000000180065784     libucrt:output.obj
 0004:00002790       $pdata$??$type_case_integer_parse_into_buffer@_K@?$output_processor@DV?$string_output_adapter@D@__crt_stdio_output@@V?$standard_base@DV?$string_output_adapter@D@__crt_stdio_output@@@2@@__crt_stdio_output@@AEAAX_KI_N@Z 0000000180065790     libucrt:output.obj
 0004:00002790       $pdata$??$type_case_integer_parse_into_buffer@_K@?$output_processor@_WV?$string_output_adapter@_W@__crt_stdio_output@@V?$standard_base@_WV?$string_output_adapter@_W@__crt_stdio_output@@@2@@__crt_stdio_output@@AEAAX_KI_N@Z 0000000180065790     libucrt:output.obj
 0004:00002790       $pdata$??$type_case_integer_parse_into_buffer@_K@?$output_processor@_WV?$stream_output_adapter@_W@__crt_stdio_output@@V?$standard_base@_WV?$stream_output_adapter@_W@__crt_stdio_output@@@2@@__crt_stdio_output@@AEAAX_KI_N@Z 0000000180065790     libucrt:output.obj
 0004:00002790       $pdata$??$type_case_integer_parse_into_buffer@_K@?$output_processor@DV?$stream_output_adapter@D@__crt_stdio_output@@V?$standard_base@DV?$stream_output_adapter@D@__crt_stdio_output@@@2@@__crt_stdio_output@@AEAAX_KI_N@Z 0000000180065790     libucrt:output.obj
 0004:0000279c       $pdata$??$write_multiple_characters@V?$stream_output_adapter@D@__crt_stdio_output@@D@__crt_stdio_output@@YAXAEBV?$stream_output_adapter@D@0@DHQEAH@Z 000000018006579c     libucrt:output.obj
 0004:000027a8       $pdata$??$write_multiple_characters@V?$stream_output_adapter@_W@__crt_stdio_output@@D@__crt_stdio_output@@YAXAEBV?$stream_output_adapter@_W@0@DHQEAH@Z 00000001800657a8     libucrt:output.obj
 0004:000027b4       $pdata$??$write_multiple_characters@V?$string_output_adapter@D@__crt_stdio_output@@D@__crt_stdio_output@@YAXAEBV?$string_output_adapter@D@0@DHQEAH@Z 00000001800657b4     libucrt:output.obj
 0004:000027c0       $pdata$??$write_multiple_characters@V?$string_output_adapter@_W@__crt_stdio_output@@D@__crt_stdio_output@@YAXAEBV?$string_output_adapter@_W@0@DHQEAH@Z 00000001800657c0     libucrt:output.obj
 0004:000027cc       $pdata$??0?$output_processor@DV?$string_output_adapter@D@__crt_stdio_output@@V?$standard_base@DV?$string_output_adapter@D@__crt_stdio_output@@@2@@__crt_stdio_output@@QEAA@AEBV?$string_output_adapter@D@1@_KQEBDQEAU__crt_locale_pointers@@QEAD@Z 00000001800657cc     libucrt:output.obj
 0004:000027cc       $pdata$??0?$output_processor@DV?$stream_output_adapter@D@__crt_stdio_output@@V?$standard_base@DV?$stream_output_adapter@D@__crt_stdio_output@@@2@@__crt_stdio_output@@QEAA@AEBV?$stream_output_adapter@D@1@_KQEBDQEAU__crt_locale_pointers@@QEAD@Z 00000001800657cc     libucrt:output.obj
 0004:000027d8       $pdata$??0?$output_processor@_WV?$string_output_adapter@_W@__crt_stdio_output@@V?$standard_base@_WV?$string_output_adapter@_W@__crt_stdio_output@@@2@@__crt_stdio_output@@QEAA@AEBV?$string_output_adapter@_W@1@_KQEB_WQEAU__crt_locale_pointers@@QEAD@Z 00000001800657d8     libucrt:output.obj
 0004:000027d8       $pdata$??0?$output_processor@_WV?$stream_output_adapter@_W@__crt_stdio_output@@V?$standard_base@_WV?$stream_output_adapter@_W@__crt_stdio_output@@@2@@__crt_stdio_output@@QEAA@AEBV?$stream_output_adapter@_W@1@_KQEB_WQEAU__crt_locale_pointers@@QEAD@Z 00000001800657d8     libucrt:output.obj
 0004:000027e4       $pdata$??0_LocaleUpdate@@QEAA@QEAU__crt_locale_pointers@@@Z 00000001800657e4     libucrt:output.obj
 0004:000027f0       $pdata$??R<lambda_0a64b6a4deda75c01876f29c44fc5eb3>@@QEBAHXZ 00000001800657f0     libucrt:output.obj
 0004:000027fc       $pdata$??R<lambda_dd75445284c072d0bd3768540cc698fa>@@QEBAHXZ 00000001800657fc     libucrt:output.obj
 0004:00002808       $pdata$?force_decimal_point@__crt_stdio_output@@YAXPEADQEAU__crt_locale_pointers@@@Z 0000000180065808     libucrt:output.obj
 0004:00002814       $pdata$?parse_int_from_format_string@?$output_processor@DV?$string_output_adapter@D@__crt_stdio_output@@V?$standard_base@DV?$string_output_adapter@D@__crt_stdio_output@@@2@@__crt_stdio_output@@AEAA_NQEAH@Z 0000000180065814     libucrt:output.obj
 0004:00002814       $pdata$?parse_int_from_format_string@?$output_processor@DV?$stream_output_adapter@D@__crt_stdio_output@@V?$standard_base@DV?$stream_output_adapter@D@__crt_stdio_output@@@2@@__crt_stdio_output@@AEAA_NQEAH@Z 0000000180065814     libucrt:output.obj
 0004:00002820       $pdata$?parse_int_from_format_string@?$output_processor@_WV?$stream_output_adapter@_W@__crt_stdio_output@@V?$standard_base@_WV?$stream_output_adapter@_W@__crt_stdio_output@@@2@@__crt_stdio_output@@AEAA_NQEAH@Z 0000000180065820     libucrt:output.obj
 0004:00002820       $pdata$?parse_int_from_format_string@?$output_processor@_WV?$string_output_adapter@_W@__crt_stdio_output@@V?$standard_base@_WV?$string_output_adapter@_W@__crt_stdio_output@@@2@@__crt_stdio_output@@AEAA_NQEAH@Z 0000000180065820     libucrt:output.obj
 0004:0000282c       $pdata$?process@?$output_processor@DV?$stream_output_adapter@D@__crt_stdio_output@@V?$standard_base@DV?$stream_output_adapter@D@__crt_stdio_output@@@2@@__crt_stdio_output@@QEAAHXZ 000000018006582c     libucrt:output.obj
 0004:00002838       $pdata$?process@?$output_processor@DV?$string_output_adapter@D@__crt_stdio_output@@V?$standard_base@DV?$string_output_adapter@D@__crt_stdio_output@@@2@@__crt_stdio_output@@QEAAHXZ 0000000180065838     libucrt:output.obj
 0004:00002844       $pdata$?process@?$output_processor@_WV?$stream_output_adapter@_W@__crt_stdio_output@@V?$standard_base@_WV?$stream_output_adapter@_W@__crt_stdio_output@@@2@@__crt_stdio_output@@QEAAHXZ 0000000180065844     libucrt:output.obj
 0004:00002850       $pdata$?process@?$output_processor@_WV?$string_output_adapter@_W@__crt_stdio_output@@V?$standard_base@_WV?$string_output_adapter@_W@__crt_stdio_output@@@2@@__crt_stdio_output@@QEAAHXZ 0000000180065850     libucrt:output.obj
 0004:0000285c       $pdata$?state_case_normal@?$output_processor@DV?$stream_output_adapter@D@__crt_stdio_output@@V?$standard_base@DV?$stream_output_adapter@D@__crt_stdio_output@@@2@@__crt_stdio_output@@AEAA_NXZ 000000018006585c     libucrt:output.obj
 0004:00002868       $pdata$?state_case_normal@?$output_processor@DV?$string_output_adapter@D@__crt_stdio_output@@V?$standard_base@DV?$string_output_adapter@D@__crt_stdio_output@@@2@@__crt_stdio_output@@AEAA_NXZ 0000000180065868     libucrt:output.obj
 0004:00002874       $pdata$?state_case_normal_tchar@?$output_processor@DV?$stream_output_adapter@D@__crt_stdio_output@@V?$standard_base@DV?$stream_output_adapter@D@__crt_stdio_output@@@2@@__crt_stdio_output@@AEAA_ND@Z 0000000180065874     libucrt:output.obj
 0004:00002880       $pdata$?state_case_normal_tchar@?$output_processor@DV?$string_output_adapter@D@__crt_stdio_output@@V?$standard_base@DV?$string_output_adapter@D@__crt_stdio_output@@@2@@__crt_stdio_output@@AEAA_ND@Z 0000000180065880     libucrt:output.obj
 0004:0000288c       $pdata$?state_case_size@?$output_processor@DV?$stream_output_adapter@D@__crt_stdio_output@@V?$standard_base@DV?$stream_output_adapter@D@__crt_stdio_output@@@2@@__crt_stdio_output@@AEAA_NXZ 000000018006588c     libucrt:output.obj
 0004:00002898       $pdata$?state_case_size@?$output_processor@DV?$string_output_adapter@D@__crt_stdio_output@@V?$standard_base@DV?$string_output_adapter@D@__crt_stdio_output@@@2@@__crt_stdio_output@@AEAA_NXZ 0000000180065898     libucrt:output.obj
 0004:000028a4       $pdata$?state_case_size@?$output_processor@_WV?$stream_output_adapter@_W@__crt_stdio_output@@V?$standard_base@_WV?$stream_output_adapter@_W@__crt_stdio_output@@@2@@__crt_stdio_output@@AEAA_NXZ 00000001800658a4     libucrt:output.obj
 0004:000028b0       $pdata$?state_case_size@?$output_processor@_WV?$string_output_adapter@_W@__crt_stdio_output@@V?$standard_base@_WV?$string_output_adapter@_W@__crt_stdio_output@@@2@@__crt_stdio_output@@AEAA_NXZ 00000001800658b0     libucrt:output.obj
 0004:000028bc       $pdata$?state_case_type@?$output_processor@DV?$stream_output_adapter@D@__crt_stdio_output@@V?$standard_base@DV?$stream_output_adapter@D@__crt_stdio_output@@@2@@__crt_stdio_output@@AEAA_NXZ 00000001800658bc     libucrt:output.obj
 0004:000028c8       $pdata$?state_case_type@?$output_processor@DV?$string_output_adapter@D@__crt_stdio_output@@V?$standard_base@DV?$string_output_adapter@D@__crt_stdio_output@@@2@@__crt_stdio_output@@AEAA_NXZ 00000001800658c8     libucrt:output.obj
 0004:000028d4       $pdata$?state_case_type@?$output_processor@_WV?$stream_output_adapter@_W@__crt_stdio_output@@V?$standard_base@_WV?$stream_output_adapter@_W@__crt_stdio_output@@@2@@__crt_stdio_output@@AEAA_NXZ 00000001800658d4     libucrt:output.obj
 0004:000028e0       $pdata$?state_case_type@?$output_processor@_WV?$string_output_adapter@_W@__crt_stdio_output@@V?$standard_base@_WV?$string_output_adapter@_W@__crt_stdio_output@@@2@@__crt_stdio_output@@AEAA_NXZ 00000001800658e0     libucrt:output.obj
 0004:000028ec       $pdata$?type_case_Z@?$output_processor@DV?$string_output_adapter@D@__crt_stdio_output@@V?$standard_base@DV?$string_output_adapter@D@__crt_stdio_output@@@2@@__crt_stdio_output@@AEAA_NXZ 00000001800658ec     libucrt:output.obj
 0004:000028ec       $pdata$?type_case_Z@?$output_processor@DV?$stream_output_adapter@D@__crt_stdio_output@@V?$standard_base@DV?$stream_output_adapter@D@__crt_stdio_output@@@2@@__crt_stdio_output@@AEAA_NXZ 00000001800658ec     libucrt:output.obj
 0004:000028f8       $pdata$?type_case_Z@?$output_processor@_WV?$string_output_adapter@_W@__crt_stdio_output@@V?$standard_base@_WV?$string_output_adapter@_W@__crt_stdio_output@@@2@@__crt_stdio_output@@AEAA_NXZ 00000001800658f8     libucrt:output.obj
 0004:000028f8       $pdata$?type_case_Z@?$output_processor@_WV?$stream_output_adapter@_W@__crt_stdio_output@@V?$standard_base@_WV?$stream_output_adapter@_W@__crt_stdio_output@@@2@@__crt_stdio_output@@AEAA_NXZ 00000001800658f8     libucrt:output.obj
 0004:00002904       $pdata$?type_case_a@?$output_processor@DV?$stream_output_adapter@D@__crt_stdio_output@@V?$standard_base@DV?$stream_output_adapter@D@__crt_stdio_output@@@2@@__crt_stdio_output@@AEAA_NXZ 0000000180065904     libucrt:output.obj
 0004:00002904       $pdata$?type_case_a@?$output_processor@DV?$string_output_adapter@D@__crt_stdio_output@@V?$standard_base@DV?$string_output_adapter@D@__crt_stdio_output@@@2@@__crt_stdio_output@@AEAA_NXZ 0000000180065904     libucrt:output.obj
 0004:00002910       $pdata$?type_case_a@?$output_processor@_WV?$string_output_adapter@_W@__crt_stdio_output@@V?$standard_base@_WV?$string_output_adapter@_W@__crt_stdio_output@@@2@@__crt_stdio_output@@AEAA_NXZ 0000000180065910     libucrt:output.obj
 0004:00002910       $pdata$?type_case_a@?$output_processor@_WV?$stream_output_adapter@_W@__crt_stdio_output@@V?$standard_base@_WV?$stream_output_adapter@_W@__crt_stdio_output@@@2@@__crt_stdio_output@@AEAA_NXZ 0000000180065910     libucrt:output.obj
 0004:0000291c       $pdata$?type_case_c_tchar@?$output_processor@DV?$string_output_adapter@D@__crt_stdio_output@@V?$standard_base@DV?$string_output_adapter@D@__crt_stdio_output@@@2@@__crt_stdio_output@@AEAA_ND@Z 000000018006591c     libucrt:output.obj
 0004:0000291c       $pdata$?type_case_c_tchar@?$output_processor@DV?$stream_output_adapter@D@__crt_stdio_output@@V?$standard_base@DV?$stream_output_adapter@D@__crt_stdio_output@@@2@@__crt_stdio_output@@AEAA_ND@Z 000000018006591c     libucrt:output.obj
 0004:00002928       $pdata$?type_case_c_tchar@?$output_processor@_WV?$string_output_adapter@_W@__crt_stdio_output@@V?$standard_base@_WV?$string_output_adapter@_W@__crt_stdio_output@@@2@@__crt_stdio_output@@AEAA_N_W@Z 0000000180065928     libucrt:output.obj
 0004:00002928       $pdata$?type_case_c_tchar@?$output_processor@_WV?$stream_output_adapter@_W@__crt_stdio_output@@V?$standard_base@_WV?$stream_output_adapter@_W@__crt_stdio_output@@@2@@__crt_stdio_output@@AEAA_N_W@Z 0000000180065928     libucrt:output.obj
 0004:00002934       $pdata$?type_case_integer@?$output_processor@_WV?$string_output_adapter@_W@__crt_stdio_output@@V?$standard_base@_WV?$string_output_adapter@_W@__crt_stdio_output@@@2@@__crt_stdio_output@@AEAA_NI_N@Z 0000000180065934     libucrt:output.obj
 0004:00002934       $pdata$?type_case_integer@?$output_processor@_WV?$stream_output_adapter@_W@__crt_stdio_output@@V?$standard_base@_WV?$stream_output_adapter@_W@__crt_stdio_output@@@2@@__crt_stdio_output@@AEAA_NI_N@Z 0000000180065934     libucrt:output.obj
 0004:00002934       $pdata$?type_case_integer@?$output_processor@DV?$string_output_adapter@D@__crt_stdio_output@@V?$standard_base@DV?$string_output_adapter@D@__crt_stdio_output@@@2@@__crt_stdio_output@@AEAA_NI_N@Z 0000000180065934     libucrt:output.obj
 0004:00002934       $pdata$?type_case_integer@?$output_processor@DV?$stream_output_adapter@D@__crt_stdio_output@@V?$standard_base@DV?$stream_output_adapter@D@__crt_stdio_output@@@2@@__crt_stdio_output@@AEAA_NI_N@Z 0000000180065934     libucrt:output.obj
 0004:00002940       $pdata$?type_case_n@?$output_processor@DV?$string_output_adapter@D@__crt_stdio_output@@V?$standard_base@DV?$string_output_adapter@D@__crt_stdio_output@@@2@@__crt_stdio_output@@AEAA_NXZ 0000000180065940     libucrt:output.obj
 0004:00002940       $pdata$?type_case_n@?$output_processor@DV?$stream_output_adapter@D@__crt_stdio_output@@V?$standard_base@DV?$stream_output_adapter@D@__crt_stdio_output@@@2@@__crt_stdio_output@@AEAA_NXZ 0000000180065940     libucrt:output.obj
 0004:00002940       $pdata$?type_case_n@?$output_processor@_WV?$stream_output_adapter@_W@__crt_stdio_output@@V?$standard_base@_WV?$stream_output_adapter@_W@__crt_stdio_output@@@2@@__crt_stdio_output@@AEAA_NXZ 0000000180065940     libucrt:output.obj
 0004:00002940       $pdata$?type_case_n@?$output_processor@_WV?$string_output_adapter@_W@__crt_stdio_output@@V?$standard_base@_WV?$string_output_adapter@_W@__crt_stdio_output@@@2@@__crt_stdio_output@@AEAA_NXZ 0000000180065940     libucrt:output.obj
 0004:0000294c       $pdata$?type_case_s@?$output_processor@DV?$stream_output_adapter@D@__crt_stdio_output@@V?$standard_base@DV?$stream_output_adapter@D@__crt_stdio_output@@@2@@__crt_stdio_output@@AEAA_NXZ 000000018006594c     libucrt:output.obj
 0004:0000294c       $pdata$?type_case_s@?$output_processor@DV?$string_output_adapter@D@__crt_stdio_output@@V?$standard_base@DV?$string_output_adapter@D@__crt_stdio_output@@@2@@__crt_stdio_output@@AEAA_NXZ 000000018006594c     libucrt:output.obj
 0004:00002958       $pdata$?type_case_s@?$output_processor@_WV?$string_output_adapter@_W@__crt_stdio_output@@V?$standard_base@_WV?$string_output_adapter@_W@__crt_stdio_output@@@2@@__crt_stdio_output@@AEAA_NXZ 0000000180065958     libucrt:output.obj
 0004:00002958       $pdata$?type_case_s@?$output_processor@_WV?$stream_output_adapter@_W@__crt_stdio_output@@V?$standard_base@_WV?$stream_output_adapter@_W@__crt_stdio_output@@@2@@__crt_stdio_output@@AEAA_NXZ 0000000180065958     libucrt:output.obj
 0004:00002964       $pdata$?validate_stream_is_ansi_if_required@?$__acrt_stdio_char_traits@D@@SA_NQEAU_iobuf@@@Z 0000000180065964     libucrt:output.obj
 0004:00002970       $pdata$?write_stored_string_tchar@?$output_processor@DV?$stream_output_adapter@D@__crt_stdio_output@@V?$standard_base@DV?$stream_output_adapter@D@__crt_stdio_output@@@2@@__crt_stdio_output@@AEAA_ND@Z 0000000180065970     libucrt:output.obj
 0004:0000297c       $pdata$?write_stored_string_tchar@?$output_processor@DV?$string_output_adapter@D@__crt_stdio_output@@V?$standard_base@DV?$string_output_adapter@D@__crt_stdio_output@@@2@@__crt_stdio_output@@AEAA_ND@Z 000000018006597c     libucrt:output.obj
 0004:00002988       $pdata$?write_stored_string_tchar@?$output_processor@_WV?$stream_output_adapter@_W@__crt_stdio_output@@V?$standard_base@_WV?$stream_output_adapter@_W@__crt_stdio_output@@@2@@__crt_stdio_output@@AEAA_N_W@Z 0000000180065988     libucrt:output.obj
 0004:00002994       $pdata$?write_stored_string_tchar@?$output_processor@_WV?$string_output_adapter@_W@__crt_stdio_output@@V?$standard_base@_WV?$string_output_adapter@_W@__crt_stdio_output@@@2@@__crt_stdio_output@@AEAA_N_W@Z 0000000180065994     libucrt:output.obj
 0004:000029a0       $pdata$?write_string@?$stream_output_adapter@D@__crt_stdio_output@@QEBAXQEBDHQEAH1@Z 00000001800659a0     libucrt:output.obj
 0004:000029ac       $pdata$?write_string@?$stream_output_adapter@_W@__crt_stdio_output@@QEBAXQEB_WHQEAH1@Z 00000001800659ac     libucrt:output.obj
 0004:000029b8       $pdata$?write_string@?$string_output_adapter@D@__crt_stdio_output@@QEBAXQEBDHQEAH1@Z 00000001800659b8     libucrt:output.obj
 0004:000029c4       $pdata$?write_string@?$string_output_adapter@_W@__crt_stdio_output@@QEBAXQEB_WHQEAH1@Z 00000001800659c4     libucrt:output.obj
 0004:000029d0       $pdata$__stdio_common_vfprintf 00000001800659d0     libucrt:output.obj
 0004:000029dc       $pdata$__stdio_common_vfwprintf 00000001800659dc     libucrt:output.obj
 0004:000029e8       $pdata$__stdio_common_vsprintf 00000001800659e8     libucrt:output.obj
 0004:000029f4       $pdata$__stdio_common_vswprintf 00000001800659f4     libucrt:output.obj
 0004:00002a0c       $pdata$??$common_timespec_get@U_timespec64@@@@YAHQEAU_timespec64@@H@Z 0000000180065a0c     libucrt:time.obj
 0004:00002a18       $pdata$_time64             0000000180065a18     libucrt:time.obj
 0004:00002a24       $pdata$_dclass             0000000180065a24     libucrt:nan.obj
 0004:00002a30       $pdata$__acrt_initialize_stdio 0000000180065a30     libucrt:_file.obj
 0004:00002a3c       $pdata$__acrt_uninitialize_stdio 0000000180065a3c     libucrt:_file.obj
 0004:00002a48       $pdata$??$parse_integer@KV?$c_string_character_source@D@__crt_strtox@@@__crt_strtox@@YAKQEAU__crt_locale_pointers@@V?$c_string_character_source@D@0@H_N@Z 0000000180065a48     libucrt:strtox.obj
 0004:00002a54       $pdata$??$parse_integer@KV?$c_string_character_source@_W@__crt_strtox@@@__crt_strtox@@YAKQEAU__crt_locale_pointers@@V?$c_string_character_source@_W@0@H_N@Z 0000000180065a54     libucrt:strtox.obj
 0004:00002a60       $pdata$strtol              0000000180065a60     libucrt:strtox.obj
 0004:00002a6c       $pdata$wcstol              0000000180065a6c     libucrt:strtox.obj
 0004:00002a78       $pdata$??$common_getenv@D@@YAPEADQEBD@Z 0000000180065a78     libucrt:getenv.obj
 0004:00002a84       $pdata$??$common_getenv_nolock@D@@YAPEADQEBD@Z 0000000180065a84     libucrt:getenv.obj
 0004:00002a90       $pdata$??$common_fsopen@D@@YAPEAU_iobuf@@QEBD0H@Z 0000000180065a90     libucrt:fopen.obj
 0004:00002a9c       $pdata$_fclose_nolock      0000000180065a9c     libucrt:fclose.obj
 0004:00002aa8       $pdata$fclose              0000000180065aa8     libucrt:fclose.obj
 0004:00002ab4       $pdata$?common_fseek@@YAHV__crt_stdio_stream@@_JH@Z 0000000180065ab4     libucrt:fseek.obj
 0004:00002ac0       $pdata$?common_fseek_binary_mode_read_only_fast_track_nolock@@YA_NV__crt_stdio_stream@@_JH@Z 0000000180065ac0     libucrt:fseek.obj
 0004:00002acc       $pdata$?common_fseek_nolock@@YAHV__crt_stdio_stream@@_JH@Z 0000000180065acc     libucrt:fseek.obj
 0004:00002ad8       $pdata$isdigit             0000000180065ad8     libucrt:_ctype.obj
 0004:00002ae4       $pdata$isspace             0000000180065ae4     libucrt:_ctype.obj
 0004:00002afc       $pdata$_fread_nolock_s     0000000180065afc     libucrt:fread.obj
 0004:00002b08       $pdata$fread               0000000180065b08     libucrt:fread.obj
 0004:00002b14       $pdata$fread_s             0000000180065b14     libucrt:fread.obj
 0004:00002b2c       $pdata$_stricmp            0000000180065b2c     libucrt:stricmp.obj
 0004:00002b38       $pdata$_stricmp_l          0000000180065b38     libucrt:stricmp.obj
 0004:00002b44       $pdata$_callnewh           0000000180065b44     libucrt:new_handler.obj
 0004:00002b50       $pdata$_query_new_handler  0000000180065b50     libucrt:new_handler.obj
 0004:00002b5c       $pdata$terminate           0000000180065b5c     libucrt:terminate.obj
 0004:00002b68       $pdata$_seh_filter_exe     0000000180065b68     libucrt:exception_filter.obj
 0004:00002b74       $pdata$?common_exit@@YAXHW4_crt_exit_cleanup_mode@@W4_crt_exit_return_mode@@@Z 0000000180065b74     libucrt:exit.obj
 0004:00002b80       $pdata$?exit_or_terminate_process@@YAXI@Z 0000000180065b80     libucrt:exit.obj
 0004:00002b8c       $pdata$?try_cor_exit_process@@YAXI@Z 0000000180065b8c     libucrt:exit.obj
 0004:00002b98       $pdata$??$parse_command_line@D@@YAXPEADPEAPEAD0PEA_K2@Z 0000000180065b98     libucrt:argv_parsing.obj
 0004:00002ba4       $pdata$__acrt_allocate_buffer_for_argv 0000000180065ba4     libucrt:argv_parsing.obj
 0004:00002bb0       $pdata$_configure_narrow_argv 0000000180065bb0     libucrt:argv_parsing.obj
 0004:00002bbc       $pdata$??$common_get_or_create_environment_nolock@D@@YAPEAPEADXZ 0000000180065bbc     libucrt:environment_initialization.obj
 0004:00002bc8       $pdata$??$common_initialize_environment_nolock@D@@YAHXZ 0000000180065bc8     libucrt:environment_initialization.obj
 0004:00002bd4       $pdata$??$create_environment@D@@YAQEAPEADQEAD@Z 0000000180065bd4     libucrt:environment_initialization.obj
 0004:00002be0       $pdata$??$free_environment@_W@@YAXQEAPEA_W@Z 0000000180065be0     libucrt:environment_initialization.obj
 0004:00002be0       $pdata$??$free_environment@D@@YAXQEAPEAD@Z 0000000180065be0     libucrt:environment_initialization.obj
 0004:00002bec       $pdata$??$initialize_environment_by_cloning_nolock@D@@YAHXZ 0000000180065bec     libucrt:environment_initialization.obj
 0004:00002bf8       $pdata$??$uninitialize_environment_internal@D@@YAXAEAPEAPEAD@Z 0000000180065bf8     libucrt:environment_initialization.obj
 0004:00002c04       $pdata$??$uninitialize_environment_internal@_W@@YAXAEAPEAPEA_W@Z 0000000180065c04     libucrt:environment_initialization.obj
 0004:00002c10       $pdata$__dcrt_uninitialize_environments_nolock 0000000180065c10     libucrt:environment_initialization.obj
 0004:00002c1c       $pdata$??$?RV<lambda_b8c45f8f788dd370798f47cfe8ac3a86>@@AEAV<lambda_4e60a939b0d047cfe11ddc22648dfba9>@@V<lambda_332c3edc96d0294ec56c57d38c1cdfd5>@@@?$__crt_seh_guarded_call@H@@QEAAH$$QEAV<lambda_b8c45f8f788dd370798f47cfe8ac3a86>@@AEAV<lambda_4e60a939b0d047cfe11ddc22648dfba9>@@$$QEAV<lambda_332c3edc96d0294ec56c57d38c1cdfd5>@@@Z 0000000180065c1c     libucrt:onexit.obj
 0004:00002c28       $pdata$??$?RV<lambda_e24bbb7b643b32fcea6fa61b31d4c984>@@AEAV<lambda_275893d493268fdec8709772e3fcec0e>@@V<lambda_9d71df4d7cf3f480f8d633942495c3b0>@@@?$__crt_seh_guarded_call@H@@QEAAH$$QEAV<lambda_e24bbb7b643b32fcea6fa61b31d4c984>@@AEAV<lambda_275893d493268fdec8709772e3fcec0e>@@$$QEAV<lambda_9d71df4d7cf3f480f8d633942495c3b0>@@@Z 0000000180065c28     libucrt:onexit.obj
 0004:00002c34       $pdata$??R<lambda_4e60a939b0d047cfe11ddc22648dfba9>@@QEBAHXZ 0000000180065c34     libucrt:onexit.obj
 0004:00002c40       $pdata$_execute_onexit_table 0000000180065c40     libucrt:onexit.obj
 0004:00002c4c       $pdata$_register_onexit_function 0000000180065c4c     libucrt:onexit.obj
 0004:00002c58       $pdata$initialize_c        0000000180065c58     libucrt:initialization.obj
 0004:00002c64       $pdata$uninitialize_environment 0000000180065c64     libucrt:initialization.obj
 0004:00002c70       $pdata$initialize_pointers 0000000180065c70     libucrt:initialization.obj
 0004:00002c7c       $pdata$uninitialize_allocated_memory 0000000180065c7c     libucrt:initialization.obj
 0004:00002c88       $pdata$__acrt_thread_attach 0000000180065c88     libucrt:initialization.obj
 0004:00002c94       $pdata$__acrt_thread_detach 0000000180065c94     libucrt:initialization.obj
 0004:00002ca0       $pdata$__acrt_uninitialize_critical 0000000180065ca0     libucrt:initialization.obj
 0004:00002cac       $pdata$_initterm           0000000180065cac     libucrt:initterm.obj
 0004:00002cb8       $pdata$_initterm_e         0000000180065cb8     libucrt:initterm.obj
 0004:00002cc4       $pdata$abort               0000000180065cc4     libucrt:abort.obj
 0004:00002cd0       $pdata$strcpy_s            0000000180065cd0     libucrt:strcpy_s.obj
 0004:00002cdc       $pdata$_free_base          0000000180065cdc     libucrt:free_base.obj
 0004:00002ce8       $pdata$_malloc_base        0000000180065ce8     libucrt:malloc_base.obj
 0004:00002cf4       $pdata$_calloc_base        0000000180065cf4     libucrt:calloc_base.obj
 0004:00002d00       $pdata$__acrt_errno_map_os_error 0000000180065d00     libucrt:errno.obj
 0004:00002d0c       $pdata$__doserrno          0000000180065d0c     libucrt:errno.obj
 0004:00002d18       $pdata$_errno              0000000180065d18     libucrt:errno.obj
 0004:00002d24       $pdata$??$common_xtox@K_W@@YAHKQEA_W_KI_N@Z 0000000180065d24     libucrt:xtoa.obj
 0004:00002d30       $pdata$??$common_xtox_s@K_W@@YAHKQEA_W_KI_N@Z 0000000180065d30     libucrt:xtoa.obj
 0004:00002d3c       $pdata$_itow_s             0000000180065d3c     libucrt:xtoa.obj
 0004:00002d48       $pdata$_set_error_mode     0000000180065d48     libucrt:set_error_mode.obj
 0004:00002d54       $pdata$wcscat_s            0000000180065d54     libucrt:wcscat_s.obj
 0004:00002d60       $pdata$wcscpy_s            0000000180065d60     libucrt:wcscpy_s.obj
 0004:00002d6c       $pdata$wcsncat_s           0000000180065d6c     libucrt:wcsncat_s.obj
 0004:00002d78       $pdata$??$message_box_wait_thread@_W@@YAKQEAX@Z 0000000180065d78     libucrt:crtmbox.obj
 0004:00002d84       $pdata$__acrt_show_wide_message_box 0000000180065d84     libucrt:crtmbox.obj
 0004:00002d90       $pdata$__acrt_stdio_flush_nolock 0000000180065d90     libucrt:fflush.obj
 0004:00002d9c       $pdata$_fflush_nolock      0000000180065d9c     libucrt:fflush.obj
 0004:00002da8       $pdata$common_flush_all    0000000180065da8     libucrt:fflush.obj
 0004:00002db4       $pdata$fflush              0000000180065db4     libucrt:fflush.obj
 0004:00002dc0       $pdata$??$?RV<lambda_7a5ef57ff966f610505f1d28a3d40618>@@AEAV<lambda_b721fa326cdb32351d23dfa67958c160>@@V<lambda_5e0fb27672408a07956fe59e48ccb2aa>@@@?$__crt_seh_guarded_call@H@@QEAAH$$QEAV<lambda_7a5ef57ff966f610505f1d28a3d40618>@@AEAV<lambda_b721fa326cdb32351d23dfa67958c160>@@$$QEAV<lambda_5e0fb27672408a07956fe59e48ccb2aa>@@@Z 0000000180065dc0     libucrt:setvbuf.obj
 0004:00002dcc       $pdata$??R<lambda_b721fa326cdb32351d23dfa67958c160>@@QEBAHXZ 0000000180065dcc     libucrt:setvbuf.obj
 0004:00002dd8       $pdata$setvbuf             0000000180065dd8     libucrt:setvbuf.obj
 0004:00002de4       $pdata$??$?RV<lambda_c36588078e9f5dfd39652860aa6b3aaf>@@AEAV<lambda_ec61778202f4f5fc7e7711acc23c3bca>@@V<lambda_dc9d2797ccde5d239b4a0efae8ebd7db>@@@?$__crt_seh_guarded_call@P6AXH@Z@@QEAAP6AXH@Z$$QEAV<lambda_c36588078e9f5dfd39652860aa6b3aaf>@@AEAV<lambda_ec61778202f4f5fc7e7711acc23c3bca>@@$$QEAV<lambda_dc9d2797ccde5d239b4a0efae8ebd7db>@@@Z 0000000180065de4     libucrt:signal.obj
 0004:00002df0       $pdata$__acrt_get_sigabrt_handler 0000000180065df0     libucrt:signal.obj
 0004:00002dfc       $pdata$raise               0000000180065dfc     libucrt:signal.obj
 0004:00002e08       $pdata$??$?RV<lambda_46352004c1216016012b18bd6f87e700>@@AEAV<lambda_3bd07e1a1191394380780325891bf33f>@@V<lambda_334532d3f185bcaa59b5be82d7d22bff>@@@?$__crt_seh_guarded_call@X@@QEAAX$$QEAV<lambda_46352004c1216016012b18bd6f87e700>@@AEAV<lambda_3bd07e1a1191394380780325891bf33f>@@$$QEAV<lambda_334532d3f185bcaa59b5be82d7d22bff>@@@Z 0000000180065e08     libucrt:per_thread_data.obj
 0004:00002e14       $pdata$??$?RV<lambda_5e887d1dcbef67a5eb4283622ba103bf>@@AEAV<lambda_4466841279450cc726390878d4a41900>@@V<lambda_341c25c0346d94847f1f3c463c57e077>@@@?$__crt_seh_guarded_call@X@@QEAAX$$QEAV<lambda_5e887d1dcbef67a5eb4283622ba103bf>@@AEAV<lambda_4466841279450cc726390878d4a41900>@@$$QEAV<lambda_341c25c0346d94847f1f3c463c57e077>@@@Z 0000000180065e14     libucrt:per_thread_data.obj
 0004:00002e20       $pdata$??$?RV<lambda_72d1df2b273a38828b1ce30cbf4cdab5>@@AEAV<lambda_876a65b173b8412d3a47c70a915b0cf4>@@V<lambda_41932305e351933ebe8f8be3ed8bb5dc>@@@?$__crt_seh_guarded_call@X@@QEAAX$$QEAV<lambda_72d1df2b273a38828b1ce30cbf4cdab5>@@AEAV<lambda_876a65b173b8412d3a47c70a915b0cf4>@@$$QEAV<lambda_41932305e351933ebe8f8be3ed8bb5dc>@@@Z 0000000180065e20     libucrt:per_thread_data.obj
 0004:00002e2c       $pdata$??$?RV<lambda_fb3a7dec4e47f37f22dae91bb15c9095>@@AEAV<lambda_698284760c8add0bfb0756c19673e34b>@@V<lambda_dfb8eca1e75fef3034a8fb18dd509707>@@@?$__crt_seh_guarded_call@X@@QEAAX$$QEAV<lambda_fb3a7dec4e47f37f22dae91bb15c9095>@@AEAV<lambda_698284760c8add0bfb0756c19673e34b>@@$$QEAV<lambda_dfb8eca1e75fef3034a8fb18dd509707>@@@Z 0000000180065e2c     libucrt:per_thread_data.obj
 0004:00002e38       $pdata$?construct_ptd_array@@YAXQEAU__acrt_ptd@@@Z 0000000180065e38     libucrt:per_thread_data.obj
 0004:00002e44       $pdata$?destroy_fls@@YAXPEAX@Z 0000000180065e44     libucrt:per_thread_data.obj
 0004:00002e50       $pdata$?destroy_ptd_array@@YAXQEAU__acrt_ptd@@@Z 0000000180065e50     libucrt:per_thread_data.obj
 0004:00002e5c       $pdata$?replace_current_thread_locale_nolock@@YAXQEAU__acrt_ptd@@QEAU__crt_locale_data@@@Z 0000000180065e5c     libucrt:per_thread_data.obj
 0004:00002e68       $pdata$__acrt_freeptd      0000000180065e68     libucrt:per_thread_data.obj
 0004:00002e74       $pdata$__acrt_getptd       0000000180065e74     libucrt:per_thread_data.obj
 0004:00002e80       $pdata$__acrt_getptd_noexit 0000000180065e80     libucrt:per_thread_data.obj
 0004:00002e8c       $pdata$__acrt_initialize_ptd 0000000180065e8c     libucrt:per_thread_data.obj
 0004:00002e98       $pdata$__acrt_uninitialize_ptd 0000000180065e98     libucrt:per_thread_data.obj
 0004:00002ea4       $pdata$?internal_isupper_l@@YA_NHQEAU__crt_locale_pointers@@@Z 0000000180065ea4     libucrt:tolower_toupper.obj
 0004:00002eb0       $pdata$_tolower_l          0000000180065eb0     libucrt:tolower_toupper.obj
 0004:00002ebc       $pdata$tolower             0000000180065ebc     libucrt:tolower_toupper.obj
 0004:00002ec8       $pdata$_mbtowc_l           0000000180065ec8     libucrt:mbtowc.obj
 0004:00002ed4       $pdata$_wctomb_s_l         0000000180065ed4     libucrt:wctomb.obj
 0004:00002ee0       $pdata$wctomb_s            0000000180065ee0     libucrt:wctomb.obj
 0004:00002eec       $pdata$strnlen             0000000180065eec     libucrt:strnlen.obj
 0004:00002ef8       $pdata$wcsnlen             0000000180065ef8     libucrt:strnlen.obj
 0004:00002f04       $pdata$__acrt_update_locale_info 0000000180065f04     libucrt:locale_update.obj
 0004:00002f10       $pdata$__acrt_update_multibyte_info 0000000180065f10     libucrt:locale_update.obj
 0004:00002f1c       $pdata$?fp_format_a@@YAHQEBNPEAD_KQEAD2H_NIQEAU__crt_locale_pointers@@@Z 0000000180065f1c     libucrt:cvt.obj
 0004:00002f28       $pdata$?fp_format_e@@YAHQEBNQEAD_K12H_NIQEAU__crt_locale_pointers@@@Z 0000000180065f28     libucrt:cvt.obj
 0004:00002f34       $pdata$?fp_format_e_internal@@YAHQEAD_KH_NIQEAU_strflt@@2QEAU__crt_locale_pointers@@@Z 0000000180065f34     libucrt:cvt.obj
 0004:00002f40       $pdata$?fp_format_f_internal@@YAHQEAD_KHQEAU_strflt@@_NQEAU__crt_locale_pointers@@@Z 0000000180065f40     libucrt:cvt.obj
 0004:00002f4c       $pdata$?fp_format_g@@YAHQEBNQEAD_K12H_NIQEAU__crt_locale_pointers@@@Z 0000000180065f4c     libucrt:cvt.obj
 0004:00002f58       $pdata$?fp_format_nan_or_infinity@@YAHW4__acrt_fp_class@@_NPEAD_K1@Z 0000000180065f58     libucrt:cvt.obj
 0004:00002f64       $pdata$__acrt_fp_format    0000000180065f64     libucrt:cvt.obj
 0004:00002f70       $pdata$_fputwc_nolock      0000000180065f70     libucrt:fputwc.obj
 0004:00002f7c       $pdata$_fileno             0000000180065f7c     libucrt:fileno.obj
 0004:00002f88       $pdata$__acrt_stdio_begin_temporary_buffering_nolock 0000000180065f88     libucrt:_sftbuf.obj
 0004:00002f94       $pdata$__acrt_stdio_end_temporary_buffering_nolock 0000000180065f94     libucrt:_sftbuf.obj
 0004:00002fa0       $pdata$__acrt_uninitialize_locale 0000000180065fa0     libucrt:wsetlocale.obj
 0004:00002fac       $pdata$?initialize_inherited_file_handles_nolock@@YAXXZ 0000000180065fac     libucrt:ioinit.obj
 0004:00002fb8       $pdata$?initialize_stdio_handles_nolock@@YAXXZ 0000000180065fb8     libucrt:ioinit.obj
 0004:00002fc4       $pdata$__acrt_initialize_lowio 0000000180065fc4     libucrt:ioinit.obj
 0004:00002fd0       $pdata$__acrt_uninitialize_lowio 0000000180065fd0     libucrt:ioinit.obj
 0004:00002fdc       $pdata$?try_get_function@@YAPEAXW4function_id@?A0x63058377@@QEBDQEBW4module_id@2@2@Z 0000000180065fdc     libucrt:winapi_thunks.obj
 0004:00002fe8       $pdata$__acrt_AreFileApisANSI 0000000180065fe8     libucrt:winapi_thunks.obj
 0004:00002ff4       $pdata$__acrt_CompareStringEx 0000000180065ff4     libucrt:winapi_thunks.obj
 0004:00003000       $pdata$__acrt_FlsAlloc     0000000180066000     libucrt:winapi_thunks.obj
 0004:0000300c       $pdata$__acrt_FlsFree      000000018006600c     libucrt:winapi_thunks.obj
 0004:00003018       $pdata$__acrt_FlsGetValue  0000000180066018     libucrt:winapi_thunks.obj
 0004:00003024       $pdata$__acrt_FlsSetValue  0000000180066024     libucrt:winapi_thunks.obj
 0004:00003030       $pdata$__acrt_GetSystemTimePreciseAsFileTime 0000000180066030     libucrt:winapi_thunks.obj
 0004:0000303c       $pdata$__acrt_InitializeCriticalSectionEx 000000018006603c     libucrt:winapi_thunks.obj
 0004:00003048       $pdata$__acrt_LCMapStringEx 0000000180066048     libucrt:winapi_thunks.obj
 0004:00003054       $pdata$__acrt_LocaleNameToLCID 0000000180066054     libucrt:winapi_thunks.obj
 0004:00003060       $pdata$__acrt_MessageBoxW  0000000180066060     libucrt:winapi_thunks.obj
 0004:0000306c       $pdata$__acrt_can_show_message_box 000000018006606c     libucrt:winapi_thunks.obj
 0004:00003078       $pdata$__acrt_get_parent_window 0000000180066078     libucrt:winapi_thunks.obj
 0004:00003084       $pdata$__acrt_initialize_winapi_thunks 0000000180066084     libucrt:winapi_thunks.obj
 0004:00003090       $pdata$__acrt_is_interactive 0000000180066090     libucrt:winapi_thunks.obj
 0004:0000309c       $pdata$__acrt_is_packaged_app 000000018006609c     libucrt:winapi_thunks.obj
 0004:000030a8       $pdata$__acrt_uninitialize_winapi_thunks 00000001800660a8     libucrt:winapi_thunks.obj
 0004:000030b4       $pdata$_fcloseall          00000001800660b4     libucrt:closeall.obj
 0004:000030c0       $pdata$__acrt_stdio_free_buffer_nolock 00000001800660c0     libucrt:_freebuf.obj
 0004:000030cc       $pdata$__pctype_func       00000001800660cc     libucrt:ctype.obj
 0004:000030d8       $pdata$iswctype            00000001800660d8     libucrt:iswctype.obj
 0004:000030e4       $pdata$_isctype_l          00000001800660e4     libucrt:isctype.obj
 0004:000030f0       $pdata$_strnicoll_l        00000001800660f0     libucrt:strnicol.obj
 0004:000030fc       $pdata$__acrt_initialize_locks 00000001800660fc     libucrt:locks.obj
 0004:00003108       $pdata$__acrt_uninitialize_locks 0000000180066108     libucrt:locks.obj
 0004:00003114       $pdata$?__acrt_stdio_allocate_stream@@YA?AV__crt_stdio_stream@@XZ 0000000180066114     libucrt:stream.obj
 0004:00003120       $pdata$?find_or_allocate_unused_stream_nolock@@YA?AV__crt_stdio_stream@@XZ 0000000180066120     libucrt:stream.obj
 0004:0000312c       $pdata$??$__acrt_stdio_parse_mode@D@@YA?AU__acrt_stdio_stream_mode@@QEBD@Z 000000018006612c     libucrt:openfile.obj
 0004:00003138       $pdata$_openfile           0000000180066138     libucrt:openfile.obj
 0004:00003144       $pdata$??$?RV<lambda_bfedae4ebbf01fab1bb6dcc6a9e276e0>@@AEAV<lambda_2fe9b910cf3cbf4a0ab98a02ba45b3ec>@@V<lambda_237c231691f317818eb88cc1d5d642d6>@@@?$__crt_seh_guarded_call@H@@QEAAH$$QEAV<lambda_bfedae4ebbf01fab1bb6dcc6a9e276e0>@@AEAV<lambda_2fe9b910cf3cbf4a0ab98a02ba45b3ec>@@$$QEAV<lambda_237c231691f317818eb88cc1d5d642d6>@@@Z 0000000180066144     libucrt:close.obj
 0004:00003150       $pdata$_close              0000000180066150     libucrt:close.obj
 0004:0000315c       $pdata$_close_nolock       000000018006615c     libucrt:close.obj
 0004:00003168       $pdata$_realloc_base       0000000180066168     libucrt:realloc_base.obj
 0004:00003174       $pdata$??$common_ftell_nolock@_J@@YA_JV__crt_stdio_stream@@@Z 0000000180066174     libucrt:ftell.obj
 0004:00003180       $pdata$?common_ftell_read_mode_nolock@@YA_JV__crt_stdio_stream@@_J1@Z 0000000180066180     libucrt:ftell.obj
 0004:0000318c       $pdata$?common_ftell_translated_utf8_nolock@@YA_JV__crt_stdio_stream@@_J@Z 000000018006618c     libucrt:ftell.obj
 0004:00003198       $pdata$??$common_lseek@_J@@YA_JH_JH@Z 0000000180066198     libucrt:lseek.obj
 0004:000031a4       $pdata$??$common_lseek_nolock@_J@@YA_JH_JH@Z 00000001800661a4     libucrt:lseek.obj
 0004:000031b0       $pdata$??$translate_text_mode_nolock@_W@@YAHHQEA_W_K@Z 00000001800661b0     libucrt:read.obj
 0004:000031bc       $pdata$?translate_ansi_or_utf8_nolock@@YAHHQEAD_KQEA_W1@Z 00000001800661bc     libucrt:read.obj
 0004:000031c8       $pdata$_read               00000001800661c8     libucrt:read.obj
 0004:000031d4       $pdata$_read_nolock        00000001800661d4     libucrt:read.obj
 0004:000031e0       $pdata$??$common_refill_and_read_nolock@D@@YAHV__crt_stdio_stream@@@Z 00000001800661e0     libucrt:_filbuf.obj
 0004:000031ec       $pdata$??$common_expand_argv_wildcards@D@@YAHQEAPEADQEAPEAPEAD@Z 00000001800661ec     libucrt:argv_wildcards.obj
 0004:000031f8       $pdata$??$copy_and_add_argument_to_buffer@D@@YAHQEBD0_KAEAV?$argument_list@D@?A0xca0879c4@@@Z 00000001800661f8     libucrt:argv_wildcards.obj
 0004:00003204       $pdata$??$expand_argument_wildcards@D@@YAHQEAD0AEAV?$argument_list@D@?A0xca0879c4@@@Z 0000000180066204     libucrt:argv_wildcards.obj
 0004:00003210       $pdata$?expand_if_necessary@?$argument_list@D@?A0xca0879c4@@AEAAHXZ 0000000180066210     libucrt:argv_wildcards.obj
 0004:0000321c       $pdata$??$?RV<lambda_99476a1ad63dd22509b5d3e65b0ffc95>@@AEAV<lambda_ad1ced32f4ac17aa236e5ef05d6b3b7c>@@V<lambda_f7424dd8d45958661754dc4f2697e9c3>@@@?$__crt_seh_guarded_call@X@@QEAAX$$QEAV<lambda_99476a1ad63dd22509b5d3e65b0ffc95>@@AEAV<lambda_ad1ced32f4ac17aa236e5ef05d6b3b7c>@@$$QEAV<lambda_f7424dd8d45958661754dc4f2697e9c3>@@@Z 000000018006621c     libucrt:mbctype.obj
 0004:00003228       $pdata$??R<lambda_ad1ced32f4ac17aa236e5ef05d6b3b7c>@@QEBAXXZ 0000000180066228     libucrt:mbctype.obj
 0004:00003234       $pdata$?getSystemCP@@YAHH@Z 0000000180066234     libucrt:mbctype.obj
 0004:00003240       $pdata$?setSBCS@@YAXPEAU__crt_multibyte_data@@@Z 0000000180066240     libucrt:mbctype.obj
 0004:0000324c       $pdata$?setSBUpLow@@YAXPEAU__crt_multibyte_data@@@Z 000000018006624c     libucrt:mbctype.obj
 0004:00003258       $pdata$?setmbcp_internal@@YAHH_N@Z 0000000180066258     libucrt:mbctype.obj
 0004:00003264       $pdata$__acrt_initialize_multibyte 0000000180066264     libucrt:mbctype.obj
 0004:00003270       $pdata$__acrt_update_thread_multibyte_data 0000000180066270     libucrt:mbctype.obj
 0004:0000327c       $pdata$_setmbcp_nolock     000000018006627c     libucrt:mbctype.obj
 0004:00003288       $pdata$?x_ismbbtype_l@@YAHPEAU__crt_locale_pointers@@IHH@Z 0000000180066288     libucrt:ismbbyte.obj
 0004:00003294       $pdata$__acrt_initialize_command_line 0000000180066294     libucrt:argv_data.obj
 0004:000032a0       $pdata$__dcrt_get_narrow_environment_from_os 00000001800662a0     libucrt:get_environment_from_os.obj
 0004:000032ac       $pdata$??$common_set_variable_in_environment_nolock@D@@YAHQEADH@Z 00000001800662ac     libucrt:setenv.obj
 0004:000032b8       $pdata$??$copy_environment@D@@YAPEAPEADQEAPEAD@Z 00000001800662b8     libucrt:setenv.obj
 0004:000032c4       $pdata$_recalloc_base      00000001800662c4     libucrt:recalloc.obj
 0004:000032d0       $pdata$__acrt_initialize_heap 00000001800662d0     libucrt:heap_handle.obj
 0004:000032dc       $pdata$__acrt_execute_initializers 00000001800662dc     libucrt:shared_initialization.obj
 0004:000032e8       $pdata$__acrt_execute_uninitializers 00000001800662e8     libucrt:shared_initialization.obj
 0004:000032f4       $pdata$__acrt_invoke_user_matherr 00000001800662f4     libucrt:matherr.obj
 0004:00003300       $pdata$??$?RV<lambda_b521505b218e5242e90febf6bfebc422>@@AEAV<lambda_6978c1fb23f02e42e1d9e99668cc68aa>@@V<lambda_314360699dd331753a4119843814e9a7>@@@?$__crt_seh_guarded_call@H@@QEAAH$$QEAV<lambda_b521505b218e5242e90febf6bfebc422>@@AEAV<lambda_6978c1fb23f02e42e1d9e99668cc68aa>@@$$QEAV<lambda_314360699dd331753a4119843814e9a7>@@@Z 0000000180066300     libucrt:commit.obj
 0004:0000330c       $pdata$_commit             000000018006630c     libucrt:commit.obj
 0004:00003318       $pdata$?write_double_translated_ansi_nolock@@YA?AUwrite_result@?A0x9c548279@@HQEBDI@Z 0000000180066318     libucrt:write.obj
 0004:00003324       $pdata$?write_text_ansi_nolock@@YA?AUwrite_result@?A0x9c548279@@HQEBDI@Z 0000000180066324     libucrt:write.obj
 0004:00003330       $pdata$?write_text_utf16le_nolock@@YA?AUwrite_result@?A0x9c548279@@HQEBDI@Z 0000000180066330     libucrt:write.obj
 0004:0000333c       $pdata$?write_text_utf8_nolock@@YA?AUwrite_result@?A0x9c548279@@HQEBDI@Z 000000018006633c     libucrt:write.obj
 0004:00003348       $pdata$_write              0000000180066348     libucrt:write.obj
 0004:00003354       $pdata$_write_nolock       0000000180066354     libucrt:write.obj
 0004:00003360       $pdata$__acrt_free_locale  0000000180066360     libucrt:locale_refcounting.obj
 0004:0000336c       $pdata$__acrt_locale_free_lc_time_if_unreferenced 000000018006636c     libucrt:locale_refcounting.obj
 0004:00003378       $pdata$__acrt_release_locale_ref 0000000180066378     libucrt:locale_refcounting.obj
 0004:00003384       $pdata$__acrt_update_thread_locale_data 0000000180066384     libucrt:locale_refcounting.obj
 0004:00003390       $pdata$_updatetlocinfoEx_nolock 0000000180066390     libucrt:locale_refcounting.obj
 0004:0000339c       $pdata$_isleadbyte_l       000000018006639c     libucrt:_wctype.obj
 0004:000033a8       $pdata$?__acrt_LCMapStringA_stat@@YAHPEAU__crt_locale_pointers@@PEB_WKPEBDHPEADHHH@Z 00000001800663a8     libucrt:lcmapstringa.obj
 0004:000033b4       $pdata$__acrt_LCMapStringA 00000001800663b4     libucrt:lcmapstringa.obj
 0004:000033c0       $pdata$__acrt_fp_strflt_to_string 00000001800663c0     libucrt:_fptostr.obj
 0004:000033cc       $pdata$?divide@__crt_strtox@@YA_KAEAUbig_integer@1@AEBU21@@Z 00000001800663cc     libucrt:cfout.obj
 0004:000033d8       $pdata$5$?divide@__crt_strtox@@YA_KAEAUbig_integer@1@AEBU21@@Z 00000001800663d8     libucrt:cfout.obj
 0004:000033e4       $pdata$6$?divide@__crt_strtox@@YA_KAEAUbig_integer@1@AEBU21@@Z 00000001800663e4     libucrt:cfout.obj
 0004:000033f0       $pdata$__acrt_fltout       00000001800663f0     libucrt:cfout.obj
 0004:000033fc       $pdata$memcpy_s            00000001800663fc     libucrt:cfout.obj
 0004:00003408       $pdata$??$write_buffer_nolock@D@@YA_NDV__crt_stdio_stream@@@Z 0000000180066408     libucrt:_flsbuf.obj
 0004:00003414       $pdata$??$write_buffer_nolock@_W@@YA_N_WV__crt_stdio_stream@@@Z 0000000180066414     libucrt:_flsbuf.obj
 0004:00003420       $pdata$__acrt_stdio_flush_and_write_narrow_nolock 0000000180066420     libucrt:_flsbuf.obj
 0004:0000342c       $pdata$__acrt_stdio_flush_and_write_wide_nolock 000000018006642c     libucrt:_flsbuf.obj
 0004:00003438       $pdata$_isatty             0000000180066438     libucrt:isatty.obj
 0004:00003444       $pdata$__acrt_locale_free_monetary 0000000180066444     libucrt:initmon.obj
 0004:00003450       $pdata$__acrt_locale_free_numeric 0000000180066450     libucrt:initnum.obj
 0004:0000345c       $pdata$?free_crt_array_internal@@YAXQEAPEBX_K@Z 000000018006645c     libucrt:inittime.obj
 0004:00003468       $pdata$__acrt_locale_free_time 0000000180066468     libucrt:inittime.obj
 0004:00003474       $pdata$__acrt_GetStringTypeA 0000000180066474     libucrt:getstringtypea.obj
 0004:00003480       $pdata$__acrt_lowio_create_handle_array 0000000180066480     libucrt:osfinfo.obj
 0004:0000348c       $pdata$__acrt_lowio_destroy_handle_array 000000018006648c     libucrt:osfinfo.obj
 0004:00003498       $pdata$__acrt_lowio_ensure_fh_exists 0000000180066498     libucrt:osfinfo.obj
 0004:000034a4       $pdata$__acrt_lowio_set_os_handle 00000001800664a4     libucrt:osfinfo.obj
 0004:000034b0       $pdata$_alloc_osfhnd       00000001800664b0     libucrt:osfinfo.obj
 0004:000034bc       $pdata$_free_osfhnd        00000001800664bc     libucrt:osfinfo.obj
 0004:000034c8       $pdata$_get_osfhandle      00000001800664c8     libucrt:osfinfo.obj
 0004:000034d4       $pdata$?GetTableIndexFromLocaleName@@YAHPEB_W@Z 00000001800664d4     libucrt:lcidtoname_downlevel.obj
 0004:000034e0       $pdata$__acrt_DownlevelLocaleNameToLCID 00000001800664e0     libucrt:lcidtoname_downlevel.obj
 0004:000034ec       $pdata$_getfpcontrolword   00000001800664ec     libucrt:_fenvutils.obj
 0004:000034f8       $pdata$_getfpstatusword    00000001800664f8     libucrt:_fenvutils.obj
 0004:00003504       $pdata$_setfpstatusword    0000000180066504     libucrt:_fenvutils.obj
 0004:00003510       $pdata$_strnicmp           0000000180066510     libucrt:strnicmp.obj
 0004:0000351c       $pdata$_strnicmp_l         000000018006651c     libucrt:strnicmp.obj
 0004:00003528       $pdata$?InternalCompareStringA@@YAHPEAU__crt_locale_pointers@@PEB_WKPEBDH2HH@Z 0000000180066528     libucrt:comparestringa.obj
 0004:00003534       $pdata$__acrt_CompareStringA 0000000180066534     libucrt:comparestringa.obj
 0004:00003540       $pdata$??$common_sopen_dispatch@D@@YAHQEBDHHHQEAHH@Z 0000000180066540     libucrt:open.obj
 0004:0000354c       $pdata$?configure_text_mode@@YAHHUfile_options@?A0x656cf9f4@@HAEAW4__crt_lowio_text_mode@@@Z 000000018006654c     libucrt:open.obj
 0004:00003558       $pdata$?decode_options@@YA?AUfile_options@?A0x656cf9f4@@HHH@Z 0000000180066558     libucrt:open.obj
 0004:00003564       $pdata$?truncate_ctrl_z_if_present@@YAHH@Z 0000000180066564     libucrt:open.obj
 0004:00003570       $pdata$_sopen_nolock       0000000180066570     libucrt:open.obj
 0004:0000357c       $pdata$_sopen_s            000000018006657c     libucrt:open.obj
 0004:00003588       $pdata$_wsopen_nolock      0000000180066588     libucrt:open.obj
 0004:00003594       $pdata$__acrt_stdio_allocate_buffer_nolock 0000000180066594     libucrt:_getbuf.obj
 0004:000035a0       $pdata$?shortsort@@YAXPEAD0_KP6AHPEBX2@Z@Z 00000001800665a0     libucrt:qsort.obj
 0004:000035ac       $pdata$2$?shortsort@@YAXPEAD0_KP6AHPEBX2@Z@Z 00000001800665ac     libucrt:qsort.obj
 0004:000035b8       $pdata$3$?shortsort@@YAXPEAD0_KP6AHPEBX2@Z@Z 00000001800665b8     libucrt:qsort.obj
 0004:000035c4       $pdata$qsort               00000001800665c4     libucrt:qsort.obj
 0004:000035d0       $pdata$4$qsort             00000001800665d0     libucrt:qsort.obj
 0004:000035dc       $pdata$5$qsort             00000001800665dc     libucrt:qsort.obj
 0004:000035e8       $pdata$strncpy_s           00000001800665e8     libucrt:strncpy_s.obj
 0004:000035f4       $pdata$strpbrk             00000001800665f4     libucrt:strpbrk.obj
 0004:00003600       $pdata$_mbsdec_l           0000000180066600     libucrt:mbsdec.obj
 0004:0000360c       $pdata$?initialize_multibyte@@YAHXZ 000000018006660c     libucrt:multibyte_initializer.obj
 0004:00003618       $pdata$_msize              0000000180066618     libucrt:msize.obj
 0004:00003624       $pdata$_putwch_nolock      0000000180066624     libucrt:putwch.obj
 0004:00003630       $pdata$fegetenv            0000000180066630     libucrt:fegetenv.obj
 0004:0000363c       $pdata$fesetenv            000000018006663c     libucrt:fesetenv.obj
 0004:00003648       $pdata$feholdexcept        0000000180066648     libucrt:feholdexcept.obj
 0004:00003660       $pdata$_clearfp            0000000180066660     libucrt:ieee.obj
 0004:0000366c       $pdata$common_control87    000000018006666c     libucrt:ieee.obj
 0004:00003684       $pdata$_get_fmode          0000000180066684     libucrt:setmode.obj
 0004:00003690       $pdata$_setmode_nolock     0000000180066690     libucrt:setmode.obj
 0004:0000369c       $pdata$__acrt_copy_path_to_wide_string 000000018006669c     libucrt:string_utilities.obj
 0004:000036a8       $pdata$_chsize_nolock      00000001800666a8     libucrt:chsize.obj
 0004:000036b4       $pdata$__dcrt_lowio_initialize_console_output 00000001800666b4     libucrt:initcon.obj
 0004:000036c0       $pdata$__dcrt_terminate_console_output 00000001800666c0     libucrt:initcon.obj
 0004:000036cc       $pdata$_call_matherr       00000001800666cc     libucrt:libm_error.obj
 0004:000036d8       $pdata$_exception_enabled  00000001800666d8     libucrt:libm_error.obj
 0004:000036e4       $pdata$_handle_error       00000001800666e4     libucrt:libm_error.obj
 0004:000036f0       $pdata$__acrt_initialize_fma3 00000001800666f0     libucrt:fma3_available.obj
 0004:000036fc       $pdata$_log10_special      00000001800666fc     libucrt:log_special.obj
 0004:00003708       $pdata$_log_special_common 0000000180066708     libucrt:log_special.obj
 0004:00003714       $pdata$_raise_exc          0000000180066714     libucrt:fpexcept.obj
 0004:00003720       $pdata$_raise_exc_ex       0000000180066720     libucrt:fpexcept.obj
 0004:0000372c       $pdata$_set_errno_from_matherr 000000018006672c     libucrt:fpexcept.obj
 0004:00003738       $pdata$_clrfp              0000000180066738     libucrt:fpctrl.obj
 0004:00003744       $pdata$_ctrlfp             0000000180066744     libucrt:fpctrl.obj
 0004:00003750       $pdata$_set_statfp         0000000180066750     libucrt:fpctrl.obj
 0004:0000375c       $pdata$_statfp             000000018006675c     libucrt:fpctrl.obj
 0004:00003768       $pdata$?DloadAcquireSectionWriteAccess@@YAXXZ 0000000180066768     DelayImp:delayhlp.obj
 0004:00003774       $pdata$?DloadGetSRWLockFunctionPointers@@YAEXZ 0000000180066774     DelayImp:delayhlp.obj
 0004:00003780       $pdata$?DloadMakePermanentImageCommit@@YAXPEAX_K@Z 0000000180066780     DelayImp:delayhlp.obj
 0004:0000378c       $pdata$?DloadObtainSection@@YAPEAXPEAK0@Z 000000018006678c     DelayImp:delayhlp.obj
 0004:00003798       $pdata$?DloadProtectSection@@YAXKPEAK@Z 0000000180066798     DelayImp:delayhlp.obj
 0004:000037a4       $pdata$?DloadReleaseSectionWriteAccess@@YAXXZ 00000001800667a4     DelayImp:delayhlp.obj
 0004:000037b0       $pdata$__delayLoadHelper2  00000001800667b0     DelayImp:delayhlp.obj
 0004:000037bc       $pdata$_IsNonwritableInCurrentImage 00000001800667bc     LIBCMT:pesect.obj
 0004:000037c8       $pdata$__GSHandlerCheck    00000001800667c8     LIBCMT:_gshandler_.obj
 0004:000037d4       $pdata$__GSHandlerCheckCommon 00000001800667d4     LIBCMT:_gshandler_.obj
 0004:000037f8       $pdata$__GSHandlerCheck_EH 00000001800667f8     LIBCMT:gshandlereh.obj
 0004:0000381c       $pdata$?dtor$2@?0??CreateBaton@njsCommon@@IEAAPEAVnjsBaton@@AEBV?$FunctionCallbackInfo@VValue@v8@@@Nan@@@Z@4HA 000000018006681c     njsCommon.obj
 0004:00003828       $pdata$?dtor$0@?0??New@njsOracledb@@CAXAEBV?$FunctionCallbackInfo@VValue@v8@@@Nan@@@Z@4HA 0000000180066828     njsOracle.obj
 0004:00003834       $pdata$?dtor$0@?0??ProcessVars@njsConnection@@SA_NPEAVnjsBaton@@PEAVnjsVariable@@II@Z@4HA 0000000180066834     njsConnection.obj
 0004:00003840       $pdata$?dtor$0@?0??ProcessVarBuffer@njsConnection@@CA_NPEAVnjsBaton@@PEAVnjsVariable@@PEAVnjsVariableBuffer@@@Z@4HA 0000000180066840     njsConnection.obj
 0004:0000384c       $pdata$?dtor$1@?0??ProcessVarBuffer@njsConnection@@CA_NPEAVnjsBaton@@PEAVnjsVariable@@PEAVnjsVariableBuffer@@@Z@4HA 000000018006684c     njsConnection.obj
 0004:00003858       $pdata$?dtor$0@?0??InitBindVars@njsConnection@@CA_NV?$Local@VObject@v8@@@v8@@V?$Local@VArray@v8@@@3@PEAVnjsBaton@@@Z@4HA 0000000180066858     njsConnection.obj
 0004:00003864       $pdata$?dtor$2@?0??ProcessExecuteOptions@njsConnection@@CA_NV?$Local@VObject@v8@@@v8@@PEAVnjsBaton@@@Z@4HA 0000000180066864     njsConnection.obj
 0004:00003870       $pdata$?dtor$0@?0??Async_Execute@njsConnection@@CAXPEAVnjsBaton@@@Z@4HA 0000000180066870     njsConnection.obj
 0004:0000387c       $pdata$?dtor$0@?0??Async_GetStatementInfo@njsConnection@@CAXPEAVnjsBaton@@@Z@4HA 000000018006687c     njsConnection.obj
 0004:00003888       $pdata$?dtor$0@?0???$?HDU?$char_traits@D@std@@V?$allocator@D@1@@std@@YA?AV?$basic_string@DU?$char_traits@D@std@@V?$allocator@D@2@@0@PEBDAEBV10@@Z@4HA 0000000180066888     njsConnection.obj
 0004:00003894       $pdata$?dtor$0@?0??Get@njsMessages@@SA?AV?$basic_string@DU?$char_traits@D@std@@V?$allocator@D@2@@std@@HZZ@4HA 0000000180066894     njsMessages.obj
 0004:000038a0       $pdata$?fin$0@?0???_M@YAXPEAX_K1P6AX0@Z@Z@4HA 00000001800668a0     LIBCMT:ehvecdtr.obj
 0004:000038ac       $pdata$?filt$0@?0??__ArrayUnwind@@YAXPEAX_K1P6AX0@Z@Z@4HA 00000001800668ac     LIBCMT:ehvecdtr.obj
 0004:000038b8       $pdata$__scrt_is_nonwritable_in_current_image$filt$0 00000001800668b8     LIBCMT:utility.obj
 0004:000038c4       $pdata$?fin$0@?0???_L@YAXPEAX_K1P6AX0@Z2@Z@4HA 00000001800668c4     LIBCMT:ehvecctr.obj
 0004:000038d0       $pdata$?fin$0@?0??dllmain_crt_process_attach@@YAHQEAUHINSTANCE__@@QEAX@Z@4HA 00000001800668d0     LIBCMT:dll_dllmain.obj
 0004:000038dc       $pdata$?fin$0@?0??dllmain_crt_process_detach@@YAH_N@Z@4HA 00000001800668dc     LIBCMT:dll_dllmain.obj
 0004:000038e8       $pdata$?filt$0@?0??dllmain_dispatch@@YAHQEAUHINSTANCE__@@KQEAX@Z@4HA 00000001800668e8     LIBCMT:dll_dllmain.obj
 0004:000038f4       $pdata$__CxxCallCatchBlock$filt$0 00000001800668f4     libvcruntime:frame.obj
 0004:00003900       $pdata$__CxxCallCatchBlock$fin$1 0000000180066900     libvcruntime:frame.obj
 0004:0000390c       $pdata$__DestructExceptionObject$filt$0 000000018006690c     libvcruntime:frame.obj
 0004:00003918       $pdata$__FrameUnwindToState$filt$0 0000000180066918     libvcruntime:frame.obj
 0004:00003924       $pdata$__FrameUnwindToState$fin$1 0000000180066924     libvcruntime:frame.obj
 0004:00003930       $pdata$_CallSETranslator$filt$0 0000000180066930     libvcruntime:trnsctrl.obj
 0004:0000393c       $pdata$?fin$0@?0???$?RV<lambda_aa279a7bcb127014629d5b1d62c7325d>@@AEAV<lambda_0a64b6a4deda75c01876f29c44fc5eb3>@@V<lambda_3323e69fbefe9d1a11713e670d47cdfa>@@@?$__crt_seh_guarded_call@H@@QEAAH$$QEAV<lambda_aa279a7bcb127014629d5b1d62c7325d>@@AEAV<lambda_0a64b6a4deda75c01876f29c44fc5eb3>@@$$QEAV<lambda_3323e69fbefe9d1a11713e670d47cdfa>@@@Z@4HA 000000018006693c     libucrt:output.obj
 0004:0000393c       $pdata$?fin$0@?0???$?RV<lambda_7b91131dde12e1c3dfc74ff76b3f2eac>@@AEAV<lambda_dd75445284c072d0bd3768540cc698fa>@@V<lambda_16bc4ecb55b4718497c16bceaea2ceaf>@@@?$__crt_seh_guarded_call@H@@QEAAH$$QEAV<lambda_7b91131dde12e1c3dfc74ff76b3f2eac>@@AEAV<lambda_dd75445284c072d0bd3768540cc698fa>@@$$QEAV<lambda_16bc4ecb55b4718497c16bceaea2ceaf>@@@Z@4HA 000000018006693c     libucrt:output.obj
 0004:0000393c       $pdata$?fin$0@?0???$?RV<lambda_7a5ef57ff966f610505f1d28a3d40618>@@AEAV<lambda_b721fa326cdb32351d23dfa67958c160>@@V<lambda_5e0fb27672408a07956fe59e48ccb2aa>@@@?$__crt_seh_guarded_call@H@@QEAAH$$QEAV<lambda_7a5ef57ff966f610505f1d28a3d40618>@@AEAV<lambda_b721fa326cdb32351d23dfa67958c160>@@$$QEAV<lambda_5e0fb27672408a07956fe59e48ccb2aa>@@@Z@4HA 000000018006693c     libucrt:setvbuf.obj
 0004:00003948       $pdata$?fin$0@?0???$common_getenv@D@@YAPEADQEBD@Z@4HA 0000000180066948     libucrt:getenv.obj
 0004:00003954       $pdata$?fin$0@?0???$common_fsopen@D@@YAPEAU_iobuf@@QEBD0H@Z@4HA 0000000180066954     libucrt:fopen.obj
 0004:00003960       $pdata$fflush$fin$0        0000000180066960     libucrt:fflush.obj
 0004:00003960       $pdata$fclose$fin$0        0000000180066960     libucrt:fclose.obj
 0004:0000396c       $pdata$?fin$0@?0??common_fseek@@YAHV__crt_stdio_stream@@_JH@Z@4HA 000000018006696c     libucrt:fseek.obj
 0004:00003978       $pdata$fread_s$fin$0       0000000180066978     libucrt:fread.obj
 0004:00003984       $pdata$_query_new_handler$fin$0 0000000180066984     libucrt:new_handler.obj
 0004:00003990       $pdata$?filt$0@?0??common_exit@@YAXHW4_crt_exit_cleanup_mode@@W4_crt_exit_return_mode@@@Z@4HA 0000000180066990     libucrt:exit.obj
 0004:0000399c       $pdata$?fin$1@?0??common_exit@@YAXHW4_crt_exit_cleanup_mode@@W4_crt_exit_return_mode@@@Z@4HA 000000018006699c     libucrt:exit.obj
 0004:000039a8       $pdata$?fin$0@?0???$?RV<lambda_e24bbb7b643b32fcea6fa61b31d4c984>@@AEAV<lambda_275893d493268fdec8709772e3fcec0e>@@V<lambda_9d71df4d7cf3f480f8d633942495c3b0>@@@?$__crt_seh_guarded_call@H@@QEAAH$$QEAV<lambda_e24bbb7b643b32fcea6fa61b31d4c984>@@AEAV<lambda_275893d493268fdec8709772e3fcec0e>@@$$QEAV<lambda_9d71df4d7cf3f480f8d633942495c3b0>@@@Z@4HA 00000001800669a8     libucrt:onexit.obj
 0004:000039b4       $pdata$common_flush_all$fin$0 00000001800669b4     libucrt:fflush.obj
 0004:000039c0       $pdata$common_flush_all$fin$1 00000001800669c0     libucrt:fflush.obj
 0004:000039cc       $pdata$?fin$0@?0???$?RV<lambda_fb3a7dec4e47f37f22dae91bb15c9095>@@AEAV<lambda_698284760c8add0bfb0756c19673e34b>@@V<lambda_dfb8eca1e75fef3034a8fb18dd509707>@@@?$__crt_seh_guarded_call@X@@QEAAX$$QEAV<lambda_fb3a7dec4e47f37f22dae91bb15c9095>@@AEAV<lambda_698284760c8add0bfb0756c19673e34b>@@$$QEAV<lambda_dfb8eca1e75fef3034a8fb18dd509707>@@@Z@4HA 00000001800669cc     libucrt:per_thread_data.obj
 0004:000039cc       $pdata$?fin$0@?0???$?RV<lambda_5e887d1dcbef67a5eb4283622ba103bf>@@AEAV<lambda_4466841279450cc726390878d4a41900>@@V<lambda_341c25c0346d94847f1f3c463c57e077>@@@?$__crt_seh_guarded_call@X@@QEAAX$$QEAV<lambda_5e887d1dcbef67a5eb4283622ba103bf>@@AEAV<lambda_4466841279450cc726390878d4a41900>@@$$QEAV<lambda_341c25c0346d94847f1f3c463c57e077>@@@Z@4HA 00000001800669cc     libucrt:per_thread_data.obj
 0004:000039cc       $pdata$?fin$0@?0???$?RV<lambda_99476a1ad63dd22509b5d3e65b0ffc95>@@AEAV<lambda_ad1ced32f4ac17aa236e5ef05d6b3b7c>@@V<lambda_f7424dd8d45958661754dc4f2697e9c3>@@@?$__crt_seh_guarded_call@X@@QEAAX$$QEAV<lambda_99476a1ad63dd22509b5d3e65b0ffc95>@@AEAV<lambda_ad1ced32f4ac17aa236e5ef05d6b3b7c>@@$$QEAV<lambda_f7424dd8d45958661754dc4f2697e9c3>@@@Z@4HA 00000001800669cc     libucrt:mbctype.obj
 0004:000039cc       $pdata$?fin$0@?0???$?RV<lambda_72d1df2b273a38828b1ce30cbf4cdab5>@@AEAV<lambda_876a65b173b8412d3a47c70a915b0cf4>@@V<lambda_41932305e351933ebe8f8be3ed8bb5dc>@@@?$__crt_seh_guarded_call@X@@QEAAX$$QEAV<lambda_72d1df2b273a38828b1ce30cbf4cdab5>@@AEAV<lambda_876a65b173b8412d3a47c70a915b0cf4>@@$$QEAV<lambda_41932305e351933ebe8f8be3ed8bb5dc>@@@Z@4HA 00000001800669cc     libucrt:per_thread_data.obj
 0004:000039cc       $pdata$?fin$0@?0???$?RV<lambda_b8c45f8f788dd370798f47cfe8ac3a86>@@AEAV<lambda_4e60a939b0d047cfe11ddc22648dfba9>@@V<lambda_332c3edc96d0294ec56c57d38c1cdfd5>@@@?$__crt_seh_guarded_call@H@@QEAAH$$QEAV<lambda_b8c45f8f788dd370798f47cfe8ac3a86>@@AEAV<lambda_4e60a939b0d047cfe11ddc22648dfba9>@@$$QEAV<lambda_332c3edc96d0294ec56c57d38c1cdfd5>@@@Z@4HA 00000001800669cc     libucrt:onexit.obj
 0004:000039cc       $pdata$?fin$0@?0???$?RV<lambda_c36588078e9f5dfd39652860aa6b3aaf>@@AEAV<lambda_ec61778202f4f5fc7e7711acc23c3bca>@@V<lambda_dc9d2797ccde5d239b4a0efae8ebd7db>@@@?$__crt_seh_guarded_call@P6AXH@Z@@QEAAP6AXH@Z$$QEAV<lambda_c36588078e9f5dfd39652860aa6b3aaf>@@AEAV<lambda_ec61778202f4f5fc7e7711acc23c3bca>@@$$QEAV<lambda_dc9d2797ccde5d239b4a0efae8ebd7db>@@@Z@4HA 00000001800669cc     libucrt:signal.obj
 0004:000039cc       $pdata$?fin$0@?0???$?RV<lambda_46352004c1216016012b18bd6f87e700>@@AEAV<lambda_3bd07e1a1191394380780325891bf33f>@@V<lambda_334532d3f185bcaa59b5be82d7d22bff>@@@?$__crt_seh_guarded_call@X@@QEAAX$$QEAV<lambda_46352004c1216016012b18bd6f87e700>@@AEAV<lambda_3bd07e1a1191394380780325891bf33f>@@$$QEAV<lambda_334532d3f185bcaa59b5be82d7d22bff>@@@Z@4HA 00000001800669cc     libucrt:per_thread_data.obj
 0004:000039d8       $pdata$raise$fin$0         00000001800669d8     libucrt:signal.obj
 0004:000039e4       $pdata$__acrt_lowio_ensure_fh_exists$fin$0 00000001800669e4     libucrt:osfinfo.obj
 0004:000039e4       $pdata$__acrt_initialize_lowio$fin$0 00000001800669e4     libucrt:ioinit.obj
 0004:000039e4       $pdata$_alloc_osfhnd$fin$0 00000001800669e4     libucrt:osfinfo.obj
 0004:000039f0       $pdata$_fcloseall$fin$0    00000001800669f0     libucrt:closeall.obj
 0004:000039f0       $pdata$?fin$0@?0??__acrt_stdio_allocate_stream@@YA?AV__crt_stdio_stream@@XZ@4HA 00000001800669f0     libucrt:stream.obj
 0004:000039fc       $pdata$_write$fin$0        00000001800669fc     libucrt:write.obj
 0004:000039fc       $pdata$?fin$0@?0???$common_lseek@_J@@YA_JH_JH@Z@4HA 00000001800669fc     libucrt:lseek.obj
 0004:000039fc       $pdata$_read$fin$0         00000001800669fc     libucrt:read.obj
 0004:00003a08       $pdata$__acrt_update_thread_multibyte_data$fin$0 0000000180066a08     libucrt:mbctype.obj
 0004:00003a14       $pdata$?fin$0@?0???$?RV<lambda_bfedae4ebbf01fab1bb6dcc6a9e276e0>@@AEAV<lambda_2fe9b910cf3cbf4a0ab98a02ba45b3ec>@@V<lambda_237c231691f317818eb88cc1d5d642d6>@@@?$__crt_seh_guarded_call@H@@QEAAH$$QEAV<lambda_bfedae4ebbf01fab1bb6dcc6a9e276e0>@@AEAV<lambda_2fe9b910cf3cbf4a0ab98a02ba45b3ec>@@$$QEAV<lambda_237c231691f317818eb88cc1d5d642d6>@@@Z@4HA 0000000180066a14     libucrt:close.obj
 0004:00003a14       $pdata$?fin$0@?0???$?RV<lambda_b521505b218e5242e90febf6bfebc422>@@AEAV<lambda_6978c1fb23f02e42e1d9e99668cc68aa>@@V<lambda_314360699dd331753a4119843814e9a7>@@@?$__crt_seh_guarded_call@H@@QEAAH$$QEAV<lambda_b521505b218e5242e90febf6bfebc422>@@AEAV<lambda_6978c1fb23f02e42e1d9e99668cc68aa>@@$$QEAV<lambda_314360699dd331753a4119843814e9a7>@@@Z@4HA 0000000180066a14     libucrt:commit.obj
 0004:00003a20       $pdata$__acrt_update_thread_locale_data$fin$0 0000000180066a20     libucrt:locale_refcounting.obj
 0004:00003a20       $pdata$__acrt_uninitialize_locale$fin$0 0000000180066a20     libucrt:wsetlocale.obj
 0004:00003a2c       $pdata$?fin$0@?0???$common_sopen_dispatch@D@@YAHQEBDHHHQEAHH@Z@4HA 0000000180066a2c     libucrt:open.obj
 0004:00003a38       $pdata$common_control87$filt$0 0000000180066a38     libucrt:ieee.obj
 0004:00003a38       $pdata$_ctrlfp$filt$0      0000000180066a38     libucrt:fpctrl.obj
 0004:00003a44       $pdata$_IsNonwritableInCurrentImage$filt$0 0000000180066a44     LIBCMT:pesect.obj
 0004:00003a50       $pdata$??__F?oracledbTemplate_s@njsOracledb@@0V?$Persistent@VFunctionTemplate@v8@@V?$NonCopyablePersistentTraits@VFunctionTemplate@v8@@@2@@Nan@@A@@YAXXZ 0000000180066a50     njsOracle.obj
 0004:00003a5c       $pdata$??__F?poolTemplate_s@njsPool@@0V?$Persistent@VFunctionTemplate@v8@@V?$NonCopyablePersistentTraits@VFunctionTemplate@v8@@@2@@Nan@@A@@YAXXZ 0000000180066a5c     njsPool.obj
 0004:00003a68       $pdata$??__F?connectionTemplate_s@njsConnection@@0V?$Persistent@VFunctionTemplate@v8@@V?$NonCopyablePersistentTraits@VFunctionTemplate@v8@@@2@@Nan@@A@@YAXXZ 0000000180066a68     njsConnection.obj
 0004:00003a74       $pdata$??__F?resultSetTemplate_s@njsResultSet@@0V?$Persistent@VFunctionTemplate@v8@@V?$NonCopyablePersistentTraits@VFunctionTemplate@v8@@@2@@Nan@@A@@YAXXZ 0000000180066a74     njsResultSet.obj
 0004:00003a80       $pdata$??__F?iLobTemplate_s@njsILob@@0V?$Persistent@VFunctionTemplate@v8@@V?$NonCopyablePersistentTraits@VFunctionTemplate@v8@@@2@@Nan@@A@@YAXXZ 0000000180066a80     njsIntLob.obj
 0005:00000000       __guard_fids__             0000000180067000     libucrt:initialization.obj
 0005:00000060       __guard_fids___acrt_show_wide_message_box 0000000180067060     libucrt:crtmbox.obj
 0005:00000064       __guard_fids___acrt_initialize_ptd 0000000180067064     libucrt:per_thread_data.obj
 0005:00000068       __guard_fids__             0000000180067068     libucrt:stdio_initializer.obj
 0005:0000006c       __guard_fids__             000000018006706c     libucrt:stdio_initializer.obj
 0005:00000070       __guard_fids_??$expand_argument_wildcards@D@@YAHQEAD0AEAV?$argument_list@D@?A0xca0879c4@@@Z 0000000180067070     libucrt:argv_wildcards.obj
 0005:00000074       __guard_fids__             0000000180067074     libucrt:locale_initializer.obj
 0005:00000078       __guard_fids__             0000000180067078     libucrt:multibyte_initializer.obj
 0005:0000007c       __guard_fids__             000000018006707c     libucrt:console_output_initializer.obj
 0005:00000080       __guard_fids__             0000000180067080     libucrt:fma3_initializer.obj
 0005:00000084       __guard_fids__             0000000180067084     libcpmt:xthrow.obj
 0005:0000008c       __guard_fids__             000000018006708c     libcpmt:xthrow.obj
 0005:00000094       __guard_fids__             0000000180067094     libcpmt:xthrow.obj
 0005:0000009c       __guard_fids__             000000018006709c     libcpmt:xthrow.obj
 0005:000000a4       __guard_fids__             00000001800670a4     libcpmt:xthrow.obj
 0005:000000ac       __guard_fids_?dllmain_crt_process_attach@@YAHQEAUHINSTANCE__@@QEAX@Z 00000001800670ac     LIBCMT:dll_dllmain.obj
 0005:000000b4       __guard_fids_?dllmain_dispatch@@YAHQEAUHINSTANCE__@@KQEAX@Z 00000001800670b4     LIBCMT:dll_dllmain.obj
 0005:000000b8       __guard_fids__             00000001800670b8     LIBCMT:std_type_info_static.obj
 0005:000000bc       __guard_fids__             00000001800670bc     LIBCMT:throw_bad_alloc.obj
 0005:000000c4       __guard_fids__             00000001800670c4     LIBCMT:guard_support.obj
 0005:000000c8       __guard_fids__             00000001800670c8     libvcruntime:frame.obj
 0005:000000cc       __guard_fids__             00000001800670cc     libvcruntime:frame.obj
 0005:000000d4       __guard_fids___vcrt_initialize_ptd 00000001800670d4     libvcruntime:per_thread_data.obj
 0005:000000d8       __guard_fids__UnwindNestedFrames 00000001800670d8     libvcruntime:trnsctrl.obj
 0006:00000060       $R000000                   0000000180068060     * linker generated manifest res *

 Exports

  ordinal    name

        1    _register_oracledb_
